MPLINK 4.21, Linker
Linker Map File - Created Mon Oct 27 14:13:23 2008

                                 Section Info
                  Section       Type    Address   Location Size(Bytes)
                ---------  ---------  ---------  ---------  ---------
               _entry_scn       code   0x000000    program   0x000006
               highVector       code   0x000008    program   0x000006
                lowVector       code   0x000018    program   0x000006
              .code_TCP.o       code   0x00002a    program   0x0031d0
             .stringtable    romdata   0x0031fa    program   0x0030b4
   .code_SecuritySystem.o       code   0x0062ae    program   0x002764
            .code_HTTP2.o       code   0x008a12    program   0x0025d8
             .code_SMTP.o       code   0x00afea    program   0x001a5a
.code_SecurityXPLSender.o       code   0x00ca44    program   0x00139e
        .code_HTTPForms.o       code   0x00dde2    program   0x001176
              .code_xPL.o       code   0x00ef58    program   0x00112c
            .code_MPFS2.o       code   0x010084    program   0x000dfc
     .code_Authenticate.o       code   0x010e80    program   0x000bfe
          .code_Helpers.o       code   0x011a7e    program   0x000b0e
              .code_AES.o       code   0x01258c    program   0x000b0a
 .code_HTTPDynVariables.o       code   0x013096    program   0x0009a4
         .code_ETH97J60.o       code   0x013a3a    program   0x00095e
              .code_UDP.o       code   0x014398    program   0x000822
              .code_EOL.o       code   0x014bba    program   0x00077e
              .code_DNS.o       code   0x015338    program   0x00065e
  .code_SNTP Customised.o       code   0x015996    program   0x00061a
              BIGINT_CODE       code   0x015fb0    program   0x0005b8
                   STDLIB       code   0x016568    program   0x00052c
           .romdata_AES.o    romdata   0x016a94    program   0x000500
                   STRING       code   0x016f94    program   0x0004b8
         .code_MainDemo.o       code   0x01744c    program   0x00045a
              .code_ARP.o       code   0x0178a6    program   0x000400
                     PROG       code   0x017ca6    program   0x000376
             .code_NBNS.o       code   0x01801c    program   0x000342
      .code_LCDBlocking.o       code   0x01835e    program   0x00026c
               .code_IP.o       code   0x0185ca    program   0x00025a
        .code_SPIEEPROM.o       code   0x018824    program   0x000228
             .code_UART.o       code   0x018a4c    program   0x00013a
             .code_Tick.o       code   0x018b86    program   0x000120
         .code_StackTsk.o       code   0x018ca6    program   0x0000fa
              D1KTCYXCODE       code   0x018da0    program   0x000020
             _startup_scn       code   0x018dc0    program   0x00001a
              D10TCYXCODE       code   0x018dda    program   0x000016
           .romdata_xPL.o    romdata   0x018df0    program   0x000012
           .romdata_TCP.o    romdata   0x018e02    program   0x000012
                    .code       code   0x018e14    program   0x00000e
         .romdata_HTTP2.o    romdata   0x018e22    program   0x000003
        .romdata___init.o    romdata   0x018e25    program   0x000000
        .idata___init.o_i    romdata   0x018e25    program   0x000000
          .romdata_Tick.o    romdata   0x018e25    program   0x000000
.romdata_HTTPDynVariables.o    romdata   0x018e25    program   0x000000
.romdata_SNTP Customised.o    romdata   0x018e25    program   0x000000
          .idata_UART.o_i    romdata   0x018e25    program   0x000000
          .romdata_UART.o    romdata   0x018e25    program   0x000000
           .romdata_EOL.o    romdata   0x018e25    program   0x000000
       .romdata_Battery.o    romdata   0x018e25    program   0x000000
           .romdata_UDP.o    romdata   0x018e25    program   0x000000
        .romdata_BigInt.o    romdata   0x018e25    program   0x000000
 .romdata_CustomSSLCert.o    romdata   0x018e25    program   0x000000
        .romdata_Random.o    romdata   0x018e25    program   0x000000
        .idata_Random.o_i    romdata   0x018e25    program   0x000000
.romdata_SecuritySystem.o    romdata   0x018e25    program   0x000000
           .romdata_RSA.o    romdata   0x018e25    program   0x000000
           .idata_RSA.o_i    romdata   0x018e25    program   0x000000
          .idata_SNMP.o_i    romdata   0x018e25    program   0x000000
          .romdata_SNMP.o    romdata   0x018e25    program   0x000000
       .romdata_ARCFOUR.o    romdata   0x018e25    program   0x000000
  .romdata_Authenticate.o    romdata   0x018e25    program   0x000000
           .romdata_SSL.o    romdata   0x018e25    program   0x000000
           .idata_SSL.o_i    romdata   0x018e25    program   0x000000
.idata_SecurityXPLSender.o_i    romdata   0x018e25    program   0x000000
.romdata_SecurityXPLSender.o    romdata   0x018e25    program   0x000000
     .romdata_HTTPForms.o    romdata   0x018e25    program   0x000000
          .romdata_ICMP.o    romdata   0x018e25    program   0x000000
           .romdata_ARP.o    romdata   0x018e25    program   0x000000
       .romdata_Helpers.o    romdata   0x018e25    program   0x000000
            .romdata_IP.o    romdata   0x018e25    program   0x000000
         .romdata_Delay.o    romdata   0x018e25    program   0x000000
   .romdata_LCDBlocking.o    romdata   0x018e25    program   0x000000
       .romdata_c018i_e.o    romdata   0x018e25    program   0x000000
       .idata_c018i_e.o_i    romdata   0x018e25    program   0x000000
           .romdata_DNS.o    romdata   0x018e25    program   0x000000
         .romdata_MPFS2.o    romdata   0x018e25    program   0x000000
          .idata_NBNS.o_i    romdata   0x018e25    program   0x000001
          .romdata_NBNS.o    romdata   0x018e25    program   0x000000
        .romdata_DynDNS.o    romdata   0x018e25    program   0x000000
        .idata_Reboot.o_i    romdata   0x018e25    program   0x000000
        .romdata_Reboot.o    romdata   0x018e25    program   0x000000
      .romdata_ETH97J60.o    romdata   0x018e25    program   0x000000
          .romdata_SMTP.o    romdata   0x018e25    program   0x000000
     .idata_SPIEEPROM.o_i    romdata   0x018e25    program   0x000000
     .romdata_SPIEEPROM.o    romdata   0x018e25    program   0x000000
      .idata_StackTsk.o_i    romdata   0x018e25    program   0x000000
      .romdata_StackTsk.o    romdata   0x018e25    program   0x000000
        .romdata_Hashes.o    romdata   0x018e25    program   0x000000
           .code___init.o       code   0x018e26    program   0x000002
              SEED_DATA_i    romdata   0x018e28    program   0x000002
           .idata_xPL.o_i    romdata   0x018e2a    program   0x000052
           .idata_UDP.o_i    romdata   0x018e7c    program   0x000002
          .idata_Tick.o_i    romdata   0x018e7e    program   0x000004
           .idata_TCP.o_i    romdata   0x018e82    program   0x000002
.idata_SecuritySystem.o_i    romdata   0x018e84    program   0x00005b
.idata_SNTP Customised.o_i    romdata   0x018edf    program   0x000004
          .idata_SMTP.o_i    romdata   0x018ee3    program   0x000012
      .idata_MainDemo.o_i    romdata   0x018ef5    program   0x000005
            .idata_IP.o_i    romdata   0x018efa    program   0x000002
   .idata_LCDBlocking.o_i    romdata   0x018efa    program   0x000000
         .idata_MPFS2.o_i    romdata   0x018efa    program   0x000000
.idata_HTTPDynVariables.o_i    romdata   0x018efc    program   0x000019
        .idata_Hashes.o_i    romdata   0x018efc    program   0x000000
     .idata_HTTPForms.o_i    romdata   0x018efc    program   0x000000
          .idata_ICMP.o_i    romdata   0x018efc    program   0x000000
       .idata_Helpers.o_i    romdata   0x018efc    program   0x000000
         .idata_HTTP2.o_i    romdata   0x018f15    program   0x000078
         .idata_Delay.o_i    romdata   0x018f8d    program   0x000000
      .idata_ETH97J60.o_i    romdata   0x018f8d    program   0x000000
        .idata_DynDNS.o_i    romdata   0x018f8d    program   0x000000
           .idata_EOL.o_i    romdata   0x018f8d    program   0x000000
           .idata_DNS.o_i    romdata   0x018f8d    program   0x000003
 .idata_CustomSSLCert.o_i    romdata   0x018f90    program   0x000000
        .idata_BigInt.o_i    romdata   0x018f90    program   0x000000
       .idata_Battery.o_i    romdata   0x018f90    program   0x00000c
  .idata_Authenticate.o_i    romdata   0x018f9c    program   0x000000
           .idata_ARP.o_i    romdata   0x018f9c    program   0x000001
           .idata_AES.o_i    romdata   0x018f9d    program   0x000000
       .idata_ARCFOUR.o_i    romdata   0x018f9d    program   0x000000
          .code_c018i_e.o       code   0x018f9e    program   0x000000
             .code_ICMP.o       code   0x018f9e    program   0x000000
             .code_SNMP.o       code   0x018f9e    program   0x000000
           .code_Reboot.o       code   0x018f9e    program   0x000000
              .code_RSA.o       code   0x018f9e    program   0x000000
           .code_Hashes.o       code   0x018f9e    program   0x000000
           .code_Random.o       code   0x018f9e    program   0x000000
    .code_CustomSSLCert.o       code   0x018f9e    program   0x000000
           .code_DynDNS.o       code   0x018f9e    program   0x000000
           .code_BigInt.o       code   0x018f9e    program   0x000000
          .code_ARCFOUR.o       code   0x018f9e    program   0x000000
            .code_Delay.o       code   0x018f9e    program   0x000000
              .code_SSL.o       code   0x018f9e    program   0x000000
                   .cinit    romdata   0x01fc00    program   0x0000c2
          .code_Battery.o       code   0x01fcc2    program   0x00026e
               _cinit_scn       code   0x01ff30    program   0x00009e
                    CTYPE       code   0x01ffce    program   0x000024
      .romdata_MainDemo.o    romdata   0x01fff2    program   0x000006
 .config_1fff8_MainDemo.o    romdata   0x01fff8    program   0x000001
 .config_1fffa_MainDemo.o    romdata   0x01fffa    program   0x000001
 .config_1fffd_MainDemo.o    romdata   0x01fffd    program   0x000001
           .udata_MPFS2.o      udata   0x000000       data   0x00005b
         .udata_Battery.o      udata   0x00005b       data   0x000005
                 xPLvars2      udata   0x000060       data   0x000098
        .udata_ETH97J60.o      udata   0x0000f8       data   0x000007
                DELAYDAT1      udata   0x0000ff       data   0x000001
             .udata_xPL.o      udata   0x000100       data   0x0000c1
       SYN_QUEUE_RAM_SECT      udata   0x0001c1       data   0x00003c
             .idata_DNS.o      idata   0x0001fd       data   0x000003
                 xPLvars4      udata   0x000200       data   0x000090
                 TCB_uRAM      udata   0x000290       data   0x000054
                 xPLvars5      udata   0x0002e4       data   0x00001a
                SEED_DATA      idata   0x0002fe       data   0x000002
   HTTP_CONNECTION_STATES      udata   0x000300       data   0x000084
           .idata_HTTP2.o      idata   0x000384       data   0x000078
                MATH_DATA      udata   0x0003fc       data   0x000004
             .udata_UDP.o      udata   0x000400       data   0x000052
             .idata_xPL.o      idata   0x000452       data   0x000052
             .udata_TCP.o      udata   0x0004a4       data   0x00004f
         .idata_Battery.o      idata   0x0004f3       data   0x00000c
            .udata_NBNS.o      udata   0x0004ff       data   0x000001
        .udata_MainDemo.o      udata   0x000500       data   0x00003b
                 xPLvars1      udata   0x00053b       data   0x00002a
    .udata_Authenticate.o      udata   0x000565       data   0x000028
       .udata_SPIEEPROM.o      udata   0x00058d       data   0x000026
     .udata_LCDBlocking.o      udata   0x0005b3       data   0x000021
                 .tmpdata      udata   0x0005d4       data   0x00001f
        .udata_StackTsk.o      udata   0x0005f3       data   0x00000b
             .udata_AES.o      udata   0x0005fe       data   0x000002
.idata_HTTPDynVariables.o      idata   0x000600       data   0x000019
 .udata_SNTP Customised.o      udata   0x000619       data   0x000016
             .udata_DNS.o      udata   0x00062f       data   0x000016
             .udata_ARP.o      udata   0x000645       data   0x000014
              BIGINT_VARS      udata   0x000659       data   0x000013
            .idata_SMTP.o      idata   0x00066c       data   0x000012
            .udata_Tick.o      udata   0x00067e       data   0x000006
.udata_HTTPDynVariables.o      udata   0x000684       data   0x000004
            .idata_Tick.o      idata   0x000688       data   0x000004
 .idata_SNTP Customised.o      idata   0x00068c       data   0x000004
             .idata_UDP.o      idata   0x000690       data   0x000002
             .idata_TCP.o      idata   0x000692       data   0x000002
              .idata_IP.o      idata   0x000694       data   0x000002
            .idata_NBNS.o      idata   0x000696       data   0x000001
             .idata_ARP.o      idata   0x000697       data   0x000001
.idata_SecurityXPLSender.o      idata   0x000698       data   0x000000
       .udata_HTTPForms.o      udata   0x000698       data   0x000000
       .idata_HTTPForms.o      idata   0x000698       data   0x000000
             .udata_SSL.o      udata   0x000698       data   0x000000
             .idata_SSL.o      idata   0x000698       data   0x000000
         .udata_ARCFOUR.o      udata   0x000698       data   0x000000
         .idata_ARCFOUR.o      idata   0x000698       data   0x000000
             .udata_RSA.o      udata   0x000698       data   0x000000
             .idata_RSA.o      idata   0x000698       data   0x000000
          .udata_Random.o      udata   0x000698       data   0x000000
          .idata_Random.o      idata   0x000698       data   0x000000
   .udata_CustomSSLCert.o      udata   0x000698       data   0x000000
          .idata___init.o      idata   0x000698       data   0x000000
   .idata_CustomSSLCert.o      idata   0x000698       data   0x000000
          .udata_BigInt.o      udata   0x000698       data   0x000000
          .idata_BigInt.o      idata   0x000698       data   0x000000
          .udata___init.o      udata   0x000698       data   0x000000
         .idata_c018i_e.o      idata   0x000698       data   0x000000
             .idata_AES.o      idata   0x000698       data   0x000000
             .idata_EOL.o      idata   0x000698       data   0x000000
             .udata_EOL.o      udata   0x000698       data   0x000000
     .idata_LCDBlocking.o      idata   0x000698       data   0x000000
            .idata_ICMP.o      idata   0x000698       data   0x000000
           .idata_MPFS2.o      idata   0x000698       data   0x000000
            .udata_ICMP.o      udata   0x000698       data   0x000000
          .udata_Reboot.o      udata   0x000698       data   0x000000
          .idata_Reboot.o      idata   0x000698       data   0x000000
           .udata_HTTP2.o      udata   0x000698       data   0x000000
       .idata_SPIEEPROM.o      idata   0x000698       data   0x000000
        .idata_StackTsk.o      idata   0x000698       data   0x000000
         .idata_Helpers.o      idata   0x000698       data   0x000000
          .idata_Hashes.o      idata   0x000698       data   0x000000
            .udata_UART.o      udata   0x000698       data   0x000000
            .idata_UART.o      idata   0x000698       data   0x000000
          .udata_Hashes.o      udata   0x000698       data   0x000000
        .idata_ETH97J60.o      idata   0x000698       data   0x000000
          .idata_DynDNS.o      idata   0x000698       data   0x000000
.udata_SecurityXPLSender.o      udata   0x000698       data   0x000000
          .udata_DynDNS.o      udata   0x000698       data   0x000000
  .udata_SecuritySystem.o      udata   0x000698       data   0x000000
    .idata_Authenticate.o      idata   0x000698       data   0x000000
           .idata_Delay.o      idata   0x000698       data   0x000000
            .idata_SNMP.o      idata   0x000698       data   0x000000
            .udata_SNMP.o      udata   0x000698       data   0x000000
           .udata_Delay.o      udata   0x000698       data   0x000000
                   .stack      udata   0x000c00       data   0x000100
                 xPLvars3      udata   0x000d00       data   0x0000e6
         .udata_c018i_e.o      udata   0x000de6       data   0x00000a
         .udata_Helpers.o      udata   0x000df0       data   0x000004
            .udata_SMTP.o      udata   0x000e00       data   0x00007f
              .udata_IP.o      udata   0x000e7f       data   0x000001
              SFR_BANKED0      udata   0x000e80       data   0x000006
              SFR_BANKED1      udata   0x000e8a       data   0x000001
              SFR_BANKED2      udata   0x000e97       data   0x000003
              SFR_BANKED3      udata   0x000ea0       data   0x000001
              SFR_BANKED4      udata   0x000ea2       data   0x000003
              SFR_BANKED5      udata   0x000ea6       data   0x000002
              SFR_BANKED6      udata   0x000eaa       data   0x000002
              SFR_BANKED7      udata   0x000eb2       data   0x000001
              SFR_BANKED8      udata   0x000eb4       data   0x000001
              SFR_BANKED9      udata   0x000eb6       data   0x000004
             SFR_BANKED10      udata   0x000ec0       data   0x000012
             SFR_BANKED11      udata   0x000ed4       data   0x000002
             SFR_BANKED12      udata   0x000ed8       data   0x000002
             SFR_BANKED13      udata   0x000ee2       data   0x000016
             SFR_BANKED14      udata   0x000efb       data   0x000001
             SFR_BANKED15      udata   0x000efd       data   0x000002
  .idata_SecuritySystem.o      idata   0x000f00       data   0x00005b
        .idata_MainDemo.o      idata   0x000f5b       data   0x000005
            SFR_UNBANKED0      udata   0x000f60       data   0x0000a0



                              Program Memory Usage 
                               Start         End      
                           ---------   ---------      
                            0x000000    0x000005      
                            0x000008    0x00000d      
                            0x000018    0x00001d      
                            0x00002a    0x018f9c      
                            0x01fc00    0x01fff8      
                            0x01fffa    0x01fffa      
                            0x01fffd    0x01fffd      
            103296 out of 122816 program addresses used, program memory utilization is 84%



                              Symbols - Sorted by Name
                     Name    Address   Location    Storage File                     
                ---------  ---------  ---------  --------- ---------                
         AESCalcDecodeKey   0x0125e2    program     extern C:\Documents and Settings\Administrator\My Documents\Alarm Controller\PIC Code\AES.c
                AESDecode   0x01260a    program     extern C:\Documents and Settings\Administrator\My Documents\Alarm Controller\PIC Code\AES.c
                  ARPInit   0x017956    program     extern C:\Documents and Settings\Administrator\My Documents\Alarm Controller\Microchip\TCPIP Stack\ARP.c
            ARPIsResolved   0x017b50    program     extern C:\Documents and Settings\Administrator\My Documents\Alarm Controller\Microchip\TCPIP Stack\ARP.c
               ARPProcess   0x01796e    program     extern C:\Documents and Settings\Administrator\My Documents\Alarm Controller\Microchip\TCPIP Stack\ARP.c
                   ARPPut   0x0178a6    program     static C:\Documents and Settings\Administrator\My Documents\Alarm Controller\Microchip\TCPIP Stack\ARP.c
               ARPResolve   0x017a9a    program     extern C:\Documents and Settings\Administrator\My Documents\Alarm Controller\Microchip\TCPIP Stack\ARP.c
                      Arm   0x007180    program     extern C:\Documents and Settings\Administrator\My Documents\Alarm Controller\PIC Code\SecuritySystem.c
                  ArmAway   0x0072a6    program     extern C:\Documents and Settings\Administrator\My Documents\Alarm Controller\PIC Code\SecuritySystem.c
                  ArmHome   0x007242    program     extern C:\Documents and Settings\Administrator\My Documents\Alarm Controller\PIC Code\SecuritySystem.c
              ArmLatchkey   0x0072e4    program     extern C:\Documents and Settings\Administrator\My Documents\Alarm Controller\PIC Code\SecuritySystem.c
          ArmingZoneState   0x007890    program     static C:\Documents and Settings\Administrator\My Documents\Alarm Controller\PIC Code\SecuritySystem.c
             Authenticate   0x0111cc    program     extern C:\Documents and Settings\Administrator\My Documents\Alarm Controller\PIC Code\Authenticate.c
             Base64Decode   0x011ef4    program     extern C:\Documents and Settings\Administrator\My Documents\Alarm Controller\Microchip\TCPIP Stack\Helpers.c
             Base64Encode   0x012016    program     extern C:\Documents and Settings\Administrator\My Documents\Alarm Controller\Microchip\TCPIP Stack\Helpers.c
              BatteryTask   0x01fe12    program     extern C:\Documents and Settings\Administrator\My Documents\Alarm Controller\PIC Code\Battery.c
                BusyUSART   0x018a90    program     extern C:\Documents and Settings\Administrator\My Documents\Alarm Controller\Microchip\TCPIP Stack\UART.c
     CalcIPBufferChecksum   0x013ee4    program     extern C:\Documents and Settings\Administrator\My Documents\Alarm Controller\Microchip\TCPIP Stack\ETH97J60.c
           CalcIPChecksum   0x012316    program     extern C:\Documents and Settings\Administrator\My Documents\Alarm Controller\Microchip\TCPIP Stack\Helpers.c
                 CheckEOL   0x014bba    program     extern C:\Documents and Settings\Administrator\My Documents\Alarm Controller\PIC Code\EOL.c
         ClearArmingFlags   0x00713e    program     extern C:\Documents and Settings\Administrator\My Documents\Alarm Controller\PIC Code\SecuritySystem.c
              CloseSocket   0x001afa    program     static C:\Documents and Settings\Administrator\My Documents\Alarm Controller\Microchip\TCPIP Stack\TCP.c
               CloseUSART   0x018a9c    program     extern C:\Documents and Settings\Administrator\My Documents\Alarm Controller\Microchip\TCPIP Stack\UART.c
                    D10_1   0x018dea    program     static C:\MCC18\src\extended\delays\d10tcyx.asm
                     D10x   0x018de2    program     static C:\MCC18\src\extended\delays\d10tcyx.asm
                   D1616S   0x017ce8    program     static C:\MCC18\src\extended\math\div16s.asm
                D1616SNEG   0x017cf6    program     static C:\MCC18\src\extended\math\div16s.asm
                 D1616SOK   0x017cf2    program     static C:\MCC18\src\extended\math\div16s.asm
                D1616SPOS   0x017d06    program     static C:\MCC18\src\extended\math\div16s.asm
                  D1616SX   0x017d2c    program     static C:\MCC18\src\extended\math\div16s.asm
                    D1K_1   0x018dae    program     static C:\MCC18\src\extended\delays\d1ktcyx.asm
                     D1Kx   0x018dac    program     static C:\MCC18\src\extended\delays\d1ktcyx.asm
                  DA1616S   0x017cd8    program     static C:\MCC18\src\extended\math\div16s.asm
            DNSBeginUsage   0x015338    program     extern C:\Documents and Settings\Administrator\My Documents\Alarm Controller\Microchip\TCPIP Stack\DNS.c
              DNSEndUsage   0x015342    program     extern C:\Documents and Settings\Administrator\My Documents\Alarm Controller\Microchip\TCPIP Stack\DNS.c
             DNSGetString   0x015820    program     static C:\Documents and Settings\Administrator\My Documents\Alarm Controller\Microchip\TCPIP Stack\DNS.c
            DNSIsResolved   0x0153da    program     extern C:\Documents and Settings\Administrator\My Documents\Alarm Controller\Microchip\TCPIP Stack\DNS.c
          DNSPutROMString   0x015748    program     static C:\Documents and Settings\Administrator\My Documents\Alarm Controller\Microchip\TCPIP Stack\DNS.c
             DNSPutString   0x0156b4    program     static C:\Documents and Settings\Administrator\My Documents\Alarm Controller\Microchip\TCPIP Stack\DNS.c
               DNSResolve   0x01535c    program     extern C:\Documents and Settings\Administrator\My Documents\Alarm Controller\Microchip\TCPIP Stack\DNS.c
            DNSResolveROM   0x015398    program     extern C:\Documents and Settings\Administrator\My Documents\Alarm Controller\Microchip\TCPIP Stack\DNS.c
             DataRdyUSART   0x018aa8    program     extern C:\Documents and Settings\Administrator\My Documents\Alarm Controller\Microchip\TCPIP Stack\UART.c
           DecKeySchedule   0x012f2a    program     extern C:\Documents and Settings\Administrator\My Documents\Alarm Controller\PIC Code\AES.c
         DecodeIntFromGET   0x00e65e    program     extern C:\Documents and Settings\Administrator\My Documents\Alarm Controller\PIC Code\HTTPForms.c
           DecodeShiftRow   0x012ebc    program     extern C:\Documents and Settings\Administrator\My Documents\Alarm Controller\PIC Code\AES.c
Default_xPL_My_Instance_ID   0x018df9    program     extern C:\Documents and Settings\Administrator\My Documents\Alarm Controller\PIC Code\xPL.c
              Delay10TCYx   0x018dda    program     extern C:\MCC18\src\extended\delays\d10tcyx.asm
              Delay1KTCYx   0x018da0    program     extern C:\MCC18\src\extended\delays\d1ktcyx.asm
                   Disarm   0x008142    program     extern C:\Documents and Settings\Administrator\My Documents\Alarm Controller\PIC Code\SecuritySystem.c
           DisplayIPValue   0x0175c6    program     extern C:\Documents and Settings\Administrator\My Documents\Alarm Controller\PIC Code\MainDemo.c
                  DoWrite   0x018926    program     static C:\Documents and Settings\Administrator\My Documents\Alarm Controller\Microchip\TCPIP Stack\SPIEEPROM.c
               EnableArea   0x00830e    program     extern C:\Documents and Settings\Administrator\My Documents\Alarm Controller\PIC Code\SecuritySystem.c
               EnableZone   0x0082ac    program     extern C:\Documents and Settings\Administrator\My Documents\Alarm Controller\PIC Code\SecuritySystem.c
           EncKeySchedule   0x01258c    program     extern C:\Documents and Settings\Administrator\My Documents\Alarm Controller\PIC Code\AES.c
                 FetchADC   0x01fd88    program     extern C:\Documents and Settings\Administrator\My Documents\Alarm Controller\PIC Code\Battery.c
         FindEmailAddress   0x00bbee    program     static C:\Documents and Settings\Administrator\My Documents\Alarm Controller\Microchip\TCPIP Stack\SMTP.c
       FindMatchingSocket   0x0017f6    program     static C:\Documents and Settings\Administrator\My Documents\Alarm Controller\Microchip\TCPIP Stack\TCP.c
       FindMatchingSocket   0x01493e    program     static C:\Documents and Settings\Administrator\My Documents\Alarm Controller\Microchip\TCPIP Stack\UDP.c
      FindROMEmailAddress   0x00bc74    program     static C:\Documents and Settings\Administrator\My Documents\Alarm Controller\Microchip\TCPIP Stack\SMTP.c
        FormatNetBIOSName   0x01244e    program     extern C:\Documents and Settings\Administrator\My Documents\Alarm Controller\Microchip\TCPIP Stack\Helpers.c
      GenerateRandomDWORD   0x011a7e    program     extern C:\Documents and Settings\Administrator\My Documents\Alarm Controller\Microchip\TCPIP Stack\Helpers.c
              GetTickCopy   0x018b96    program     static C:\Documents and Settings\Administrator\My Documents\Alarm Controller\Microchip\TCPIP Stack\Tick.c
            HTTPCheckAuth   0x011610    program     extern C:\Documents and Settings\Administrator\My Documents\Alarm Controller\PIC Code\Authenticate.c
           HTTPExecuteGet   0x00dde2    program     extern C:\Documents and Settings\Administrator\My Documents\Alarm Controller\PIC Code\HTTPForms.c
          HTTPExecutePost   0x00e712    program     extern C:\Documents and Settings\Administrator\My Documents\Alarm Controller\PIC Code\HTTPForms.c
               HTTPGetArg   0x00a5f8    program     extern C:\Documents and Settings\Administrator\My Documents\Alarm Controller\Microchip\TCPIP Stack\HTTP2.c
            HTTPGetROMArg   0x00a63a    program     extern C:\Documents and Settings\Administrator\My Documents\Alarm Controller\Microchip\TCPIP Stack\HTTP2.c
HTTPHeaderParseAuthorization   0x00a410    program     static C:\Documents and Settings\Administrator\My Documents\Alarm Controller\Microchip\TCPIP Stack\HTTP2.c
HTTPHeaderParseContentLength   0x00a4e8    program     static C:\Documents and Settings\Administrator\My Documents\Alarm Controller\Microchip\TCPIP Stack\HTTP2.c
    HTTPHeaderParseLookup   0x00a3f8    program     static C:\Documents and Settings\Administrator\My Documents\Alarm Controller\Microchip\TCPIP Stack\HTTP2.c
              HTTPIncFile   0x00a994    program     extern C:\Documents and Settings\Administrator\My Documents\Alarm Controller\Microchip\TCPIP Stack\HTTP2.c
                 HTTPInit   0x00994a    program     extern C:\Documents and Settings\Administrator\My Documents\Alarm Controller\Microchip\TCPIP Stack\HTTP2.c
             HTTPLoadConn   0x009a40    program     static C:\Documents and Settings\Administrator\My Documents\Alarm Controller\Microchip\TCPIP Stack\HTTP2.c
           HTTPMPFSUpload   0x00a7ec    program     static C:\Documents and Settings\Administrator\My Documents\Alarm Controller\Microchip\TCPIP Stack\HTTP2.c
            HTTPNeedsAuth   0x0115ba    program     extern C:\Documents and Settings\Administrator\My Documents\Alarm Controller\PIC Code\Authenticate.c
           HTTPPostConfig   0x00e77a    program     static C:\Documents and Settings\Administrator\My Documents\Alarm Controller\PIC Code\HTTPForms.c
       HTTPPostSMTPConfig   0x00c27e    program     extern C:\Documents and Settings\Administrator\My Documents\Alarm Controller\PIC Code\SMTP.c
                HTTPPrint   0x008a12    program     extern C:\Documents and Settings\Administrator\My Documents\Alarm Controller\PIC Code\HTTPPrint.h
              HTTPPrintIP   0x0130be    program     static C:\Documents and Settings\Administrator\My Documents\Alarm Controller\PIC Code\HTTPDynVariables.c
               HTTPPrint_   0x00993a    program     extern C:\Documents and Settings\Administrator\My Documents\Alarm Controller\PIC Code\HTTPPrint.h
     HTTPPrint_AES_Active   0x0159a6    program     extern C:\Documents and Settings\Administrator\My Documents\Alarm Controller\PIC Code\SNTP Customised.c
     HTTPPrint_AlarmState   0x0131c2    program     extern C:\Documents and Settings\Administrator\My Documents\Alarm Controller\PIC Code\HTTPDynVariables.c
  HTTPPrint_AlarmTypeList   0x013266    program     extern C:\Documents and Settings\Administrator\My Documents\Alarm Controller\PIC Code\HTTPDynVariables.c
HTTPPrint_Alarming24Duration   0x0132f4    program     extern C:\Documents and Settings\Administrator\My Documents\Alarm Controller\PIC Code\HTTPDynVariables.c
HTTPPrint_AlarmingDuration   0x0132e6    program     extern C:\Documents and Settings\Administrator\My Documents\Alarm Controller\PIC Code\HTTPDynVariables.c
      HTTPPrint_AreaCount   0x013550    program     extern C:\Documents and Settings\Administrator\My Documents\Alarm Controller\PIC Code\HTTPDynVariables.c
       HTTPPrint_AreaDesc   0x01366a    program     extern C:\Documents and Settings\Administrator\My Documents\Alarm Controller\PIC Code\HTTPDynVariables.c
   HTTPPrint_AreaTampered   0x013698    program     extern C:\Documents and Settings\Administrator\My Documents\Alarm Controller\PIC Code\HTTPDynVariables.c
 HTTPPrint_AreasAlarmType   0x013634    program     extern C:\Documents and Settings\Administrator\My Documents\Alarm Controller\PIC Code\HTTPDynVariables.c
   HTTPPrint_AreasAlarmed   0x013608    program     extern C:\Documents and Settings\Administrator\My Documents\Alarm Controller\PIC Code\HTTPDynVariables.c
     HTTPPrint_AreasArmed   0x0135dc    program     extern C:\Documents and Settings\Administrator\My Documents\Alarm Controller\PIC Code\HTTPDynVariables.c
  HTTPPrint_AreasBypassed   0x013558    program     extern C:\Documents and Settings\Administrator\My Documents\Alarm Controller\PIC Code\HTTPDynVariables.c
  HTTPPrint_AreasIsolated   0x013584    program     extern C:\Documents and Settings\Administrator\My Documents\Alarm Controller\PIC Code\HTTPDynVariables.c
 HTTPPrint_AreasTriggered   0x0135b0    program     extern C:\Documents and Settings\Administrator\My Documents\Alarm Controller\PIC Code\HTTPDynVariables.c
  HTTPPrint_BatteryStatus   0x01fcda    program     extern C:\Documents and Settings\Administrator\My Documents\Alarm Controller\PIC Code\Battery.c
    HTTPPrint_CurrentEPOC   0x0159d0    program     extern C:\Documents and Settings\Administrator\My Documents\Alarm Controller\PIC Code\SNTP Customised.c
       HTTPPrint_EOLValue   0x015094    program     extern C:\Documents and Settings\Administrator\My Documents\Alarm Controller\PIC Code\EOL.c
     HTTPPrint_EntryDelay   0x0132d8    program     extern C:\Documents and Settings\Administrator\My Documents\Alarm Controller\PIC Code\HTTPDynVariables.c
      HTTPPrint_ExitDelay   0x0132ca    program     extern C:\Documents and Settings\Administrator\My Documents\Alarm Controller\PIC Code\HTTPDynVariables.c
  HTTPPrint_HeartBeatTime   0x0132bc    program     extern C:\Documents and Settings\Administrator\My Documents\Alarm Controller\PIC Code\HTTPDynVariables.c
   HTTPPrint_InstanceName   0x0132ac    program     extern C:\Documents and Settings\Administrator\My Documents\Alarm Controller\PIC Code\HTTPDynVariables.c
  HTTPPrint_NTPLastUpdate   0x0159c0    program     extern C:\Documents and Settings\Administrator\My Documents\Alarm Controller\PIC Code\SNTP Customised.c
      HTTPPrint_NTPServer   0x015996    program     extern C:\Documents and Settings\Administrator\My Documents\Alarm Controller\PIC Code\SNTP Customised.c
    HTTPPrint_PrintEEProm   0x0116d0    program     extern C:\Documents and Settings\Administrator\My Documents\Alarm Controller\PIC Code\Authenticate.c
 HTTPPrint_RejectPassword   0x011286    program     extern C:\Documents and Settings\Administrator\My Documents\Alarm Controller\PIC Code\Authenticate.c
 HTTPPrint_SMTPTestOutput   0x00c1e4    program     extern C:\Documents and Settings\Administrator\My Documents\Alarm Controller\PIC Code\SMTP.c
    HTTPPrint_SMTP_Active   0x00c1ae    program     extern C:\Documents and Settings\Administrator\My Documents\Alarm Controller\PIC Code\SMTP.c
 HTTPPrint_SMTP_ArmDisarm   0x00c1d2    program     extern C:\Documents and Settings\Administrator\My Documents\Alarm Controller\PIC Code\SMTP.c
HTTPPrint_SMTP_OnlyInitalAlarm   0x00c1c0    program     extern C:\Documents and Settings\Administrator\My Documents\Alarm Controller\PIC Code\SMTP.c
  HTTPPrint_SMTP_Password   0x00c15c    program     extern C:\Documents and Settings\Administrator\My Documents\Alarm Controller\PIC Code\SMTP.c
      HTTPPrint_SMTP_Port   0x00c17e    program     extern C:\Documents and Settings\Administrator\My Documents\Alarm Controller\PIC Code\SMTP.c
    HTTPPrint_SMTP_Server   0x00c116    program     extern C:\Documents and Settings\Administrator\My Documents\Alarm Controller\PIC Code\SMTP.c
        HTTPPrint_SMTP_To   0x00c0f2    program     extern C:\Documents and Settings\Administrator\My Documents\Alarm Controller\PIC Code\SMTP.c
      HTTPPrint_SMTP_User   0x00c13a    program     extern C:\Documents and Settings\Administrator\My Documents\Alarm Controller\PIC Code\SMTP.c
 HTTPPrint_SNTPTestOutput   0x015a16    program     extern C:\Documents and Settings\Administrator\My Documents\Alarm Controller\PIC Code\SNTP Customised.c
     HTTPPrint_SirenDelay   0x013310    program     extern C:\Documents and Settings\Administrator\My Documents\Alarm Controller\PIC Code\HTTPDynVariables.c
  HTTPPrint_SirenDelay24h   0x013302    program     extern C:\Documents and Settings\Administrator\My Documents\Alarm Controller\PIC Code\HTTPDynVariables.c
       HTTPPrint_TypeList   0x01320c    program     extern C:\Documents and Settings\Administrator\My Documents\Alarm Controller\PIC Code\HTTPDynVariables.c
       HTTPPrint_UserName   0x0112a2    program     extern C:\Documents and Settings\Administrator\My Documents\Alarm Controller\PIC Code\Authenticate.c
   HTTPPrint_UserPassword   0x0112be    program     extern C:\Documents and Settings\Administrator\My Documents\Alarm Controller\PIC Code\Authenticate.c
 HTTPPrint_VoltageBattery   0x01fcce    program     extern C:\Documents and Settings\Administrator\My Documents\Alarm Controller\PIC Code\Battery.c
  HTTPPrint_VoltageSupply   0x01fcc2    program     extern C:\Documents and Settings\Administrator\My Documents\Alarm Controller\PIC Code\Battery.c
      HTTPPrint_ZoneCount   0x01331e    program     extern C:\Documents and Settings\Administrator\My Documents\Alarm Controller\PIC Code\HTTPDynVariables.c
       HTTPPrint_ZoneDesc   0x0134ec    program     extern C:\Documents and Settings\Administrator\My Documents\Alarm Controller\PIC Code\HTTPDynVariables.c
 HTTPPrint_ZonesAlarmType   0x013488    program     extern C:\Documents and Settings\Administrator\My Documents\Alarm Controller\PIC Code\HTTPDynVariables.c
   HTTPPrint_ZonesAlarmed   0x0133d6    program     extern C:\Documents and Settings\Administrator\My Documents\Alarm Controller\PIC Code\HTTPDynVariables.c
  HTTPPrint_ZonesAreaList   0x0134bc    program     extern C:\Documents and Settings\Administrator\My Documents\Alarm Controller\PIC Code\HTTPDynVariables.c
     HTTPPrint_ZonesArmed   0x0133aa    program     extern C:\Documents and Settings\Administrator\My Documents\Alarm Controller\PIC Code\HTTPDynVariables.c
  HTTPPrint_ZonesBypassed   0x013326    program     extern C:\Documents and Settings\Administrator\My Documents\Alarm Controller\PIC Code\HTTPDynVariables.c
     HTTPPrint_ZonesEntry   0x013402    program     extern C:\Documents and Settings\Administrator\My Documents\Alarm Controller\PIC Code\HTTPDynVariables.c
  HTTPPrint_ZonesIsolated   0x013352    program     extern C:\Documents and Settings\Administrator\My Documents\Alarm Controller\PIC Code\HTTPDynVariables.c
        HTTPPrint_ZonesNO   0x01342e    program     extern C:\Documents and Settings\Administrator\My Documents\Alarm Controller\PIC Code\HTTPDynVariables.c
  HTTPPrint_ZonesTampered   0x013520    program     extern C:\Documents and Settings\Administrator\My Documents\Alarm Controller\PIC Code\HTTPDynVariables.c
 HTTPPrint_ZonesTriggered   0x01337e    program     extern C:\Documents and Settings\Administrator\My Documents\Alarm Controller\PIC Code\HTTPDynVariables.c
      HTTPPrint_ZonesType   0x01345a    program     extern C:\Documents and Settings\Administrator\My Documents\Alarm Controller\PIC Code\HTTPDynVariables.c
    HTTPPrint_config_dns1   0x013148    program     extern C:\Documents and Settings\Administrator\My Documents\Alarm Controller\PIC Code\HTTPDynVariables.c
    HTTPPrint_config_dns2   0x01315a    program     extern C:\Documents and Settings\Administrator\My Documents\Alarm Controller\PIC Code\HTTPDynVariables.c
      HTTPPrint_config_gw   0x013124    program     extern C:\Documents and Settings\Administrator\My Documents\Alarm Controller\PIC Code\HTTPDynVariables.c
HTTPPrint_config_hostname   0x0130a8    program     extern C:\Documents and Settings\Administrator\My Documents\Alarm Controller\PIC Code\HTTPDynVariables.c
      HTTPPrint_config_ip   0x013112    program     extern C:\Documents and Settings\Administrator\My Documents\Alarm Controller\PIC Code\HTTPDynVariables.c
     HTTPPrint_config_mac   0x01316c    program     extern C:\Documents and Settings\Administrator\My Documents\Alarm Controller\PIC Code\HTTPDynVariables.c
  HTTPPrint_config_subnet   0x013136    program     extern C:\Documents and Settings\Administrator\My Documents\Alarm Controller\PIC Code\HTTPDynVariables.c
         HTTPPrint_reboot   0x0130ba    program     extern C:\Documents and Settings\Administrator\My Documents\Alarm Controller\PIC Code\HTTPDynVariables.c
     HTTPPrint_rebootaddr   0x013096    program     extern C:\Documents and Settings\Administrator\My Documents\Alarm Controller\PIC Code\HTTPDynVariables.c
              HTTPProcess   0x009a98    program     static C:\Documents and Settings\Administrator\My Documents\Alarm Controller\Microchip\TCPIP Stack\HTTP2.c
         HTTPReadPostName   0x00a696    program     extern C:\Documents and Settings\Administrator\My Documents\Alarm Controller\Microchip\TCPIP Stack\HTTP2.c
        HTTPReadPostValue   0x00a6ae    program     extern C:\Documents and Settings\Administrator\My Documents\Alarm Controller\Microchip\TCPIP Stack\HTTP2.c
               HTTPReadTo   0x00a6f6    program     static C:\Documents and Settings\Administrator\My Documents\Alarm Controller\Microchip\TCPIP Stack\HTTP2.c
             HTTPSendFile   0x00a26a    program     static C:\Documents and Settings\Administrator\My Documents\Alarm Controller\Microchip\TCPIP Stack\HTTP2.c
               HTTPServer   0x0099be    program     extern C:\Documents and Settings\Administrator\My Documents\Alarm Controller\Microchip\TCPIP Stack\HTTP2.c
            HTTPURLDecode   0x00a53a    program     extern C:\Documents and Settings\Administrator\My Documents\Alarm Controller\Microchip\TCPIP Stack\HTTP2.c
                HTTP_CRLF   0x018e22    program     static C:\Documents and Settings\Administrator\My Documents\Alarm Controller\Microchip\TCPIP Stack\HTTP2.c
             HandleTCPSeg   0x001b78    program     static C:\Documents and Settings\Administrator\My Documents\Alarm Controller\Microchip\TCPIP Stack\TCP.c
                  HighISR   0x0174fc    program     extern C:\Documents and Settings\Administrator\My Documents\Alarm Controller\PIC Code\MainDemo.c
               HighVector   0x000008    program     extern C:\Documents and Settings\Administrator\My Documents\Alarm Controller\PIC Code\MainDemo.c
                  IOTasks   0x006cde    program     static C:\Documents and Settings\Administrator\My Documents\Alarm Controller\PIC Code\SecuritySystem.c
              IPGetHeader   0x0185ca    program     extern C:\Documents and Settings\Administrator\My Documents\Alarm Controller\Microchip\TCPIP Stack\IP.c
              IPPutHeader   0x0186ac    program     extern C:\Documents and Settings\Administrator\My Documents\Alarm Controller\Microchip\TCPIP Stack\IP.c
            IPSetRxBuffer   0x01876c    program     extern C:\Documents and Settings\Administrator\My Documents\Alarm Controller\Microchip\TCPIP Stack\IP.c
            InitAppConfig   0x0176c8    program     static C:\Documents and Settings\Administrator\My Documents\Alarm Controller\PIC Code\MainDemo.c
          InitializeBoard   0x01769c    program     static C:\Documents and Settings\Administrator\My Documents\Alarm Controller\PIC Code\MainDemo.c
          IsZoneTriggered   0x014df8    program     extern C:\Documents and Settings\Administrator\My Documents\Alarm Controller\PIC Code\EOL.c
              IsolateArea   0x0081d0    program     extern C:\Documents and Settings\Administrator\My Documents\Alarm Controller\PIC Code\SecuritySystem.c
              IsolateZone   0x0081a0    program     extern C:\Documents and Settings\Administrator\My Documents\Alarm Controller\PIC Code\SecuritySystem.c
                 LCDErase   0x01852c    program     extern C:\Documents and Settings\Administrator\My Documents\Alarm Controller\Microchip\TCPIP Stack\LCDBlocking.c
                  LCDInit   0x0183a0    program     extern C:\Documents and Settings\Administrator\My Documents\Alarm Controller\Microchip\TCPIP Stack\LCDBlocking.c
                LCDUpdate   0x0184a0    program     extern C:\Documents and Settings\Administrator\My Documents\Alarm Controller\Microchip\TCPIP Stack\LCDBlocking.c
                 LCDWrite   0x01835e    program     static C:\Documents and Settings\Administrator\My Documents\Alarm Controller\Microchip\TCPIP Stack\LCDBlocking.c
        LoadDefaultConfig   0x006578    program     static C:\Documents and Settings\Administrator\My Documents\Alarm Controller\PIC Code\SecuritySystem.c
       LoadUserNameEEdata   0x011362    program     static C:\Documents and Settings\Administrator\My Documents\Alarm Controller\PIC Code\Authenticate.c
   LoadUserPasswordEEdata   0x0112dc    program     static C:\Documents and Settings\Administrator\My Documents\Alarm Controller\PIC Code\Authenticate.c
                   LowISR   0x01744c    program     extern C:\Documents and Settings\Administrator\My Documents\Alarm Controller\PIC Code\MainDemo.c
                LowVector   0x000018    program     extern C:\Documents and Settings\Administrator\My Documents\Alarm Controller\PIC Code\MainDemo.c
        MACCalcRxChecksum   0x013e88    program     extern C:\Documents and Settings\Administrator\My Documents\Alarm Controller\Microchip\TCPIP Stack\ETH97J60.c
             MACDiscardRx   0x013b8a    program     extern C:\Documents and Settings\Administrator\My Documents\Alarm Controller\Microchip\TCPIP Stack\ETH97J60.c
                 MACFlush   0x013e04    program     extern C:\Documents and Settings\Administrator\My Documents\Alarm Controller\Microchip\TCPIP Stack\ETH97J60.c
                   MACGet   0x01413e    program     extern C:\Documents and Settings\Administrator\My Documents\Alarm Controller\Microchip\TCPIP Stack\ETH97J60.c
              MACGetArray   0x014142    program     extern C:\Documents and Settings\Administrator\My Documents\Alarm Controller\Microchip\TCPIP Stack\ETH97J60.c
         MACGetFreeRxSize   0x013bca    program     extern C:\Documents and Settings\Administrator\My Documents\Alarm Controller\Microchip\TCPIP Stack\ETH97J60.c
             MACGetHeader   0x013c64    program     extern C:\Documents and Settings\Administrator\My Documents\Alarm Controller\Microchip\TCPIP Stack\ETH97J60.c
                  MACInit   0x013a3a    program     extern C:\Documents and Settings\Administrator\My Documents\Alarm Controller\Microchip\TCPIP Stack\ETH97J60.c
              MACIsLinked   0x013b30    program     extern C:\Documents and Settings\Administrator\My Documents\Alarm Controller\Microchip\TCPIP Stack\ETH97J60.c
         MACIsMemCopyDone   0x014132    program     extern C:\Documents and Settings\Administrator\My Documents\Alarm Controller\Microchip\TCPIP Stack\ETH97J60.c
             MACIsTxReady   0x013b42    program     extern C:\Documents and Settings\Administrator\My Documents\Alarm Controller\Microchip\TCPIP Stack\ETH97J60.c
          MACMemCopyAsync   0x014012    program     extern C:\Documents and Settings\Administrator\My Documents\Alarm Controller\Microchip\TCPIP Stack\ETH97J60.c
             MACPowerDown   0x0142ba    program     extern C:\Documents and Settings\Administrator\My Documents\Alarm Controller\Microchip\TCPIP Stack\ETH97J60.c
               MACPowerUp   0x0142cc    program     extern C:\Documents and Settings\Administrator\My Documents\Alarm Controller\Microchip\TCPIP Stack\ETH97J60.c
                   MACPut   0x014188    program     extern C:\Documents and Settings\Administrator\My Documents\Alarm Controller\Microchip\TCPIP Stack\ETH97J60.c
              MACPutArray   0x0141a2    program     extern C:\Documents and Settings\Administrator\My Documents\Alarm Controller\Microchip\TCPIP Stack\ETH97J60.c
             MACPutHeader   0x013daa    program     extern C:\Documents and Settings\Administrator\My Documents\Alarm Controller\Microchip\TCPIP Stack\ETH97J60.c
           MACPutROMArray   0x0141e2    program     extern C:\Documents and Settings\Administrator\My Documents\Alarm Controller\Microchip\TCPIP Stack\ETH97J60.c
            MACSetReadPtr   0x013e74    program     extern C:\Documents and Settings\Administrator\My Documents\Alarm Controller\Microchip\TCPIP Stack\ETH97J60.c
        MACSetReadPtrInRx   0x013e32    program     extern C:\Documents and Settings\Administrator\My Documents\Alarm Controller\Microchip\TCPIP Stack\ETH97J60.c
           MACSetWritePtr   0x013e5e    program     extern C:\Documents and Settings\Administrator\My Documents\Alarm Controller\Microchip\TCPIP Stack\ETH97J60.c
                MPFSClose   0x0103f6    program     extern C:\Documents and Settings\Administrator\My Documents\Alarm Controller\Microchip\TCPIP Stack\MPFS2.c
               MPFSFormat   0x0106a8    program     extern C:\Documents and Settings\Administrator\My Documents\Alarm Controller\Microchip\TCPIP Stack\MPFS2.c
                  MPFSGet   0x010410    program     extern C:\Documents and Settings\Administrator\My Documents\Alarm Controller\Microchip\TCPIP Stack\MPFS2.c
             MPFSGetArray   0x0104d0    program     extern C:\Documents and Settings\Administrator\My Documents\Alarm Controller\Microchip\TCPIP Stack\MPFS2.c
          MPFSGetBytesRem   0x010946    program     extern C:\Documents and Settings\Administrator\My Documents\Alarm Controller\Microchip\TCPIP Stack\MPFS2.c
           MPFSGetEndAddr   0x0109b8    program     extern C:\Documents and Settings\Administrator\My Documents\Alarm Controller\Microchip\TCPIP Stack\MPFS2.c
          MPFSGetFilename   0x010a18    program     extern C:\Documents and Settings\Administrator\My Documents\Alarm Controller\Microchip\TCPIP Stack\MPFS2.c
             MPFSGetFlags   0x0108e6    program     extern C:\Documents and Settings\Administrator\My Documents\Alarm Controller\Microchip\TCPIP Stack\MPFS2.c
                MPFSGetID   0x010ab0    program     extern C:\Documents and Settings\Administrator\My Documents\Alarm Controller\Microchip\TCPIP Stack\MPFS2.c
              MPFSGetLong   0x010558    program     extern C:\Documents and Settings\Administrator\My Documents\Alarm Controller\Microchip\TCPIP Stack\MPFS2.c
         MPFSGetMicrotime   0x0108b4    program     extern C:\Documents and Settings\Administrator\My Documents\Alarm Controller\Microchip\TCPIP Stack\MPFS2.c
          MPFSGetPosition   0x010a80    program     extern C:\Documents and Settings\Administrator\My Documents\Alarm Controller\Microchip\TCPIP Stack\MPFS2.c
              MPFSGetSize   0x010914    program     extern C:\Documents and Settings\Administrator\My Documents\Alarm Controller\Microchip\TCPIP Stack\MPFS2.c
         MPFSGetStartAddr   0x01097a    program     extern C:\Documents and Settings\Administrator\My Documents\Alarm Controller\Microchip\TCPIP Stack\MPFS2.c
         MPFSGetTimestamp   0x010882    program     extern C:\Documents and Settings\Administrator\My Documents\Alarm Controller\Microchip\TCPIP Stack\MPFS2.c
                 MPFSInit   0x010084    program     extern C:\Documents and Settings\Administrator\My Documents\Alarm Controller\Microchip\TCPIP Stack\MPFS2.c
                 MPFSOpen   0x0100ba    program     extern C:\Documents and Settings\Administrator\My Documents\Alarm Controller\Microchip\TCPIP Stack\MPFS2.c
               MPFSOpenID   0x01037a    program     extern C:\Documents and Settings\Administrator\My Documents\Alarm Controller\Microchip\TCPIP Stack\MPFS2.c
              MPFSOpenROM   0x010218    program     extern C:\Documents and Settings\Administrator\My Documents\Alarm Controller\Microchip\TCPIP Stack\MPFS2.c
             MPFSPutArray   0x01076a    program     extern C:\Documents and Settings\Administrator\My Documents\Alarm Controller\Microchip\TCPIP Stack\MPFS2.c
               MPFSPutEnd   0x0107ea    program     extern C:\Documents and Settings\Administrator\My Documents\Alarm Controller\Microchip\TCPIP Stack\MPFS2.c
                 MPFSSeek   0x010580    program     extern C:\Documents and Settings\Administrator\My Documents\Alarm Controller\Microchip\TCPIP Stack\MPFS2.c
               ModifyUser   0x011484    program     extern C:\Documents and Settings\Administrator\My Documents\Alarm Controller\PIC Code\Authenticate.c
              NBNSGetName   0x0182a0    program     static C:\Documents and Settings\Administrator\My Documents\Alarm Controller\Microchip\TCPIP Stack\NBNS.c
              NBNSPutName   0x018262    program     static C:\Documents and Settings\Administrator\My Documents\Alarm Controller\Microchip\TCPIP Stack\NBNS.c
                 NBNSTask   0x01801c    program     extern C:\Documents and Settings\Administrator\My Documents\Alarm Controller\Microchip\TCPIP Stack\NBNS.c
                  OneByte   0x0168ca    program     static C:\MCC18\src\extended\stdclib\itobcd.asm
                  OneByte   0x016a82    program     static C:\MCC18\src\extended\stdclib\ltobcd.asm
                    Panic   0x00732c    program     extern C:\Documents and Settings\Administrator\My Documents\Alarm Controller\PIC Code\SecuritySystem.c
                ProcLower   0x016a1a    program     static C:\MCC18\src\extended\stdclib\ultoa.asm
                ProcLower   0x01687e    program     static C:\MCC18\src\extended\stdclib\itoa.asm
                ProcUpper   0x016a10    program     static C:\MCC18\src\extended\stdclib\ultoa.asm
                ProcUpper   0x016874    program     static C:\MCC18\src\extended\stdclib\itoa.asm
                  RESTORE   0x017d1e    program     static C:\MCC18\src\extended\math\div16s.asm
                  RESTORE   0x017da0    program     static C:\MCC18\src\extended\math\div16u.asm
                  RESTORE   0x017e44    program     static C:\MCC18\src\extended\math\div32u.asm
              RETQUOTIENT   0x017d16    program     static C:\MCC18\src\extended\math\div16s.asm
              RETQUOTIENT   0x017d98    program     static C:\MCC18\src\extended\math\div16u.asm
              RETQUOTIENT   0x017e34    program     static C:\MCC18\src\extended\math\div32u.asm
     ROMStringToIPAddress   0x011e06    program     extern C:\Documents and Settings\Administrator\My Documents\Alarm Controller\Microchip\TCPIP Stack\Helpers.c
               ReadPHYReg   0x014236    program     extern C:\Documents and Settings\Administrator\My Documents\Alarm Controller\Microchip\TCPIP Stack\ETH97J60.c
           ReadStringUART   0x018a4c    program     extern C:\Documents and Settings\Administrator\My Documents\Alarm Controller\Microchip\TCPIP Stack\UART.c
                ReadUSART   0x018aba    program     extern C:\Documents and Settings\Administrator\My Documents\Alarm Controller\Microchip\TCPIP Stack\UART.c
                  SETSIGN   0x017cc6    program     static C:\MCC18\src\extended\math\div16s.asm
                 SETUPSTK   0x017dae    program     static C:\MCC18\src\extended\math\div32u.asm
                 SETUPSTK   0x017ca6    program     static C:\MCC18\src\extended\math\div16s.asm
                 SETUPSTK   0x017d36    program     static C:\MCC18\src\extended\math\div16u.asm
           SMTPBeginUsage   0x00afea    program     extern C:\Documents and Settings\Administrator\My Documents\Alarm Controller\Microchip\TCPIP Stack\SMTP.c
             SMTPEndUsage   0x00b01e    program     extern C:\Documents and Settings\Administrator\My Documents\Alarm Controller\Microchip\TCPIP Stack\SMTP.c
                SMTPFlush   0x00bbe4    program     extern C:\Documents and Settings\Administrator\My Documents\Alarm Controller\Microchip\TCPIP Stack\SMTP.c
               SMTPIsBusy   0x00ba80    program     extern C:\Documents and Settings\Administrator\My Documents\Alarm Controller\Microchip\TCPIP Stack\SMTP.c
           SMTPIsPutReady   0x00ba8a    program     extern C:\Documents and Settings\Administrator\My Documents\Alarm Controller\Microchip\TCPIP Stack\SMTP.c
                  SMTPPut   0x00baa6    program     extern C:\Documents and Settings\Administrator\My Documents\Alarm Controller\Microchip\TCPIP Stack\SMTP.c
             SMTPPutArray   0x00bb0e    program     extern C:\Documents and Settings\Administrator\My Documents\Alarm Controller\Microchip\TCPIP Stack\SMTP.c
              SMTPPutDone   0x00bbe8    program     extern C:\Documents and Settings\Administrator\My Documents\Alarm Controller\Microchip\TCPIP Stack\SMTP.c
          SMTPPutROMArray   0x00bb3e    program     extern C:\Documents and Settings\Administrator\My Documents\Alarm Controller\Microchip\TCPIP Stack\SMTP.c
         SMTPPutROMString   0x00bba8    program     extern C:\Documents and Settings\Administrator\My Documents\Alarm Controller\Microchip\TCPIP Stack\SMTP.c
            SMTPPutString   0x00bb70    program     extern C:\Documents and Settings\Administrator\My Documents\Alarm Controller\Microchip\TCPIP Stack\SMTP.c
           SMTPQueueEmail   0x00c818    program     extern C:\Documents and Settings\Administrator\My Documents\Alarm Controller\PIC Code\SMTP.c
             SMTPSendMail   0x00ba7a    program     extern C:\Documents and Settings\Administrator\My Documents\Alarm Controller\Microchip\TCPIP Stack\SMTP.c
                 SMTPTask   0x00b05a    program     extern C:\Documents and Settings\Administrator\My Documents\Alarm Controller\Microchip\TCPIP Stack\SMTP.c
          SMTPTaskProcess   0x00c4d0    program     extern C:\Documents and Settings\Administrator\My Documents\Alarm Controller\PIC Code\SMTP.c
               SNTPClient   0x015ab8    program     extern C:\Documents and Settings\Administrator\My Documents\Alarm Controller\PIC Code\SNTP Customised.c
        SNTPGetUTCSeconds   0x015d98    program     extern C:\Documents and Settings\Administrator\My Documents\Alarm Controller\PIC Code\SNTP Customised.c
                   STable   0x016a94    program     extern C:\Documents and Settings\Administrator\My Documents\Alarm Controller\PIC Code\AES.c
            SaveAppConfig   0x0177d2    program     extern C:\Documents and Settings\Administrator\My Documents\Alarm Controller\PIC Code\MainDemo.c
    SaveDeviceDescription   0x00e5ae    program     static C:\Documents and Settings\Administrator\My Documents\Alarm Controller\PIC Code\HTTPForms.c
                  SaveKVP   0x00fc1a    program     extern C:\Documents and Settings\Administrator\My Documents\Alarm Controller\PIC Code\xPL.c
       SaveUserNameEEdata   0x011434    program     static C:\Documents and Settings\Administrator\My Documents\Alarm Controller\PIC Code\Authenticate.c
   SaveUserPasswordEEdata   0x0113ce    program     static C:\Documents and Settings\Administrator\My Documents\Alarm Controller\PIC Code\Authenticate.c
               SchemaInit   0x0062ae    program     extern C:\Documents and Settings\Administrator\My Documents\Alarm Controller\PIC Code\SecuritySystem.c
      SchemaProcessUDPMsg   0x0078da    program     extern C:\Documents and Settings\Administrator\My Documents\Alarm Controller\PIC Code\SecuritySystem.c
              SchemaTasks   0x0068ce    program     extern C:\Documents and Settings\Administrator\My Documents\Alarm Controller\PIC Code\SecuritySystem.c
               SendACStat   0x00d556    program     extern C:\Documents and Settings\Administrator\My Documents\Alarm Controller\PIC Code\SecurityXPLSender.c
          SendAlarmingMsg   0x00cd1c    program     extern C:\Documents and Settings\Administrator\My Documents\Alarm Controller\PIC Code\SecurityXPLSender.c
             SendAreaInfo   0x00d2be    program     extern C:\Documents and Settings\Administrator\My Documents\Alarm Controller\PIC Code\SecurityXPLSender.c
             SendAreaList   0x00d164    program     extern C:\Documents and Settings\Administrator\My Documents\Alarm Controller\PIC Code\SecurityXPLSender.c
             SendAreaStat   0x00d6e0    program     extern C:\Documents and Settings\Administrator\My Documents\Alarm Controller\PIC Code\SecurityXPLSender.c
         SendAreaStateMsg   0x00cbd6    program     extern C:\Documents and Settings\Administrator\My Documents\Alarm Controller\PIC Code\SecurityXPLSender.c
                SendArmed   0x00cf6e    program     extern C:\Documents and Settings\Administrator\My Documents\Alarm Controller\PIC Code\SecurityXPLSender.c
          SendBatteryStat   0x00d50e    program     extern C:\Documents and Settings\Administrator\My Documents\Alarm Controller\PIC Code\SecurityXPLSender.c
        SendConfigCurrent   0x00d3b4    program     extern C:\Documents and Settings\Administrator\My Documents\Alarm Controller\PIC Code\SecurityXPLSender.c
           SendConfigList   0x00d35a    program     extern C:\Documents and Settings\Administrator\My Documents\Alarm Controller\PIC Code\SecurityXPLSender.c
               SendDisarm   0x00d0bc    program     extern C:\Documents and Settings\Administrator\My Documents\Alarm Controller\PIC Code\SecurityXPLSender.c
                SendError   0x00d068    program     extern C:\Documents and Settings\Administrator\My Documents\Alarm Controller\PIC Code\SecurityXPLSender.c
             SendGateStat   0x00d598    program     extern C:\Documents and Settings\Administrator\My Documents\Alarm Controller\PIC Code\SecurityXPLSender.c
       SendGatewayChanged   0x00d4de    program     extern C:\Documents and Settings\Administrator\My Documents\Alarm Controller\PIC Code\SecurityXPLSender.c
          SendGatewayInfo   0x00ce7e    program     extern C:\Documents and Settings\Administrator\My Documents\Alarm Controller\PIC Code\SecurityXPLSender.c
         SendGatewayReady   0x00cf3c    program     extern C:\Documents and Settings\Administrator\My Documents\Alarm Controller\PIC Code\SecurityXPLSender.c
              SendIPValue   0x00d466    program     extern C:\Documents and Settings\Administrator\My Documents\Alarm Controller\PIC Code\SecurityXPLSender.c
                  SendTCP   0x00139a    program     static C:\Documents and Settings\Administrator\My Documents\Alarm Controller\Microchip\TCPIP Stack\TCP.c
             SendZoneInfo   0x00d1cc    program     extern C:\Documents and Settings\Administrator\My Documents\Alarm Controller\PIC Code\SecurityXPLSender.c
             SendZoneList   0x00d0fa    program     extern C:\Documents and Settings\Administrator\My Documents\Alarm Controller\PIC Code\SecurityXPLSender.c
             SendZoneStat   0x00d836    program     extern C:\Documents and Settings\Administrator\My Documents\Alarm Controller\PIC Code\SecurityXPLSender.c
         SendZoneStateMsg   0x00cb50    program     extern C:\Documents and Settings\Administrator\My Documents\Alarm Controller\PIC Code\SecurityXPLSender.c
     SerializedMACAddress   0x01fff2    program     static C:\Documents and Settings\Administrator\My Documents\Alarm Controller\PIC Code\MainDemo.c
                SetArming   0x007702    program     extern C:\Documents and Settings\Administrator\My Documents\Alarm Controller\PIC Code\SecuritySystem.c
            SetArmingArea   0x0076fa    program     extern C:\Documents and Settings\Administrator\My Documents\Alarm Controller\PIC Code\SecuritySystem.c
                  SiTable   0x016b94    program     extern C:\Documents and Settings\Administrator\My Documents\Alarm Controller\PIC Code\AES.c
        StackApplications   0x018d70    program     extern C:\Documents and Settings\Administrator\My Documents\Alarm Controller\Microchip\TCPIP Stack\StackTsk.c
                StackInit   0x018ca6    program     extern C:\Documents and Settings\Administrator\My Documents\Alarm Controller\Microchip\TCPIP Stack\StackTsk.c
                StackTask   0x018ce0    program     extern C:\Documents and Settings\Administrator\My Documents\Alarm Controller\Microchip\TCPIP Stack\StackTsk.c
     StateChangeToAlarmed   0x006ffc    program     static C:\Documents and Settings\Administrator\My Documents\Alarm Controller\PIC Code\SecuritySystem.c
    StateChangeToAlarming   0x006ec4    program     static C:\Documents and Settings\Administrator\My Documents\Alarm Controller\PIC Code\SecuritySystem.c
         StateChangeToArm   0x007368    program     static C:\Documents and Settings\Administrator\My Documents\Alarm Controller\PIC Code\SecuritySystem.c
   StateChangeToArmFailed   0x007588    program     static C:\Documents and Settings\Administrator\My Documents\Alarm Controller\PIC Code\SecuritySystem.c
        StringToIPAddress   0x011d36    program     extern C:\Documents and Settings\Administrator\My Documents\Alarm Controller\Microchip\TCPIP Stack\Helpers.c
            SwapARPPacket   0x017c12    program     static C:\Documents and Settings\Administrator\My Documents\Alarm Controller\Microchip\TCPIP Stack\ARP.c
             SwapIPHeader   0x018784    program     static C:\Documents and Settings\Administrator\My Documents\Alarm Controller\Microchip\TCPIP Stack\IP.c
            SwapTCPHeader   0x001a78    program     static C:\Documents and Settings\Administrator\My Documents\Alarm Controller\Microchip\TCPIP Stack\TCP.c
                  SyncTCB   0x00007e    program     static C:\Documents and Settings\Administrator\My Documents\Alarm Controller\Microchip\TCPIP Stack\TCP.c
              SyncTCBStub   0x00002a    program     static C:\Documents and Settings\Administrator\My Documents\Alarm Controller\Microchip\TCPIP Stack\TCP.c
        TCPAdjustFIFOSize   0x0024de    program     extern C:\Documents and Settings\Administrator\My Documents\Alarm Controller\Microchip\TCPIP Stack\TCP.c
               TCPDiscard   0x0007a8    program     extern C:\Documents and Settings\Administrator\My Documents\Alarm Controller\Microchip\TCPIP Stack\TCP.c
            TCPDisconnect   0x000336    program     extern C:\Documents and Settings\Administrator\My Documents\Alarm Controller\Microchip\TCPIP Stack\TCP.c
           TCPFindArrayEx   0x0009b4    program     extern C:\Documents and Settings\Administrator\My Documents\Alarm Controller\Microchip\TCPIP Stack\TCP.c
                TCPFindEx   0x000e24    program     extern C:\Documents and Settings\Administrator\My Documents\Alarm Controller\Microchip\TCPIP Stack\TCP.c
        TCPFindROMArrayEx   0x000bf0    program     extern C:\Documents and Settings\Administrator\My Documents\Alarm Controller\Microchip\TCPIP Stack\TCP.c
                 TCPFlush   0x0003c4    program     extern C:\Documents and Settings\Administrator\My Documents\Alarm Controller\Microchip\TCPIP Stack\TCP.c
                   TCPGet   0x00082c    program     extern C:\Documents and Settings\Administrator\My Documents\Alarm Controller\Microchip\TCPIP Stack\TCP.c
              TCPGetArray   0x0008a8    program     extern C:\Documents and Settings\Administrator\My Documents\Alarm Controller\Microchip\TCPIP Stack\TCP.c
         TCPGetRemoteInfo   0x000392    program     extern C:\Documents and Settings\Administrator\My Documents\Alarm Controller\Microchip\TCPIP Stack\TCP.c
         TCPGetRxFIFOFree   0x000998    program     extern C:\Documents and Settings\Administrator\My Documents\Alarm Controller\Microchip\TCPIP Stack\TCP.c
         TCPGetTxFIFOFull   0x00078a    program     extern C:\Documents and Settings\Administrator\My Documents\Alarm Controller\Microchip\TCPIP Stack\TCP.c
                  TCPInit   0x0000c6    program     extern C:\Documents and Settings\Administrator\My Documents\Alarm Controller\Microchip\TCPIP Stack\TCP.c
           TCPIsConnected   0x000320    program     extern C:\Documents and Settings\Administrator\My Documents\Alarm Controller\Microchip\TCPIP Stack\TCP.c
            TCPIsGetReady   0x0007d0    program     extern C:\Documents and Settings\Administrator\My Documents\Alarm Controller\Microchip\TCPIP Stack\TCP.c
            TCPIsPutReady   0x0003e0    program     extern C:\Documents and Settings\Administrator\My Documents\Alarm Controller\Microchip\TCPIP Stack\TCP.c
                  TCPOpen   0x0001f4    program     extern C:\Documents and Settings\Administrator\My Documents\Alarm Controller\Microchip\TCPIP Stack\TCP.c
               TCPProcess   0x00128a    program     extern C:\Documents and Settings\Administrator\My Documents\Alarm Controller\Microchip\TCPIP Stack\TCP.c
                   TCPPut   0x00045c    program     extern C:\Documents and Settings\Administrator\My Documents\Alarm Controller\Microchip\TCPIP Stack\TCP.c
              TCPPutArray   0x000504    program     extern C:\Documents and Settings\Administrator\My Documents\Alarm Controller\Microchip\TCPIP Stack\TCP.c
           TCPPutROMArray   0x0005f4    program     extern C:\Documents and Settings\Administrator\My Documents\Alarm Controller\Microchip\TCPIP Stack\TCP.c
          TCPPutROMString   0x000720    program     extern C:\Documents and Settings\Administrator\My Documents\Alarm Controller\Microchip\TCPIP Stack\TCP.c
             TCPPutString   0x0006e8    program     extern C:\Documents and Settings\Administrator\My Documents\Alarm Controller\Microchip\TCPIP Stack\TCP.c
               TCPRAMCopy   0x002672    program     static C:\Documents and Settings\Administrator\My Documents\Alarm Controller\Microchip\TCPIP Stack\TCP.c
            TCPRAMCopyROM   0x0026ea    program     static C:\Documents and Settings\Administrator\My Documents\Alarm Controller\Microchip\TCPIP Stack\TCP.c
     TCPSocketInitializer   0x018e02    program     extern C:\Documents and Settings\Administrator\My Documents\Alarm Controller\PIC Code\TCPIPConfig.h
                  TCPTick   0x000e4a    program     extern C:\Documents and Settings\Administrator\My Documents\Alarm Controller\Microchip\TCPIP Stack\TCP.c
              TCPWasReset   0x00030a    program     extern C:\Documents and Settings\Administrator\My Documents\Alarm Controller\Microchip\TCPIP Stack\TCP.c
              TaskAlarmed   0x00713c    program     static C:\Documents and Settings\Administrator\My Documents\Alarm Controller\PIC Code\SecuritySystem.c
             TaskAlarming   0x007030    program     static C:\Documents and Settings\Administrator\My Documents\Alarm Controller\PIC Code\SecuritySystem.c
TickConvertToMilliseconds   0x018bf8    program     extern C:\Documents and Settings\Administrator\My Documents\Alarm Controller\Microchip\TCPIP Stack\Tick.c
                  TickGet   0x018bbc    program     extern C:\Documents and Settings\Administrator\My Documents\Alarm Controller\Microchip\TCPIP Stack\Tick.c
            TickGetDiv256   0x018bd0    program     extern C:\Documents and Settings\Administrator\My Documents\Alarm Controller\Microchip\TCPIP Stack\Tick.c
            TickGetDiv64K   0x018be4    program     extern C:\Documents and Settings\Administrator\My Documents\Alarm Controller\Microchip\TCPIP Stack\Tick.c
                 TickInit   0x018b86    program     extern C:\Documents and Settings\Administrator\My Documents\Alarm Controller\Microchip\TCPIP Stack\Tick.c
               TickUpdate   0x018c68    program     extern C:\Documents and Settings\Administrator\My Documents\Alarm Controller\Microchip\TCPIP Stack\Tick.c
                 TstLower   0x016a04    program     static C:\MCC18\src\extended\stdclib\ultoa.asm
                 TstLower   0x016868    program     static C:\MCC18\src\extended\stdclib\itoa.asm
                 TstUpper   0x016862    program     static C:\MCC18\src\extended\stdclib\itoa.asm
                 TstUpper   0x0169fe    program     static C:\MCC18\src\extended\stdclib\ultoa.asm
                 UDPClose   0x014484    program     extern C:\Documents and Settings\Administrator\My Documents\Alarm Controller\Microchip\TCPIP Stack\UDP.c
               UDPDiscard   0x0147ec    program     extern C:\Documents and Settings\Administrator\My Documents\Alarm Controller\Microchip\TCPIP Stack\UDP.c
                 UDPFlush   0x014682    program     extern C:\Documents and Settings\Administrator\My Documents\Alarm Controller\Microchip\TCPIP Stack\UDP.c
                   UDPGet   0x01474a    program     extern C:\Documents and Settings\Administrator\My Documents\Alarm Controller\Microchip\TCPIP Stack\UDP.c
              UDPGetArray   0x014780    program     extern C:\Documents and Settings\Administrator\My Documents\Alarm Controller\Microchip\TCPIP Stack\UDP.c
                  UDPInit   0x014398    program     extern C:\Documents and Settings\Administrator\My Documents\Alarm Controller\Microchip\TCPIP Stack\UDP.c
            UDPIsGetReady   0x014716    program     extern C:\Documents and Settings\Administrator\My Documents\Alarm Controller\Microchip\TCPIP Stack\UDP.c
            UDPIsPutReady   0x014504    program     extern C:\Documents and Settings\Administrator\My Documents\Alarm Controller\Microchip\TCPIP Stack\UDP.c
                  UDPOpen   0x0143c4    program     extern C:\Documents and Settings\Administrator\My Documents\Alarm Controller\Microchip\TCPIP Stack\UDP.c
               UDPProcess   0x014800    program     extern C:\Documents and Settings\Administrator\My Documents\Alarm Controller\Microchip\TCPIP Stack\UDP.c
                   UDPPut   0x01454e    program     extern C:\Documents and Settings\Administrator\My Documents\Alarm Controller\Microchip\TCPIP Stack\UDP.c
              UDPPutArray   0x014598    program     extern C:\Documents and Settings\Administrator\My Documents\Alarm Controller\Microchip\TCPIP Stack\UDP.c
           UDPPutROMArray   0x0145c6    program     extern C:\Documents and Settings\Administrator\My Documents\Alarm Controller\Microchip\TCPIP Stack\UDP.c
          UDPPutROMString   0x014628    program     extern C:\Documents and Settings\Administrator\My Documents\Alarm Controller\Microchip\TCPIP Stack\UDP.c
             UDPPutString   0x0145f8    program     extern C:\Documents and Settings\Administrator\My Documents\Alarm Controller\Microchip\TCPIP Stack\UDP.c
           UDPSetRxBuffer   0x0144ea    program     extern C:\Documents and Settings\Administrator\My Documents\Alarm Controller\Microchip\TCPIP Stack\UDP.c
           UDPSetTxBuffer   0x0144a4    program     extern C:\Documents and Settings\Administrator\My Documents\Alarm Controller\Microchip\TCPIP Stack\UDP.c
                  UDPTask   0x0143be    program     extern C:\Documents and Settings\Administrator\My Documents\Alarm Controller\Microchip\TCPIP Stack\UDP.c
              WritePHYReg   0x01427c    program     extern C:\Documents and Settings\Administrator\My Documents\Alarm Controller\Microchip\TCPIP Stack\ETH97J60.c
               WriteUSART   0x018abe    program     extern C:\Documents and Settings\Administrator\My Documents\Alarm Controller\Microchip\TCPIP Stack\UART.c
             XEEBeginRead   0x01883a    program     extern C:\Documents and Settings\Administrator\My Documents\Alarm Controller\Microchip\TCPIP Stack\SPIEEPROM.c
            XEEBeginWrite   0x0188f2    program     extern C:\Documents and Settings\Administrator\My Documents\Alarm Controller\Microchip\TCPIP Stack\SPIEEPROM.c
               XEEEndRead   0x01887e    program     extern C:\Documents and Settings\Administrator\My Documents\Alarm Controller\Microchip\TCPIP Stack\SPIEEPROM.c
              XEEEndWrite   0x018914    program     extern C:\Documents and Settings\Administrator\My Documents\Alarm Controller\Microchip\TCPIP Stack\SPIEEPROM.c
                  XEEInit   0x018824    program     extern C:\Documents and Settings\Administrator\My Documents\Alarm Controller\Microchip\TCPIP Stack\SPIEEPROM.c
                XEEIsBusy   0x0189b0    program     extern C:\Documents and Settings\Administrator\My Documents\Alarm Controller\Microchip\TCPIP Stack\SPIEEPROM.c
                  XEERead   0x018846    program     extern C:\Documents and Settings\Administrator\My Documents\Alarm Controller\Microchip\TCPIP Stack\SPIEEPROM.c
             XEEReadArray   0x018880    program     extern C:\Documents and Settings\Administrator\My Documents\Alarm Controller\Microchip\TCPIP Stack\SPIEEPROM.c
                 XEEWrite   0x0188f8    program     extern C:\Documents and Settings\Administrator\My Documents\Alarm Controller\Microchip\TCPIP Stack\SPIEEPROM.c
       XPLHeartBeatTiming   0x00f130    program     static C:\Documents and Settings\Administrator\My Documents\Alarm Controller\PIC Code\xPL.c
         XPLProcessUDPMsg   0x00f432    program     static C:\Documents and Settings\Administrator\My Documents\Alarm Controller\PIC Code\xPL.c
   XPLProcessUDPMsgHeader   0x00f5d4    program     static C:\Documents and Settings\Administrator\My Documents\Alarm Controller\PIC Code\xPL.c
            XPLSendHeader   0x00f254    program     extern C:\Documents and Settings\Administrator\My Documents\Alarm Controller\PIC Code\xPL.c
         XPLSendHeartBeat   0x00f1c4    program     static C:\Documents and Settings\Administrator\My Documents\Alarm Controller\PIC Code\xPL.c
                 XPLTasks   0x00f180    program     extern C:\Documents and Settings\Administrator\My Documents\Alarm Controller\PIC Code\xPL.c
                  _14jEnd   0x016770    program     static C:\MCC18\src\extended\stdclib\atol.asm
              _2jContinue   0x0170e0    program     static C:\MCC18\src\extended\stdclib\memset.asm
                   _2jEnd   0x017322    program     static C:\MCC18\src\extended\stdclib\slenpgm.asm
              _3jContinue   0x017010    program     static C:\MCC18\src\extended\stdclib\mcmpp2r.asm
              _3jContinue   0x0170ac    program     static C:\MCC18\src\extended\stdclib\mcpyp2r.asm
              _3jContinue   0x0173c4    program     static C:\MCC18\src\extended\stdclib\sncmpp2r.asm
                   _3jEnd   0x0170ea    program     static C:\MCC18\src\extended\stdclib\memset.asm
              _4jContinue   0x017058    program     static C:\MCC18\src\extended\stdclib\memcpy.asm
              _4jContinue   0x017372    program     static C:\MCC18\src\extended\stdclib\strncat.asm
              _4jContinue   0x016fc0    program     static C:\MCC18\src\extended\stdclib\memcmp.asm
                   _4jEnd   0x01701a    program     static C:\MCC18\src\extended\stdclib\mcmpp2r.asm
                   _4jEnd   0x0173ce    program     static C:\MCC18\src\extended\stdclib\sncmpp2r.asm
                   _4jEnd   0x0170b6    program     static C:\MCC18\src\extended\stdclib\mcpyp2r.asm
                   _5jEnd   0x016fca    program     static C:\MCC18\src\extended\stdclib\memcmp.asm
                   _5jEnd   0x01737c    program     static C:\MCC18\src\extended\stdclib\strncat.asm
                   _5jEnd   0x017062    program     static C:\MCC18\src\extended\stdclib\memcpy.asm
        _D10TCYXCODE_000A   0x018de4    program     static C:\MCC18\src\extended\delays\d10tcyx.asm
        _D10TCYXCODE_000C   0x018de6    program     static C:\MCC18\src\extended\delays\d10tcyx.asm
        _D10TCYXCODE_000E   0x018de8    program     static C:\MCC18\src\extended\delays\d10tcyx.asm
        _D1KTCYXCODE_0012   0x018db2    program     static C:\MCC18\src\extended\delays\d1ktcyx.asm
        _D1KTCYXCODE_0018   0x018db8    program     static C:\MCC18\src\extended\delays\d1ktcyx.asm
           _LoadFATRecord   0x010804    program     static C:\Documents and Settings\Administrator\My Documents\Alarm Controller\Microchip\TCPIP Stack\MPFS2.c
                _Validate   0x010ac8    program     static C:\Documents and Settings\Administrator\My Documents\Alarm Controller\Microchip\TCPIP Stack\MPFS2.c
       ___case_0_lbl00322   0x007bb4    program     static                          
       ___case_0_lbl00335   0x007c9a    program     static                          
       ___case_1_lbl00323   0x007bc4    program     static                          
       ___case_1_lbl00336   0x007ca6    program     static                          
       ___case_2_lbl00324   0x007bd4    program     static                          
       ___case_2_lbl00337   0x007cb2    program     static                          
       ___case_3_lbl00325   0x007be4    program     static                          
       ___case_3_lbl00338   0x007cbe    program     static                          
       ___case_4_lbl00326   0x007bf4    program     static                          
       ___case_4_lbl00339   0x007cca    program     static                          
       ___case_5_lbl00327   0x007bf8    program     static                          
       ___case_5_lbl00340   0x007cd6    program     static                          
       ___case_6_lbl00328   0x007bfe    program     static                          
       ___case_6_lbl00341   0x007ce2    program     static                          
       ___case_7_lbl00329   0x007c0a    program     static                          
       ___case_7_lbl00342   0x007cee    program     static                          
       ___case_8_lbl00330   0x007c16    program     static                          
      ___default_lbl00331   0x007c22    program     static                          
      ___default_lbl00343   0x007cfa    program     static                          
           ___do_lbl00002   0x018bb4    program     static                          
           ___do_lbl00002   0x0183fc    program     static                          
           ___do_lbl00003   0x0183fc    program     static                          
           ___do_lbl00003   0x018bb8    program     static                          
           ___do_lbl00004   0x018b96    program     static                          
           ___do_lbl00006   0x0183d4    program     static                          
           ___do_lbl00010   0x018498    program     static                          
           ___do_lbl00011   0x018498    program     static                          
           ___do_lbl00011   0x012eaa    program     static                          
           ___do_lbl00012   0x012eb4    program     static                          
           ___do_lbl00014   0x018470    program     static                          
           ___do_lbl00023   0x012656    program     static                          
         ___else_lbl00313   0x007a46    program     static                          
         ___else_lbl00316   0x007aca    program     static                          
         ___else_lbl00319   0x007b3e    program     static                          
         ___else_lbl00365   0x008056    program     static                          
         ___else_lbl00368   0x008112    program     static                          
         ___else_lbl00372   0x007d68    program     static                          
          ___for_lbl00007   0x018426    program     static                          
          ___for_lbl00008   0x01842a    program     static                          
          ___for_lbl00008   0x012650    program     static                          
          ___for_lbl00009   0x018408    program     static                          
          ___for_lbl00009   0x012654    program     static                          
          ___for_lbl00010   0x012628    program     static                          
          ___for_lbl00013   0x012dec    program     static                          
          ___for_lbl00014   0x012df2    program     static                          
          ___for_lbl00015   0x012662    program     static                          
          ___for_lbl00017   0x012e5c    program     static                          
          ___for_lbl00018   0x012e60    program     static                          
          ___for_lbl00019   0x012df4    program     static                          
          ___for_lbl00020   0x012ea2    program     static                          
          ___for_lbl00021   0x012ea6    program     static                          
          ___for_lbl00022   0x012e7a    program     static                          
          ___for_lbl00031   0x006896    program     static                          
          ___for_lbl00032   0x0068a0    program     static                          
          ___for_lbl00035   0x006828    program     static                          
          ___for_lbl00141   0x012416    program     static                          
          ___for_lbl00142   0x01241c    program     static                          
          ___for_lbl00143   0x0123fa    program     static                          
          ___for_lbl00144   0x012430    program     static                          
          ___for_lbl00145   0x012434    program     static                          
          ___for_lbl00146   0x01241c    program     static                          
          ___for_lbl00352   0x007e94    program     static                          
          ___for_lbl00353   0x007e9e    program     static                          
          ___for_lbl00359   0x007de2    program     static                          
           ___if_lbl00005   0x011c76    program     static                          
           ___if_lbl00006   0x011c84    program     static                          
           ___if_lbl00007   0x011d00    program     static                          
           ___if_lbl00008   0x011d06    program     static                          
           ___if_lbl00016   0x012df2    program     static                          
           ___if_lbl00019   0x013c7a    program     static                          
           ___if_lbl00020   0x013c86    program     static                          
           ___if_lbl00026   0x013d3e    program     static                          
           ___if_lbl00028   0x006792    program     static                          
           ___if_lbl00029   0x013d9a    program     static                          
           ___if_lbl00308   0x007990    program     static                          
           ___if_lbl00309   0x007990    program     static                          
           ___if_lbl00310   0x0079c6    program     static                          
           ___if_lbl00311   0x0079fc    program     static                          
           ___if_lbl00312   0x007a5c    program     static                          
           ___if_lbl00314   0x007a5c    program     static                          
           ___if_lbl00315   0x007ad0    program     static                          
           ___if_lbl00317   0x007ad0    program     static                          
           ___if_lbl00318   0x007b44    program     static                          
           ___if_lbl00320   0x007b44    program     static                          
           ___if_lbl00332   0x007c34    program     static                          
           ___if_lbl00333   0x007c34    program     static                          
           ___if_lbl00344   0x007d0c    program     static                          
           ___if_lbl00345   0x007d0c    program     static                          
           ___if_lbl00346   0x007d0c    program     static                          
           ___if_lbl00348   0x007d78    program     static                          
           ___if_lbl00349   0x007d8a    program     static                          
           ___if_lbl00356   0x007e50    program     static                          
           ___if_lbl00358   0x007e94    program     static                          
           ___if_lbl00360   0x007ed4    program     static                          
           ___if_lbl00361   0x007f06    program     static                          
           ___if_lbl00362   0x007f7a    program     static                          
           ___if_lbl00363   0x007fac    program     static                          
           ___if_lbl00364   0x008068    program     static                          
           ___if_lbl00366   0x008068    program     static                          
           ___if_lbl00367   0x008124    program     static                          
           ___if_lbl00369   0x008124    program     static                          
           ___if_lbl00370   0x00813a    program     static                          
           ___if_lbl00371   0x00813a    program     static                          
           ___if_lbl00373   0x00813a    program     static                          
       ___return_lbl00000   0x018398    program     static                          
       ___return_lbl00000   0x011d2e    program     static                          
       ___return_lbl00000   0x013b28    program     static                          
       ___return_lbl00000   0x000004    program     static                          
       ___return_lbl00001   0x018dd8    program     static                          
       ___return_lbl00001   0x018bba    program     static                          
       ___return_lbl00001   0x018498    program     static                          
       ___return_lbl00002   0x00001c    program     static                          
       ___return_lbl00002   0x0130bc    program     static                          
       ___return_lbl00002   0x01ffcc    program     static                          
       ___return_lbl00003   0x00000c    program     static                          
       ___return_lbl00007   0x012eb4    program     static                          
       ___return_lbl00018   0x013da2    program     static                          
       ___return_lbl00027   0x0068c6    program     static                          
       ___return_lbl00078   0x01419a    program     static                          
       ___return_lbl00079   0x0141da    program     static                          
       ___return_lbl00082   0x01422e    program     static                          
       ___return_lbl00085   0x014274    program     static                          
       ___return_lbl00088   0x0142b2    program     static                          
       ___return_lbl00140   0x012446    program     static                          
       ___return_lbl00304   0x00813a    program     static                          
   ___switchexit_lbl00321   0x007c34    program     static                          
   ___switchexit_lbl00334   0x007d0c    program     static                          
        ___while_lbl00001   0x013a4e    program     static                          
        ___while_lbl00001   0x011ae4    program     static                          
        ___while_lbl00002   0x013a54    program     static                          
        ___while_lbl00002   0x011d08    program     static                          
        ___while_lbl00003   0x011aec    program     static                          
        ___while_lbl00004   0x011af0    program     static                          
        ___while_lbl00004   0x0183da    program     static                          
        ___while_lbl00005   0x0183fc    program     static                          
        ___while_lbl00012   0x018476    program     static                          
        ___while_lbl00013   0x018498    program     static                          
        ___while_lbl00029   0x006804    program     static                          
        ___while_lbl00030   0x00680e    program     static                          
        ___while_lbl00033   0x00688c    program     static                          
        ___while_lbl00034   0x006896    program     static                          
        ___while_lbl00080   0x0141ac    program     static                          
        ___while_lbl00081   0x0141da    program     static                          
        ___while_lbl00083   0x0141ec    program     static                          
        ___while_lbl00084   0x01422e    program     static                          
        ___while_lbl00086   0x014250    program     static                          
        ___while_lbl00087   0x014256    program     static                          
        ___while_lbl00089   0x0142ac    program     static                          
        ___while_lbl00090   0x0142b2    program     static                          
        ___while_lbl00306   0x007924    program     static                          
        ___while_lbl00307   0x007b46    program     static                          
        ___while_lbl00350   0x007d94    program     static                          
        ___while_lbl00351   0x008126    program     static                          
               __config_0   0x01fff8    program     static C:\Documents and Settings\Administrator\My Documents\Alarm Controller\PIC Code\MainDemo.c
               __config_1   0x01fffa    program     static C:\Documents and Settings\Administrator\My Documents\Alarm Controller\PIC Code\MainDemo.c
               __config_2   0x01fffd    program     static C:\Documents and Settings\Administrator\My Documents\Alarm Controller\PIC Code\MainDemo.c
                 __div16s   0x017cbe    program     extern C:\MCC18\src\extended\math\div16s.asm
                 __div16u   0x017d4e    program     extern C:\MCC18\src\extended\math\div16u.asm
                 __div32u   0x017dc6    program     extern C:\MCC18\src\extended\math\div32u.asm
                   __init   0x018e26    program     extern C:\MCC18\src\extended\stdclib\__init.c
                 __mod16s   0x017cc4    program     extern C:\MCC18\src\extended\math\div16s.asm
                 __mod16u   0x017d54    program     extern C:\MCC18\src\extended\math\div16u.asm
                 __mod32u   0x017dcc    program     extern C:\MCC18\src\extended\math\div32u.asm
                  __mul16   0x017e52    program     extern C:\MCC18\src\extended\math\mul16.asm
                  __mul24   0x017eba    program     extern C:\MCC18\src\extended\math\mul24.asm
                  __mul32   0x017f7a    program     extern C:\MCC18\src\extended\math\mul32.asm
                   __pa_0   0x018d80    program     static C:\Documents and Settings\Administrator\My Documents\Alarm Controller\Microchip\TCPIP Stack\StackTsk.c
                   __pa_0   0x018b6a    program     static C:\Documents and Settings\Administrator\My Documents\Alarm Controller\Microchip\TCPIP Stack\UART.c
                   __pa_0   0x0189ee    program     static C:\Documents and Settings\Administrator\My Documents\Alarm Controller\Microchip\TCPIP Stack\SPIEEPROM.c
                   __pa_0   0x012f5e    program     static C:\Documents and Settings\Administrator\My Documents\Alarm Controller\PIC Code\AES.c
                   __pa_0   0x00ebba    program     static C:\Documents and Settings\Administrator\My Documents\Alarm Controller\PIC Code\HTTPForms.c
                   __pa_0   0x017c3c    program     static C:\Documents and Settings\Administrator\My Documents\Alarm Controller\Microchip\TCPIP Stack\ARP.c
                   __pa_0   0x00bd04    program     static C:\Documents and Settings\Administrator\My Documents\Alarm Controller\Microchip\TCPIP Stack\SMTP.c
                   __pa_0   0x018c7c    program     static C:\Documents and Settings\Administrator\My Documents\Alarm Controller\Microchip\TCPIP Stack\Tick.c
                   __pa_0   0x00277a    program     static C:\Documents and Settings\Administrator\My Documents\Alarm Controller\Microchip\TCPIP Stack\TCP.c
                   __pa_0   0x00d940    program     static C:\Documents and Settings\Administrator\My Documents\Alarm Controller\PIC Code\SecurityXPLSender.c
                   __pa_0   0x00aaa2    program     static C:\Documents and Settings\Administrator\My Documents\Alarm Controller\Microchip\TCPIP Stack\HTTP2.c
                   __pa_0   0x012496    program     static C:\Documents and Settings\Administrator\My Documents\Alarm Controller\Microchip\TCPIP Stack\Helpers.c
                   __pa_0   0x0136c4    program     static C:\Documents and Settings\Administrator\My Documents\Alarm Controller\PIC Code\HTTPDynVariables.c
                   __pa_0   0x017808    program     static C:\Documents and Settings\Administrator\My Documents\Alarm Controller\PIC Code\MainDemo.c
                   __pa_0   0x018582    program     static C:\Documents and Settings\Administrator\My Documents\Alarm Controller\Microchip\TCPIP Stack\LCDBlocking.c
                   __pa_0   0x0187ae    program     static C:\Documents and Settings\Administrator\My Documents\Alarm Controller\Microchip\TCPIP Stack\IP.c
                   __pa_0   0x0083b8    program     static C:\Documents and Settings\Administrator\My Documents\Alarm Controller\PIC Code\SecuritySystem.c
                   __pa_0   0x0142da    program     static C:\Documents and Settings\Administrator\My Documents\Alarm Controller\Microchip\TCPIP Stack\ETH97J60.c
                   __pa_0   0x015106    program     static C:\Documents and Settings\Administrator\My Documents\Alarm Controller\PIC Code\EOL.c
                   __pa_0   0x018304    program     static C:\Documents and Settings\Administrator\My Documents\Alarm Controller\Microchip\TCPIP Stack\NBNS.c
                   __pa_0   0x01fea2    program     static C:\Documents and Settings\Administrator\My Documents\Alarm Controller\PIC Code\Battery.c
                   __pa_0   0x00fcca    program     static C:\Documents and Settings\Administrator\My Documents\Alarm Controller\PIC Code\xPL.c
                   __pa_0   0x015e84    program     static C:\Documents and Settings\Administrator\My Documents\Alarm Controller\PIC Code\SNTP Customised.c
                   __pa_0   0x00c8b4    program     static C:\Documents and Settings\Administrator\My Documents\Alarm Controller\PIC Code\SMTP.c
                   __pa_0   0x014a5a    program     static C:\Documents and Settings\Administrator\My Documents\Alarm Controller\Microchip\TCPIP Stack\UDP.c
                   __pa_0   0x010b18    program     static C:\Documents and Settings\Administrator\My Documents\Alarm Controller\Microchip\TCPIP Stack\MPFS2.c
                   __pa_0   0x015856    program     static C:\Documents and Settings\Administrator\My Documents\Alarm Controller\Microchip\TCPIP Stack\DNS.c
                   __pa_0   0x01170a    program     static C:\Documents and Settings\Administrator\My Documents\Alarm Controller\PIC Code\Authenticate.c
                   __pa_1   0x010b2c    program     static C:\Documents and Settings\Administrator\My Documents\Alarm Controller\Microchip\TCPIP Stack\MPFS2.c
                   __pa_1   0x017c46    program     static C:\Documents and Settings\Administrator\My Documents\Alarm Controller\Microchip\TCPIP Stack\ARP.c
                   __pa_1   0x014a64    program     static C:\Documents and Settings\Administrator\My Documents\Alarm Controller\Microchip\TCPIP Stack\UDP.c
                   __pa_1   0x00ebd6    program     static C:\Documents and Settings\Administrator\My Documents\Alarm Controller\PIC Code\HTTPForms.c
                   __pa_1   0x00bd3e    program     static C:\Documents and Settings\Administrator\My Documents\Alarm Controller\Microchip\TCPIP Stack\SMTP.c
                   __pa_1   0x01feca    program     static C:\Documents and Settings\Administrator\My Documents\Alarm Controller\PIC Code\Battery.c
                   __pa_1   0x018c96    program     static C:\Documents and Settings\Administrator\My Documents\Alarm Controller\Microchip\TCPIP Stack\Tick.c
                   __pa_1   0x0083c6    program     static C:\Documents and Settings\Administrator\My Documents\Alarm Controller\PIC Code\SecuritySystem.c
                   __pa_1   0x00c8d2    program     static C:\Documents and Settings\Administrator\My Documents\Alarm Controller\PIC Code\SMTP.c
                   __pa_1   0x018a06    program     static C:\Documents and Settings\Administrator\My Documents\Alarm Controller\Microchip\TCPIP Stack\SPIEEPROM.c
                   __pa_1   0x018d90    program     static C:\Documents and Settings\Administrator\My Documents\Alarm Controller\Microchip\TCPIP Stack\StackTsk.c
                   __pa_1   0x002796    program     static C:\Documents and Settings\Administrator\My Documents\Alarm Controller\Microchip\TCPIP Stack\TCP.c
                   __pa_1   0x0136e2    program     static C:\Documents and Settings\Administrator\My Documents\Alarm Controller\PIC Code\HTTPDynVariables.c
                   __pa_1   0x01585c    program     static C:\Documents and Settings\Administrator\My Documents\Alarm Controller\Microchip\TCPIP Stack\DNS.c
                   __pa_1   0x011728    program     static C:\Documents and Settings\Administrator\My Documents\Alarm Controller\PIC Code\Authenticate.c
                   __pa_1   0x00aaac    program     static C:\Documents and Settings\Administrator\My Documents\Alarm Controller\Microchip\TCPIP Stack\HTTP2.c
                   __pa_1   0x00fcda    program     static C:\Documents and Settings\Administrator\My Documents\Alarm Controller\PIC Code\xPL.c
                   __pa_1   0x01510c    program     static C:\Documents and Settings\Administrator\My Documents\Alarm Controller\PIC Code\EOL.c
                   __pa_1   0x0124a0    program     static C:\Documents and Settings\Administrator\My Documents\Alarm Controller\Microchip\TCPIP Stack\Helpers.c
                   __pa_1   0x018312    program     static C:\Documents and Settings\Administrator\My Documents\Alarm Controller\Microchip\TCPIP Stack\NBNS.c
                   __pa_1   0x01782e    program     static C:\Documents and Settings\Administrator\My Documents\Alarm Controller\PIC Code\MainDemo.c
                   __pa_1   0x012f6a    program     static C:\Documents and Settings\Administrator\My Documents\Alarm Controller\PIC Code\AES.c
                   __pa_1   0x0187ce    program     static C:\Documents and Settings\Administrator\My Documents\Alarm Controller\Microchip\TCPIP Stack\IP.c
                   __pa_1   0x00d946    program     static C:\Documents and Settings\Administrator\My Documents\Alarm Controller\PIC Code\SecurityXPLSender.c
                   __pa_1   0x0185a0    program     static C:\Documents and Settings\Administrator\My Documents\Alarm Controller\Microchip\TCPIP Stack\LCDBlocking.c
                   __pa_1   0x0142f2    program     static C:\Documents and Settings\Administrator\My Documents\Alarm Controller\Microchip\TCPIP Stack\ETH97J60.c
                   __pa_1   0x015eac    program     static C:\Documents and Settings\Administrator\My Documents\Alarm Controller\PIC Code\SNTP Customised.c
                   __pa_1   0x018b74    program     static C:\Documents and Settings\Administrator\My Documents\Alarm Controller\Microchip\TCPIP Stack\UART.c
                  __pa_10   0x00c944    program     static C:\Documents and Settings\Administrator\My Documents\Alarm Controller\PIC Code\SMTP.c
                  __pa_10   0x00fda8    program     static C:\Documents and Settings\Administrator\My Documents\Alarm Controller\PIC Code\xPL.c
                  __pa_10   0x010bb6    program     static C:\Documents and Settings\Administrator\My Documents\Alarm Controller\Microchip\TCPIP Stack\MPFS2.c
                  __pa_10   0x014ad2    program     static C:\Documents and Settings\Administrator\My Documents\Alarm Controller\Microchip\TCPIP Stack\UDP.c
                  __pa_10   0x00d9ce    program     static C:\Documents and Settings\Administrator\My Documents\Alarm Controller\PIC Code\SecurityXPLSender.c
                  __pa_10   0x01437e    program     static C:\Documents and Settings\Administrator\My Documents\Alarm Controller\Microchip\TCPIP Stack\ETH97J60.c
                  __pa_10   0x01590e    program     static C:\Documents and Settings\Administrator\My Documents\Alarm Controller\Microchip\TCPIP Stack\DNS.c
                  __pa_10   0x01254c    program     static C:\Documents and Settings\Administrator\My Documents\Alarm Controller\Microchip\TCPIP Stack\Helpers.c
                  __pa_10   0x00ab68    program     static C:\Documents and Settings\Administrator\My Documents\Alarm Controller\Microchip\TCPIP Stack\HTTP2.c
                  __pa_10   0x0117da    program     static C:\Documents and Settings\Administrator\My Documents\Alarm Controller\PIC Code\Authenticate.c
                  __pa_10   0x0151ac    program     static C:\Documents and Settings\Administrator\My Documents\Alarm Controller\PIC Code\EOL.c
                  __pa_10   0x008456    program     static C:\Documents and Settings\Administrator\My Documents\Alarm Controller\PIC Code\SecuritySystem.c
                  __pa_10   0x012fde    program     static C:\Documents and Settings\Administrator\My Documents\Alarm Controller\PIC Code\AES.c
                  __pa_10   0x015f36    program     static C:\Documents and Settings\Administrator\My Documents\Alarm Controller\PIC Code\SNTP Customised.c
                  __pa_10   0x00be10    program     static C:\Documents and Settings\Administrator\My Documents\Alarm Controller\Microchip\TCPIP Stack\SMTP.c
                  __pa_10   0x0028ec    program     static C:\Documents and Settings\Administrator\My Documents\Alarm Controller\Microchip\TCPIP Stack\TCP.c
                  __pa_10   0x01375c    program     static C:\Documents and Settings\Administrator\My Documents\Alarm Controller\PIC Code\HTTPDynVariables.c
                  __pa_10   0x00ec74    program     static C:\Documents and Settings\Administrator\My Documents\Alarm Controller\PIC Code\HTTPForms.c
                 __pa_100   0x00af6c    program     static C:\Documents and Settings\Administrator\My Documents\Alarm Controller\Microchip\TCPIP Stack\HTTP2.c
                 __pa_100   0x002eca    program     static C:\Documents and Settings\Administrator\My Documents\Alarm Controller\Microchip\TCPIP Stack\TCP.c
                 __pa_100   0x0088ce    program     static C:\Documents and Settings\Administrator\My Documents\Alarm Controller\PIC Code\SecuritySystem.c
                 __pa_101   0x0088d8    program     static C:\Documents and Settings\Administrator\My Documents\Alarm Controller\PIC Code\SecuritySystem.c
                 __pa_101   0x002ed4    program     static C:\Documents and Settings\Administrator\My Documents\Alarm Controller\Microchip\TCPIP Stack\TCP.c
                 __pa_101   0x00af78    program     static C:\Documents and Settings\Administrator\My Documents\Alarm Controller\Microchip\TCPIP Stack\HTTP2.c
                 __pa_102   0x002ede    program     static C:\Documents and Settings\Administrator\My Documents\Alarm Controller\Microchip\TCPIP Stack\TCP.c
                 __pa_102   0x0088e0    program     static C:\Documents and Settings\Administrator\My Documents\Alarm Controller\PIC Code\SecuritySystem.c
                 __pa_102   0x00af86    program     static C:\Documents and Settings\Administrator\My Documents\Alarm Controller\Microchip\TCPIP Stack\HTTP2.c
                 __pa_103   0x00af92    program     static C:\Documents and Settings\Administrator\My Documents\Alarm Controller\Microchip\TCPIP Stack\HTTP2.c
                 __pa_103   0x002ee8    program     static C:\Documents and Settings\Administrator\My Documents\Alarm Controller\Microchip\TCPIP Stack\TCP.c
                 __pa_103   0x0088ea    program     static C:\Documents and Settings\Administrator\My Documents\Alarm Controller\PIC Code\SecuritySystem.c
                 __pa_104   0x00af9e    program     static C:\Documents and Settings\Administrator\My Documents\Alarm Controller\Microchip\TCPIP Stack\HTTP2.c
                 __pa_104   0x002ef2    program     static C:\Documents and Settings\Administrator\My Documents\Alarm Controller\Microchip\TCPIP Stack\TCP.c
                 __pa_104   0x0088f4    program     static C:\Documents and Settings\Administrator\My Documents\Alarm Controller\PIC Code\SecuritySystem.c
                 __pa_105   0x00afa8    program     static C:\Documents and Settings\Administrator\My Documents\Alarm Controller\Microchip\TCPIP Stack\HTTP2.c
                 __pa_105   0x002efc    program     static C:\Documents and Settings\Administrator\My Documents\Alarm Controller\Microchip\TCPIP Stack\TCP.c
                 __pa_105   0x008902    program     static C:\Documents and Settings\Administrator\My Documents\Alarm Controller\PIC Code\SecuritySystem.c
                 __pa_106   0x002f04    program     static C:\Documents and Settings\Administrator\My Documents\Alarm Controller\Microchip\TCPIP Stack\TCP.c
                 __pa_106   0x00890a    program     static C:\Documents and Settings\Administrator\My Documents\Alarm Controller\PIC Code\SecuritySystem.c
                 __pa_106   0x00afb4    program     static C:\Documents and Settings\Administrator\My Documents\Alarm Controller\Microchip\TCPIP Stack\HTTP2.c
                 __pa_107   0x00afba    program     static C:\Documents and Settings\Administrator\My Documents\Alarm Controller\Microchip\TCPIP Stack\HTTP2.c
                 __pa_107   0x008914    program     static C:\Documents and Settings\Administrator\My Documents\Alarm Controller\PIC Code\SecuritySystem.c
                 __pa_107   0x002f10    program     static C:\Documents and Settings\Administrator\My Documents\Alarm Controller\Microchip\TCPIP Stack\TCP.c
                 __pa_108   0x00afc0    program     static C:\Documents and Settings\Administrator\My Documents\Alarm Controller\Microchip\TCPIP Stack\HTTP2.c
                 __pa_108   0x00892e    program     static C:\Documents and Settings\Administrator\My Documents\Alarm Controller\PIC Code\SecuritySystem.c
                 __pa_108   0x002f1c    program     static C:\Documents and Settings\Administrator\My Documents\Alarm Controller\Microchip\TCPIP Stack\TCP.c
                 __pa_109   0x00afc6    program     static C:\Documents and Settings\Administrator\My Documents\Alarm Controller\Microchip\TCPIP Stack\HTTP2.c
                 __pa_109   0x00893a    program     static C:\Documents and Settings\Administrator\My Documents\Alarm Controller\PIC Code\SecuritySystem.c
                 __pa_109   0x002f24    program     static C:\Documents and Settings\Administrator\My Documents\Alarm Controller\Microchip\TCPIP Stack\TCP.c
                  __pa_11   0x015f42    program     static C:\Documents and Settings\Administrator\My Documents\Alarm Controller\PIC Code\SNTP Customised.c
                  __pa_11   0x0117ec    program     static C:\Documents and Settings\Administrator\My Documents\Alarm Controller\PIC Code\Authenticate.c
                  __pa_11   0x00ab7a    program     static C:\Documents and Settings\Administrator\My Documents\Alarm Controller\Microchip\TCPIP Stack\HTTP2.c
                  __pa_11   0x012558    program     static C:\Documents and Settings\Administrator\My Documents\Alarm Controller\Microchip\TCPIP Stack\Helpers.c
                  __pa_11   0x0151b8    program     static C:\Documents and Settings\Administrator\My Documents\Alarm Controller\PIC Code\EOL.c
                  __pa_11   0x014386    program     static C:\Documents and Settings\Administrator\My Documents\Alarm Controller\Microchip\TCPIP Stack\ETH97J60.c
                  __pa_11   0x008460    program     static C:\Documents and Settings\Administrator\My Documents\Alarm Controller\PIC Code\SecuritySystem.c
                  __pa_11   0x00d9d6    program     static C:\Documents and Settings\Administrator\My Documents\Alarm Controller\PIC Code\SecurityXPLSender.c
                  __pa_11   0x00fdbc    program     static C:\Documents and Settings\Administrator\My Documents\Alarm Controller\PIC Code\xPL.c
                  __pa_11   0x015920    program     static C:\Documents and Settings\Administrator\My Documents\Alarm Controller\Microchip\TCPIP Stack\DNS.c
                  __pa_11   0x00ec84    program     static C:\Documents and Settings\Administrator\My Documents\Alarm Controller\PIC Code\HTTPForms.c
                  __pa_11   0x0028f6    program     static C:\Documents and Settings\Administrator\My Documents\Alarm Controller\Microchip\TCPIP Stack\TCP.c
                  __pa_11   0x013766    program     static C:\Documents and Settings\Administrator\My Documents\Alarm Controller\PIC Code\HTTPDynVariables.c
                  __pa_11   0x00be1a    program     static C:\Documents and Settings\Administrator\My Documents\Alarm Controller\Microchip\TCPIP Stack\SMTP.c
                  __pa_11   0x00c94e    program     static C:\Documents and Settings\Administrator\My Documents\Alarm Controller\PIC Code\SMTP.c
                  __pa_11   0x012fe4    program     static C:\Documents and Settings\Administrator\My Documents\Alarm Controller\PIC Code\AES.c
                  __pa_11   0x014ae6    program     static C:\Documents and Settings\Administrator\My Documents\Alarm Controller\Microchip\TCPIP Stack\UDP.c
                  __pa_11   0x010bd6    program     static C:\Documents and Settings\Administrator\My Documents\Alarm Controller\Microchip\TCPIP Stack\MPFS2.c
                 __pa_110   0x002f3c    program     static C:\Documents and Settings\Administrator\My Documents\Alarm Controller\Microchip\TCPIP Stack\TCP.c
                 __pa_110   0x00afcc    program     static C:\Documents and Settings\Administrator\My Documents\Alarm Controller\Microchip\TCPIP Stack\HTTP2.c
                 __pa_110   0x008948    program     static C:\Documents and Settings\Administrator\My Documents\Alarm Controller\PIC Code\SecuritySystem.c
                 __pa_111   0x002f52    program     static C:\Documents and Settings\Administrator\My Documents\Alarm Controller\Microchip\TCPIP Stack\TCP.c
                 __pa_111   0x00afd4    program     static C:\Documents and Settings\Administrator\My Documents\Alarm Controller\Microchip\TCPIP Stack\HTTP2.c
                 __pa_111   0x008956    program     static C:\Documents and Settings\Administrator\My Documents\Alarm Controller\PIC Code\SecuritySystem.c
                 __pa_112   0x002f5c    program     static C:\Documents and Settings\Administrator\My Documents\Alarm Controller\Microchip\TCPIP Stack\TCP.c
                 __pa_112   0x00afdc    program     static C:\Documents and Settings\Administrator\My Documents\Alarm Controller\Microchip\TCPIP Stack\HTTP2.c
                 __pa_112   0x00896a    program     static C:\Documents and Settings\Administrator\My Documents\Alarm Controller\PIC Code\SecuritySystem.c
                 __pa_113   0x002f64    program     static C:\Documents and Settings\Administrator\My Documents\Alarm Controller\Microchip\TCPIP Stack\TCP.c
                 __pa_113   0x00afe2    program     static C:\Documents and Settings\Administrator\My Documents\Alarm Controller\Microchip\TCPIP Stack\HTTP2.c
                 __pa_113   0x008972    program     static C:\Documents and Settings\Administrator\My Documents\Alarm Controller\PIC Code\SecuritySystem.c
                 __pa_114   0x002f76    program     static C:\Documents and Settings\Administrator\My Documents\Alarm Controller\Microchip\TCPIP Stack\TCP.c
                 __pa_114   0x00897a    program     static C:\Documents and Settings\Administrator\My Documents\Alarm Controller\PIC Code\SecuritySystem.c
                 __pa_115   0x002f82    program     static C:\Documents and Settings\Administrator\My Documents\Alarm Controller\Microchip\TCPIP Stack\TCP.c
                 __pa_115   0x008980    program     static C:\Documents and Settings\Administrator\My Documents\Alarm Controller\PIC Code\SecuritySystem.c
                 __pa_116   0x002f88    program     static C:\Documents and Settings\Administrator\My Documents\Alarm Controller\Microchip\TCPIP Stack\TCP.c
                 __pa_116   0x008986    program     static C:\Documents and Settings\Administrator\My Documents\Alarm Controller\PIC Code\SecuritySystem.c
                 __pa_117   0x00898c    program     static C:\Documents and Settings\Administrator\My Documents\Alarm Controller\PIC Code\SecuritySystem.c
                 __pa_117   0x002f92    program     static C:\Documents and Settings\Administrator\My Documents\Alarm Controller\Microchip\TCPIP Stack\TCP.c
                 __pa_118   0x008992    program     static C:\Documents and Settings\Administrator\My Documents\Alarm Controller\PIC Code\SecuritySystem.c
                 __pa_118   0x002f9c    program     static C:\Documents and Settings\Administrator\My Documents\Alarm Controller\Microchip\TCPIP Stack\TCP.c
                 __pa_119   0x002fa4    program     static C:\Documents and Settings\Administrator\My Documents\Alarm Controller\Microchip\TCPIP Stack\TCP.c
                 __pa_119   0x00899e    program     static C:\Documents and Settings\Administrator\My Documents\Alarm Controller\PIC Code\SecuritySystem.c
                  __pa_12   0x00d9e0    program     static C:\Documents and Settings\Administrator\My Documents\Alarm Controller\PIC Code\SecurityXPLSender.c
                  __pa_12   0x01438e    program     static C:\Documents and Settings\Administrator\My Documents\Alarm Controller\Microchip\TCPIP Stack\ETH97J60.c
                  __pa_12   0x015928    program     static C:\Documents and Settings\Administrator\My Documents\Alarm Controller\Microchip\TCPIP Stack\DNS.c
                  __pa_12   0x00c958    program     static C:\Documents and Settings\Administrator\My Documents\Alarm Controller\PIC Code\SMTP.c
                  __pa_12   0x00fdca    program     static C:\Documents and Settings\Administrator\My Documents\Alarm Controller\PIC Code\xPL.c
                  __pa_12   0x010bf0    program     static C:\Documents and Settings\Administrator\My Documents\Alarm Controller\Microchip\TCPIP Stack\MPFS2.c
                  __pa_12   0x014af8    program     static C:\Documents and Settings\Administrator\My Documents\Alarm Controller\Microchip\TCPIP Stack\UDP.c
                  __pa_12   0x015f4c    program     static C:\Documents and Settings\Administrator\My Documents\Alarm Controller\PIC Code\SNTP Customised.c
                  __pa_12   0x00be20    program     static C:\Documents and Settings\Administrator\My Documents\Alarm Controller\Microchip\TCPIP Stack\SMTP.c
                  __pa_12   0x00290a    program     static C:\Documents and Settings\Administrator\My Documents\Alarm Controller\Microchip\TCPIP Stack\TCP.c
                  __pa_12   0x0117fc    program     static C:\Documents and Settings\Administrator\My Documents\Alarm Controller\PIC Code\Authenticate.c
                  __pa_12   0x013770    program     static C:\Documents and Settings\Administrator\My Documents\Alarm Controller\PIC Code\HTTPDynVariables.c
                  __pa_12   0x00ec8e    program     static C:\Documents and Settings\Administrator\My Documents\Alarm Controller\PIC Code\HTTPForms.c
                  __pa_12   0x012fec    program     static C:\Documents and Settings\Administrator\My Documents\Alarm Controller\PIC Code\AES.c
                  __pa_12   0x00846c    program     static C:\Documents and Settings\Administrator\My Documents\Alarm Controller\PIC Code\SecuritySystem.c
                  __pa_12   0x0151c8    program     static C:\Documents and Settings\Administrator\My Documents\Alarm Controller\PIC Code\EOL.c
                  __pa_12   0x00ab80    program     static C:\Documents and Settings\Administrator\My Documents\Alarm Controller\Microchip\TCPIP Stack\HTTP2.c
                  __pa_12   0x012560    program     static C:\Documents and Settings\Administrator\My Documents\Alarm Controller\Microchip\TCPIP Stack\Helpers.c
                 __pa_120   0x0089a6    program     static C:\Documents and Settings\Administrator\My Documents\Alarm Controller\PIC Code\SecuritySystem.c
                 __pa_120   0x002fae    program     static C:\Documents and Settings\Administrator\My Documents\Alarm Controller\Microchip\TCPIP Stack\TCP.c
                 __pa_121   0x0089b4    program     static C:\Documents and Settings\Administrator\My Documents\Alarm Controller\PIC Code\SecuritySystem.c
                 __pa_121   0x002fc4    program     static C:\Documents and Settings\Administrator\My Documents\Alarm Controller\Microchip\TCPIP Stack\TCP.c
                 __pa_122   0x002fce    program     static C:\Documents and Settings\Administrator\My Documents\Alarm Controller\Microchip\TCPIP Stack\TCP.c
                 __pa_122   0x0089c2    program     static C:\Documents and Settings\Administrator\My Documents\Alarm Controller\PIC Code\SecuritySystem.c
                 __pa_123   0x0089ca    program     static C:\Documents and Settings\Administrator\My Documents\Alarm Controller\PIC Code\SecuritySystem.c
                 __pa_123   0x002fda    program     static C:\Documents and Settings\Administrator\My Documents\Alarm Controller\Microchip\TCPIP Stack\TCP.c
                 __pa_124   0x0089d4    program     static C:\Documents and Settings\Administrator\My Documents\Alarm Controller\PIC Code\SecuritySystem.c
                 __pa_124   0x002fe2    program     static C:\Documents and Settings\Administrator\My Documents\Alarm Controller\Microchip\TCPIP Stack\TCP.c
                 __pa_125   0x0089de    program     static C:\Documents and Settings\Administrator\My Documents\Alarm Controller\PIC Code\SecuritySystem.c
                 __pa_125   0x002ff6    program     static C:\Documents and Settings\Administrator\My Documents\Alarm Controller\Microchip\TCPIP Stack\TCP.c
                 __pa_126   0x0089e4    program     static C:\Documents and Settings\Administrator\My Documents\Alarm Controller\PIC Code\SecuritySystem.c
                 __pa_126   0x00300a    program     static C:\Documents and Settings\Administrator\My Documents\Alarm Controller\Microchip\TCPIP Stack\TCP.c
                 __pa_127   0x0089ec    program     static C:\Documents and Settings\Administrator\My Documents\Alarm Controller\PIC Code\SecuritySystem.c
                 __pa_127   0x003016    program     static C:\Documents and Settings\Administrator\My Documents\Alarm Controller\Microchip\TCPIP Stack\TCP.c
                 __pa_128   0x0089f2    program     static C:\Documents and Settings\Administrator\My Documents\Alarm Controller\PIC Code\SecuritySystem.c
                 __pa_128   0x00301e    program     static C:\Documents and Settings\Administrator\My Documents\Alarm Controller\Microchip\TCPIP Stack\TCP.c
                 __pa_129   0x003030    program     static C:\Documents and Settings\Administrator\My Documents\Alarm Controller\Microchip\TCPIP Stack\TCP.c
                 __pa_129   0x0089f8    program     static C:\Documents and Settings\Administrator\My Documents\Alarm Controller\PIC Code\SecuritySystem.c
                  __pa_13   0x01256e    program     static C:\Documents and Settings\Administrator\My Documents\Alarm Controller\Microchip\TCPIP Stack\Helpers.c
                  __pa_13   0x008488    program     static C:\Documents and Settings\Administrator\My Documents\Alarm Controller\PIC Code\SecuritySystem.c
                  __pa_13   0x0151d4    program     static C:\Documents and Settings\Administrator\My Documents\Alarm Controller\PIC Code\EOL.c
                  __pa_13   0x00eca6    program     static C:\Documents and Settings\Administrator\My Documents\Alarm Controller\PIC Code\HTTPForms.c
                  __pa_13   0x00fdd4    program     static C:\Documents and Settings\Administrator\My Documents\Alarm Controller\PIC Code\xPL.c
                  __pa_13   0x013778    program     static C:\Documents and Settings\Administrator\My Documents\Alarm Controller\PIC Code\HTTPDynVariables.c
                  __pa_13   0x01180c    program     static C:\Documents and Settings\Administrator\My Documents\Alarm Controller\PIC Code\Authenticate.c
                  __pa_13   0x002920    program     static C:\Documents and Settings\Administrator\My Documents\Alarm Controller\Microchip\TCPIP Stack\TCP.c
                  __pa_13   0x00be44    program     static C:\Documents and Settings\Administrator\My Documents\Alarm Controller\Microchip\TCPIP Stack\SMTP.c
                  __pa_13   0x015932    program     static C:\Documents and Settings\Administrator\My Documents\Alarm Controller\Microchip\TCPIP Stack\DNS.c
                  __pa_13   0x00da22    program     static C:\Documents and Settings\Administrator\My Documents\Alarm Controller\PIC Code\SecurityXPLSender.c
                  __pa_13   0x00c96a    program     static C:\Documents and Settings\Administrator\My Documents\Alarm Controller\PIC Code\SMTP.c
                  __pa_13   0x015f5a    program     static C:\Documents and Settings\Administrator\My Documents\Alarm Controller\PIC Code\SNTP Customised.c
                  __pa_13   0x00ab8e    program     static C:\Documents and Settings\Administrator\My Documents\Alarm Controller\Microchip\TCPIP Stack\HTTP2.c
                  __pa_13   0x012ff2    program     static C:\Documents and Settings\Administrator\My Documents\Alarm Controller\PIC Code\AES.c
                  __pa_13   0x014b08    program     static C:\Documents and Settings\Administrator\My Documents\Alarm Controller\Microchip\TCPIP Stack\UDP.c
                  __pa_13   0x010c02    program     static C:\Documents and Settings\Administrator\My Documents\Alarm Controller\Microchip\TCPIP Stack\MPFS2.c
                 __pa_130   0x0089fe    program     static C:\Documents and Settings\Administrator\My Documents\Alarm Controller\PIC Code\SecuritySystem.c
                 __pa_130   0x003044    program     static C:\Documents and Settings\Administrator\My Documents\Alarm Controller\Microchip\TCPIP Stack\TCP.c
                 __pa_131   0x008a0a    program     static C:\Documents and Settings\Administrator\My Documents\Alarm Controller\PIC Code\SecuritySystem.c
                 __pa_131   0x003054    program     static C:\Documents and Settings\Administrator\My Documents\Alarm Controller\Microchip\TCPIP Stack\TCP.c
                 __pa_132   0x00305a    program     static C:\Documents and Settings\Administrator\My Documents\Alarm Controller\Microchip\TCPIP Stack\TCP.c
                 __pa_133   0x003068    program     static C:\Documents and Settings\Administrator\My Documents\Alarm Controller\Microchip\TCPIP Stack\TCP.c
                 __pa_134   0x003078    program     static C:\Documents and Settings\Administrator\My Documents\Alarm Controller\Microchip\TCPIP Stack\TCP.c
                 __pa_135   0x00308a    program     static C:\Documents and Settings\Administrator\My Documents\Alarm Controller\Microchip\TCPIP Stack\TCP.c
                 __pa_136   0x00309c    program     static C:\Documents and Settings\Administrator\My Documents\Alarm Controller\Microchip\TCPIP Stack\TCP.c
                 __pa_137   0x0030a8    program     static C:\Documents and Settings\Administrator\My Documents\Alarm Controller\Microchip\TCPIP Stack\TCP.c
                 __pa_138   0x0030b4    program     static C:\Documents and Settings\Administrator\My Documents\Alarm Controller\Microchip\TCPIP Stack\TCP.c
                 __pa_139   0x0030bc    program     static C:\Documents and Settings\Administrator\My Documents\Alarm Controller\Microchip\TCPIP Stack\TCP.c
                  __pa_14   0x011816    program     static C:\Documents and Settings\Administrator\My Documents\Alarm Controller\PIC Code\Authenticate.c
                  __pa_14   0x015f64    program     static C:\Documents and Settings\Administrator\My Documents\Alarm Controller\PIC Code\SNTP Customised.c
                  __pa_14   0x002958    program     static C:\Documents and Settings\Administrator\My Documents\Alarm Controller\Microchip\TCPIP Stack\TCP.c
                  __pa_14   0x00be62    program     static C:\Documents and Settings\Administrator\My Documents\Alarm Controller\Microchip\TCPIP Stack\SMTP.c
                  __pa_14   0x012ffa    program     static C:\Documents and Settings\Administrator\My Documents\Alarm Controller\PIC Code\AES.c
                  __pa_14   0x014b18    program     static C:\Documents and Settings\Administrator\My Documents\Alarm Controller\Microchip\TCPIP Stack\UDP.c
                  __pa_14   0x010c14    program     static C:\Documents and Settings\Administrator\My Documents\Alarm Controller\Microchip\TCPIP Stack\MPFS2.c
                  __pa_14   0x015942    program     static C:\Documents and Settings\Administrator\My Documents\Alarm Controller\Microchip\TCPIP Stack\DNS.c
                  __pa_14   0x00c976    program     static C:\Documents and Settings\Administrator\My Documents\Alarm Controller\PIC Code\SMTP.c
                  __pa_14   0x00da2e    program     static C:\Documents and Settings\Administrator\My Documents\Alarm Controller\PIC Code\SecurityXPLSender.c
                  __pa_14   0x012578    program     static C:\Documents and Settings\Administrator\My Documents\Alarm Controller\Microchip\TCPIP Stack\Helpers.c
                  __pa_14   0x00fde0    program     static C:\Documents and Settings\Administrator\My Documents\Alarm Controller\PIC Code\xPL.c
                  __pa_14   0x00ab96    program     static C:\Documents and Settings\Administrator\My Documents\Alarm Controller\Microchip\TCPIP Stack\HTTP2.c
                  __pa_14   0x0151e6    program     static C:\Documents and Settings\Administrator\My Documents\Alarm Controller\PIC Code\EOL.c
                  __pa_14   0x00ecb8    program     static C:\Documents and Settings\Administrator\My Documents\Alarm Controller\PIC Code\HTTPForms.c
                  __pa_14   0x00849a    program     static C:\Documents and Settings\Administrator\My Documents\Alarm Controller\PIC Code\SecuritySystem.c
                  __pa_14   0x013782    program     static C:\Documents and Settings\Administrator\My Documents\Alarm Controller\PIC Code\HTTPDynVariables.c
                 __pa_140   0x0030c2    program     static C:\Documents and Settings\Administrator\My Documents\Alarm Controller\Microchip\TCPIP Stack\TCP.c
                 __pa_141   0x0030ca    program     static C:\Documents and Settings\Administrator\My Documents\Alarm Controller\Microchip\TCPIP Stack\TCP.c
                 __pa_142   0x0030d4    program     static C:\Documents and Settings\Administrator\My Documents\Alarm Controller\Microchip\TCPIP Stack\TCP.c
                 __pa_143   0x0030e2    program     static C:\Documents and Settings\Administrator\My Documents\Alarm Controller\Microchip\TCPIP Stack\TCP.c
                 __pa_144   0x0030f0    program     static C:\Documents and Settings\Administrator\My Documents\Alarm Controller\Microchip\TCPIP Stack\TCP.c
                 __pa_145   0x0030f8    program     static C:\Documents and Settings\Administrator\My Documents\Alarm Controller\Microchip\TCPIP Stack\TCP.c
                 __pa_146   0x003104    program     static C:\Documents and Settings\Administrator\My Documents\Alarm Controller\Microchip\TCPIP Stack\TCP.c
                 __pa_147   0x00310c    program     static C:\Documents and Settings\Administrator\My Documents\Alarm Controller\Microchip\TCPIP Stack\TCP.c
                 __pa_148   0x003118    program     static C:\Documents and Settings\Administrator\My Documents\Alarm Controller\Microchip\TCPIP Stack\TCP.c
                 __pa_149   0x003124    program     static C:\Documents and Settings\Administrator\My Documents\Alarm Controller\Microchip\TCPIP Stack\TCP.c
                  __pa_15   0x00da38    program     static C:\Documents and Settings\Administrator\My Documents\Alarm Controller\PIC Code\SecurityXPLSender.c
                  __pa_15   0x00fdea    program     static C:\Documents and Settings\Administrator\My Documents\Alarm Controller\PIC Code\xPL.c
                  __pa_15   0x013008    program     static C:\Documents and Settings\Administrator\My Documents\Alarm Controller\PIC Code\AES.c
                  __pa_15   0x013788    program     static C:\Documents and Settings\Administrator\My Documents\Alarm Controller\PIC Code\HTTPDynVariables.c
                  __pa_15   0x0084a4    program     static C:\Documents and Settings\Administrator\My Documents\Alarm Controller\PIC Code\SecuritySystem.c
                  __pa_15   0x014b28    program     static C:\Documents and Settings\Administrator\My Documents\Alarm Controller\Microchip\TCPIP Stack\UDP.c
                  __pa_15   0x012582    program     static C:\Documents and Settings\Administrator\My Documents\Alarm Controller\Microchip\TCPIP Stack\Helpers.c
                  __pa_15   0x00ecbe    program     static C:\Documents and Settings\Administrator\My Documents\Alarm Controller\PIC Code\HTTPForms.c
                  __pa_15   0x010c26    program     static C:\Documents and Settings\Administrator\My Documents\Alarm Controller\Microchip\TCPIP Stack\MPFS2.c
                  __pa_15   0x011836    program     static C:\Documents and Settings\Administrator\My Documents\Alarm Controller\PIC Code\Authenticate.c
                  __pa_15   0x00aba0    program     static C:\Documents and Settings\Administrator\My Documents\Alarm Controller\Microchip\TCPIP Stack\HTTP2.c
                  __pa_15   0x00c980    program     static C:\Documents and Settings\Administrator\My Documents\Alarm Controller\PIC Code\SMTP.c
                  __pa_15   0x015f70    program     static C:\Documents and Settings\Administrator\My Documents\Alarm Controller\PIC Code\SNTP Customised.c
                  __pa_15   0x002960    program     static C:\Documents and Settings\Administrator\My Documents\Alarm Controller\Microchip\TCPIP Stack\TCP.c
                  __pa_15   0x015204    program     static C:\Documents and Settings\Administrator\My Documents\Alarm Controller\PIC Code\EOL.c
                  __pa_15   0x00be6e    program     static C:\Documents and Settings\Administrator\My Documents\Alarm Controller\Microchip\TCPIP Stack\SMTP.c
                  __pa_15   0x015974    program     static C:\Documents and Settings\Administrator\My Documents\Alarm Controller\Microchip\TCPIP Stack\DNS.c
                 __pa_150   0x003132    program     static C:\Documents and Settings\Administrator\My Documents\Alarm Controller\Microchip\TCPIP Stack\TCP.c
                 __pa_151   0x003140    program     static C:\Documents and Settings\Administrator\My Documents\Alarm Controller\Microchip\TCPIP Stack\TCP.c
                 __pa_152   0x00314e    program     static C:\Documents and Settings\Administrator\My Documents\Alarm Controller\Microchip\TCPIP Stack\TCP.c
                 __pa_153   0x003154    program     static C:\Documents and Settings\Administrator\My Documents\Alarm Controller\Microchip\TCPIP Stack\TCP.c
                 __pa_154   0x00315e    program     static C:\Documents and Settings\Administrator\My Documents\Alarm Controller\Microchip\TCPIP Stack\TCP.c
                 __pa_155   0x003166    program     static C:\Documents and Settings\Administrator\My Documents\Alarm Controller\Microchip\TCPIP Stack\TCP.c
                 __pa_156   0x003170    program     static C:\Documents and Settings\Administrator\My Documents\Alarm Controller\Microchip\TCPIP Stack\TCP.c
                 __pa_157   0x00317a    program     static C:\Documents and Settings\Administrator\My Documents\Alarm Controller\Microchip\TCPIP Stack\TCP.c
                 __pa_158   0x003184    program     static C:\Documents and Settings\Administrator\My Documents\Alarm Controller\Microchip\TCPIP Stack\TCP.c
                 __pa_159   0x00318c    program     static C:\Documents and Settings\Administrator\My Documents\Alarm Controller\Microchip\TCPIP Stack\TCP.c
                  __pa_16   0x014b32    program     static C:\Documents and Settings\Administrator\My Documents\Alarm Controller\Microchip\TCPIP Stack\UDP.c
                  __pa_16   0x00ecdc    program     static C:\Documents and Settings\Administrator\My Documents\Alarm Controller\PIC Code\HTTPForms.c
                  __pa_16   0x0084b6    program     static C:\Documents and Settings\Administrator\My Documents\Alarm Controller\PIC Code\SecuritySystem.c
                  __pa_16   0x015982    program     static C:\Documents and Settings\Administrator\My Documents\Alarm Controller\Microchip\TCPIP Stack\DNS.c
                  __pa_16   0x00c994    program     static C:\Documents and Settings\Administrator\My Documents\Alarm Controller\PIC Code\SMTP.c
                  __pa_16   0x00da42    program     static C:\Documents and Settings\Administrator\My Documents\Alarm Controller\PIC Code\SecurityXPLSender.c
                  __pa_16   0x01300e    program     static C:\Documents and Settings\Administrator\My Documents\Alarm Controller\PIC Code\AES.c
                  __pa_16   0x010c32    program     static C:\Documents and Settings\Administrator\My Documents\Alarm Controller\Microchip\TCPIP Stack\MPFS2.c
                  __pa_16   0x00fe12    program     static C:\Documents and Settings\Administrator\My Documents\Alarm Controller\PIC Code\xPL.c
                  __pa_16   0x015218    program     static C:\Documents and Settings\Administrator\My Documents\Alarm Controller\PIC Code\EOL.c
                  __pa_16   0x00be82    program     static C:\Documents and Settings\Administrator\My Documents\Alarm Controller\Microchip\TCPIP Stack\SMTP.c
                  __pa_16   0x0137ae    program     static C:\Documents and Settings\Administrator\My Documents\Alarm Controller\PIC Code\HTTPDynVariables.c
                  __pa_16   0x015f80    program     static C:\Documents and Settings\Administrator\My Documents\Alarm Controller\PIC Code\SNTP Customised.c
                  __pa_16   0x00296a    program     static C:\Documents and Settings\Administrator\My Documents\Alarm Controller\Microchip\TCPIP Stack\TCP.c
                  __pa_16   0x011844    program     static C:\Documents and Settings\Administrator\My Documents\Alarm Controller\PIC Code\Authenticate.c
                  __pa_16   0x00aba6    program     static C:\Documents and Settings\Administrator\My Documents\Alarm Controller\Microchip\TCPIP Stack\HTTP2.c
                 __pa_160   0x00319a    program     static C:\Documents and Settings\Administrator\My Documents\Alarm Controller\Microchip\TCPIP Stack\TCP.c
                 __pa_161   0x0031aa    program     static C:\Documents and Settings\Administrator\My Documents\Alarm Controller\Microchip\TCPIP Stack\TCP.c
                 __pa_162   0x0031b0    program     static C:\Documents and Settings\Administrator\My Documents\Alarm Controller\Microchip\TCPIP Stack\TCP.c
                 __pa_163   0x0031bc    program     static C:\Documents and Settings\Administrator\My Documents\Alarm Controller\Microchip\TCPIP Stack\TCP.c
                 __pa_164   0x0031c4    program     static C:\Documents and Settings\Administrator\My Documents\Alarm Controller\Microchip\TCPIP Stack\TCP.c
                 __pa_165   0x0031cc    program     static C:\Documents and Settings\Administrator\My Documents\Alarm Controller\Microchip\TCPIP Stack\TCP.c
                 __pa_166   0x0031d6    program     static C:\Documents and Settings\Administrator\My Documents\Alarm Controller\Microchip\TCPIP Stack\TCP.c
                 __pa_167   0x0031e2    program     static C:\Documents and Settings\Administrator\My Documents\Alarm Controller\Microchip\TCPIP Stack\TCP.c
                 __pa_168   0x0031e8    program     static C:\Documents and Settings\Administrator\My Documents\Alarm Controller\Microchip\TCPIP Stack\TCP.c
                 __pa_169   0x0031f0    program     static C:\Documents and Settings\Administrator\My Documents\Alarm Controller\Microchip\TCPIP Stack\TCP.c
                  __pa_17   0x00abb6    program     static C:\Documents and Settings\Administrator\My Documents\Alarm Controller\Microchip\TCPIP Stack\HTTP2.c
                  __pa_17   0x011860    program     static C:\Documents and Settings\Administrator\My Documents\Alarm Controller\PIC Code\Authenticate.c
                  __pa_17   0x002984    program     static C:\Documents and Settings\Administrator\My Documents\Alarm Controller\Microchip\TCPIP Stack\TCP.c
                  __pa_17   0x0137b8    program     static C:\Documents and Settings\Administrator\My Documents\Alarm Controller\PIC Code\HTTPDynVariables.c
                  __pa_17   0x00be8c    program     static C:\Documents and Settings\Administrator\My Documents\Alarm Controller\Microchip\TCPIP Stack\SMTP.c
                  __pa_17   0x00fe20    program     static C:\Documents and Settings\Administrator\My Documents\Alarm Controller\PIC Code\xPL.c
                  __pa_17   0x010c3e    program     static C:\Documents and Settings\Administrator\My Documents\Alarm Controller\Microchip\TCPIP Stack\MPFS2.c
                  __pa_17   0x013016    program     static C:\Documents and Settings\Administrator\My Documents\Alarm Controller\PIC Code\AES.c
                  __pa_17   0x014b3c    program     static C:\Documents and Settings\Administrator\My Documents\Alarm Controller\Microchip\TCPIP Stack\UDP.c
                  __pa_17   0x015226    program     static C:\Documents and Settings\Administrator\My Documents\Alarm Controller\PIC Code\EOL.c
                  __pa_17   0x00da4e    program     static C:\Documents and Settings\Administrator\My Documents\Alarm Controller\PIC Code\SecurityXPLSender.c
                  __pa_17   0x00ecea    program     static C:\Documents and Settings\Administrator\My Documents\Alarm Controller\PIC Code\HTTPForms.c
                  __pa_17   0x0084c2    program     static C:\Documents and Settings\Administrator\My Documents\Alarm Controller\PIC Code\SecuritySystem.c
                  __pa_17   0x00c9a6    program     static C:\Documents and Settings\Administrator\My Documents\Alarm Controller\PIC Code\SMTP.c
                  __pa_17   0x01598a    program     static C:\Documents and Settings\Administrator\My Documents\Alarm Controller\Microchip\TCPIP Stack\DNS.c
                  __pa_17   0x015f92    program     static C:\Documents and Settings\Administrator\My Documents\Alarm Controller\PIC Code\SNTP Customised.c
                  __pa_18   0x015234    program     static C:\Documents and Settings\Administrator\My Documents\Alarm Controller\PIC Code\EOL.c
                  __pa_18   0x0137c0    program     static C:\Documents and Settings\Administrator\My Documents\Alarm Controller\PIC Code\HTTPDynVariables.c
                  __pa_18   0x015fa0    program     static C:\Documents and Settings\Administrator\My Documents\Alarm Controller\PIC Code\SNTP Customised.c
                  __pa_18   0x01186a    program     static C:\Documents and Settings\Administrator\My Documents\Alarm Controller\PIC Code\Authenticate.c
                  __pa_18   0x00ecf6    program     static C:\Documents and Settings\Administrator\My Documents\Alarm Controller\PIC Code\HTTPForms.c
                  __pa_18   0x0029aa    program     static C:\Documents and Settings\Administrator\My Documents\Alarm Controller\Microchip\TCPIP Stack\TCP.c
                  __pa_18   0x00beaa    program     static C:\Documents and Settings\Administrator\My Documents\Alarm Controller\Microchip\TCPIP Stack\SMTP.c
                  __pa_18   0x013040    program     static C:\Documents and Settings\Administrator\My Documents\Alarm Controller\PIC Code\AES.c
                  __pa_18   0x010c46    program     static C:\Documents and Settings\Administrator\My Documents\Alarm Controller\Microchip\TCPIP Stack\MPFS2.c
                  __pa_18   0x0084d8    program     static C:\Documents and Settings\Administrator\My Documents\Alarm Controller\PIC Code\SecuritySystem.c
                  __pa_18   0x015990    program     static C:\Documents and Settings\Administrator\My Documents\Alarm Controller\Microchip\TCPIP Stack\DNS.c
                  __pa_18   0x00da88    program     static C:\Documents and Settings\Administrator\My Documents\Alarm Controller\PIC Code\SecurityXPLSender.c
                  __pa_18   0x00fe2c    program     static C:\Documents and Settings\Administrator\My Documents\Alarm Controller\PIC Code\xPL.c
                  __pa_18   0x00c9b0    program     static C:\Documents and Settings\Administrator\My Documents\Alarm Controller\PIC Code\SMTP.c
                  __pa_18   0x014b46    program     static C:\Documents and Settings\Administrator\My Documents\Alarm Controller\Microchip\TCPIP Stack\UDP.c
                  __pa_18   0x00abbc    program     static C:\Documents and Settings\Administrator\My Documents\Alarm Controller\Microchip\TCPIP Stack\HTTP2.c
                  __pa_19   0x0084e2    program     static C:\Documents and Settings\Administrator\My Documents\Alarm Controller\PIC Code\SecuritySystem.c
                  __pa_19   0x00da92    program     static C:\Documents and Settings\Administrator\My Documents\Alarm Controller\PIC Code\SecurityXPLSender.c
                  __pa_19   0x013064    program     static C:\Documents and Settings\Administrator\My Documents\Alarm Controller\PIC Code\AES.c
                  __pa_19   0x015244    program     static C:\Documents and Settings\Administrator\My Documents\Alarm Controller\PIC Code\EOL.c
                  __pa_19   0x00bebc    program     static C:\Documents and Settings\Administrator\My Documents\Alarm Controller\Microchip\TCPIP Stack\SMTP.c
                  __pa_19   0x00fe38    program     static C:\Documents and Settings\Administrator\My Documents\Alarm Controller\PIC Code\xPL.c
                  __pa_19   0x0029c0    program     static C:\Documents and Settings\Administrator\My Documents\Alarm Controller\Microchip\TCPIP Stack\TCP.c
                  __pa_19   0x015fa8    program     static C:\Documents and Settings\Administrator\My Documents\Alarm Controller\PIC Code\SNTP Customised.c
                  __pa_19   0x00abc4    program     static C:\Documents and Settings\Administrator\My Documents\Alarm Controller\Microchip\TCPIP Stack\HTTP2.c
                  __pa_19   0x014b64    program     static C:\Documents and Settings\Administrator\My Documents\Alarm Controller\Microchip\TCPIP Stack\UDP.c
                  __pa_19   0x00c9b8    program     static C:\Documents and Settings\Administrator\My Documents\Alarm Controller\PIC Code\SMTP.c
                  __pa_19   0x010c54    program     static C:\Documents and Settings\Administrator\My Documents\Alarm Controller\Microchip\TCPIP Stack\MPFS2.c
                  __pa_19   0x0137de    program     static C:\Documents and Settings\Administrator\My Documents\Alarm Controller\PIC Code\HTTPDynVariables.c
                  __pa_19   0x011882    program     static C:\Documents and Settings\Administrator\My Documents\Alarm Controller\PIC Code\Authenticate.c
                  __pa_19   0x00ecfa    program     static C:\Documents and Settings\Administrator\My Documents\Alarm Controller\PIC Code\HTTPForms.c
                   __pa_2   0x015124    program     static C:\Documents and Settings\Administrator\My Documents\Alarm Controller\PIC Code\EOL.c
                   __pa_2   0x018a16    program     static C:\Documents and Settings\Administrator\My Documents\Alarm Controller\Microchip\TCPIP Stack\SPIEEPROM.c
                   __pa_2   0x0187de    program     static C:\Documents and Settings\Administrator\My Documents\Alarm Controller\Microchip\TCPIP Stack\IP.c
                   __pa_2   0x0185ac    program     static C:\Documents and Settings\Administrator\My Documents\Alarm Controller\Microchip\TCPIP Stack\LCDBlocking.c
                   __pa_2   0x00aab6    program     static C:\Documents and Settings\Administrator\My Documents\Alarm Controller\Microchip\TCPIP Stack\HTTP2.c
                   __pa_2   0x0124b4    program     static C:\Documents and Settings\Administrator\My Documents\Alarm Controller\Microchip\TCPIP Stack\Helpers.c
                   __pa_2   0x00d958    program     static C:\Documents and Settings\Administrator\My Documents\Alarm Controller\PIC Code\SecurityXPLSender.c
                   __pa_2   0x0142fc    program     static C:\Documents and Settings\Administrator\My Documents\Alarm Controller\Microchip\TCPIP Stack\ETH97J60.c
                   __pa_2   0x010b48    program     static C:\Documents and Settings\Administrator\My Documents\Alarm Controller\Microchip\TCPIP Stack\MPFS2.c
                   __pa_2   0x018b7e    program     static C:\Documents and Settings\Administrator\My Documents\Alarm Controller\Microchip\TCPIP Stack\UART.c
                   __pa_2   0x015eca    program     static C:\Documents and Settings\Administrator\My Documents\Alarm Controller\PIC Code\SNTP Customised.c
                   __pa_2   0x01fef2    program     static C:\Documents and Settings\Administrator\My Documents\Alarm Controller\PIC Code\Battery.c
                   __pa_2   0x00c8da    program     static C:\Documents and Settings\Administrator\My Documents\Alarm Controller\PIC Code\SMTP.c
                   __pa_2   0x0158a6    program     static C:\Documents and Settings\Administrator\My Documents\Alarm Controller\Microchip\TCPIP Stack\DNS.c
                   __pa_2   0x00fce4    program     static C:\Documents and Settings\Administrator\My Documents\Alarm Controller\PIC Code\xPL.c
                   __pa_2   0x0083d4    program     static C:\Documents and Settings\Administrator\My Documents\Alarm Controller\PIC Code\SecuritySystem.c
                   __pa_2   0x0027e2    program     static C:\Documents and Settings\Administrator\My Documents\Alarm Controller\Microchip\TCPIP Stack\TCP.c
                   __pa_2   0x014a76    program     static C:\Documents and Settings\Administrator\My Documents\Alarm Controller\Microchip\TCPIP Stack\UDP.c
                   __pa_2   0x01783c    program     static C:\Documents and Settings\Administrator\My Documents\Alarm Controller\PIC Code\MainDemo.c
                   __pa_2   0x0136f6    program     static C:\Documents and Settings\Administrator\My Documents\Alarm Controller\PIC Code\HTTPDynVariables.c
                   __pa_2   0x01831a    program     static C:\Documents and Settings\Administrator\My Documents\Alarm Controller\Microchip\TCPIP Stack\NBNS.c
                   __pa_2   0x011732    program     static C:\Documents and Settings\Administrator\My Documents\Alarm Controller\PIC Code\Authenticate.c
                   __pa_2   0x00bd5c    program     static C:\Documents and Settings\Administrator\My Documents\Alarm Controller\Microchip\TCPIP Stack\SMTP.c
                   __pa_2   0x017c5a    program     static C:\Documents and Settings\Administrator\My Documents\Alarm Controller\Microchip\TCPIP Stack\ARP.c
                   __pa_2   0x00ebec    program     static C:\Documents and Settings\Administrator\My Documents\Alarm Controller\PIC Code\HTTPForms.c
                   __pa_2   0x012f94    program     static C:\Documents and Settings\Administrator\My Documents\Alarm Controller\PIC Code\AES.c
                  __pa_20   0x014b72    program     static C:\Documents and Settings\Administrator\My Documents\Alarm Controller\Microchip\TCPIP Stack\UDP.c
                  __pa_20   0x00da9e    program     static C:\Documents and Settings\Administrator\My Documents\Alarm Controller\PIC Code\SecurityXPLSender.c
                  __pa_20   0x00abce    program     static C:\Documents and Settings\Administrator\My Documents\Alarm Controller\Microchip\TCPIP Stack\HTTP2.c
                  __pa_20   0x0137fc    program     static C:\Documents and Settings\Administrator\My Documents\Alarm Controller\PIC Code\HTTPDynVariables.c
                  __pa_20   0x0029c8    program     static C:\Documents and Settings\Administrator\My Documents\Alarm Controller\Microchip\TCPIP Stack\TCP.c
                  __pa_20   0x0084ec    program     static C:\Documents and Settings\Administrator\My Documents\Alarm Controller\PIC Code\SecuritySystem.c
                  __pa_20   0x00fe42    program     static C:\Documents and Settings\Administrator\My Documents\Alarm Controller\PIC Code\xPL.c
                  __pa_20   0x01307e    program     static C:\Documents and Settings\Administrator\My Documents\Alarm Controller\PIC Code\AES.c
                  __pa_20   0x00bec8    program     static C:\Documents and Settings\Administrator\My Documents\Alarm Controller\Microchip\TCPIP Stack\SMTP.c
                  __pa_20   0x00ed08    program     static C:\Documents and Settings\Administrator\My Documents\Alarm Controller\PIC Code\HTTPForms.c
                  __pa_20   0x015250    program     static C:\Documents and Settings\Administrator\My Documents\Alarm Controller\PIC Code\EOL.c
                  __pa_20   0x010c5e    program     static C:\Documents and Settings\Administrator\My Documents\Alarm Controller\Microchip\TCPIP Stack\MPFS2.c
                  __pa_20   0x00c9c0    program     static C:\Documents and Settings\Administrator\My Documents\Alarm Controller\PIC Code\SMTP.c
                  __pa_20   0x011898    program     static C:\Documents and Settings\Administrator\My Documents\Alarm Controller\PIC Code\Authenticate.c
                  __pa_21   0x00ed12    program     static C:\Documents and Settings\Administrator\My Documents\Alarm Controller\PIC Code\HTTPForms.c
                  __pa_21   0x01525c    program     static C:\Documents and Settings\Administrator\My Documents\Alarm Controller\PIC Code\EOL.c
                  __pa_21   0x00bed4    program     static C:\Documents and Settings\Administrator\My Documents\Alarm Controller\Microchip\TCPIP Stack\SMTP.c
                  __pa_21   0x010c72    program     static C:\Documents and Settings\Administrator\My Documents\Alarm Controller\Microchip\TCPIP Stack\MPFS2.c
                  __pa_21   0x0084f4    program     static C:\Documents and Settings\Administrator\My Documents\Alarm Controller\PIC Code\SecuritySystem.c
                  __pa_21   0x00abde    program     static C:\Documents and Settings\Administrator\My Documents\Alarm Controller\Microchip\TCPIP Stack\HTTP2.c
                  __pa_21   0x00c9c8    program     static C:\Documents and Settings\Administrator\My Documents\Alarm Controller\PIC Code\SMTP.c
                  __pa_21   0x014b7c    program     static C:\Documents and Settings\Administrator\My Documents\Alarm Controller\Microchip\TCPIP Stack\UDP.c
                  __pa_21   0x00daaa    program     static C:\Documents and Settings\Administrator\My Documents\Alarm Controller\PIC Code\SecurityXPLSender.c
                  __pa_21   0x00fe5e    program     static C:\Documents and Settings\Administrator\My Documents\Alarm Controller\PIC Code\xPL.c
                  __pa_21   0x0118a2    program     static C:\Documents and Settings\Administrator\My Documents\Alarm Controller\PIC Code\Authenticate.c
                  __pa_21   0x0029d0    program     static C:\Documents and Settings\Administrator\My Documents\Alarm Controller\Microchip\TCPIP Stack\TCP.c
                  __pa_21   0x013806    program     static C:\Documents and Settings\Administrator\My Documents\Alarm Controller\PIC Code\HTTPDynVariables.c
                  __pa_22   0x014b86    program     static C:\Documents and Settings\Administrator\My Documents\Alarm Controller\Microchip\TCPIP Stack\UDP.c
                  __pa_22   0x00c9d0    program     static C:\Documents and Settings\Administrator\My Documents\Alarm Controller\PIC Code\SMTP.c
                  __pa_22   0x0118aa    program     static C:\Documents and Settings\Administrator\My Documents\Alarm Controller\PIC Code\Authenticate.c
                  __pa_22   0x010c86    program     static C:\Documents and Settings\Administrator\My Documents\Alarm Controller\Microchip\TCPIP Stack\MPFS2.c
                  __pa_22   0x015268    program     static C:\Documents and Settings\Administrator\My Documents\Alarm Controller\PIC Code\EOL.c
                  __pa_22   0x00ed1e    program     static C:\Documents and Settings\Administrator\My Documents\Alarm Controller\PIC Code\HTTPForms.c
                  __pa_22   0x01380c    program     static C:\Documents and Settings\Administrator\My Documents\Alarm Controller\PIC Code\HTTPDynVariables.c
                  __pa_22   0x00bee6    program     static C:\Documents and Settings\Administrator\My Documents\Alarm Controller\Microchip\TCPIP Stack\SMTP.c
                  __pa_22   0x0029ea    program     static C:\Documents and Settings\Administrator\My Documents\Alarm Controller\Microchip\TCPIP Stack\TCP.c
                  __pa_22   0x00dab0    program     static C:\Documents and Settings\Administrator\My Documents\Alarm Controller\PIC Code\SecurityXPLSender.c
                  __pa_22   0x00fe6a    program     static C:\Documents and Settings\Administrator\My Documents\Alarm Controller\PIC Code\xPL.c
                  __pa_22   0x00abee    program     static C:\Documents and Settings\Administrator\My Documents\Alarm Controller\Microchip\TCPIP Stack\HTTP2.c
                  __pa_22   0x008508    program     static C:\Documents and Settings\Administrator\My Documents\Alarm Controller\PIC Code\SecuritySystem.c
                  __pa_23   0x00daba    program     static C:\Documents and Settings\Administrator\My Documents\Alarm Controller\PIC Code\SecurityXPLSender.c
                  __pa_23   0x00c9e2    program     static C:\Documents and Settings\Administrator\My Documents\Alarm Controller\PIC Code\SMTP.c
                  __pa_23   0x002a06    program     static C:\Documents and Settings\Administrator\My Documents\Alarm Controller\Microchip\TCPIP Stack\TCP.c
                  __pa_23   0x0118bc    program     static C:\Documents and Settings\Administrator\My Documents\Alarm Controller\PIC Code\Authenticate.c
                  __pa_23   0x010c98    program     static C:\Documents and Settings\Administrator\My Documents\Alarm Controller\Microchip\TCPIP Stack\MPFS2.c
                  __pa_23   0x014b96    program     static C:\Documents and Settings\Administrator\My Documents\Alarm Controller\Microchip\TCPIP Stack\UDP.c
                  __pa_23   0x00fe76    program     static C:\Documents and Settings\Administrator\My Documents\Alarm Controller\PIC Code\xPL.c
                  __pa_23   0x00ac02    program     static C:\Documents and Settings\Administrator\My Documents\Alarm Controller\Microchip\TCPIP Stack\HTTP2.c
                  __pa_23   0x015272    program     static C:\Documents and Settings\Administrator\My Documents\Alarm Controller\PIC Code\EOL.c
                  __pa_23   0x00ed2a    program     static C:\Documents and Settings\Administrator\My Documents\Alarm Controller\PIC Code\HTTPForms.c
                  __pa_23   0x008518    program     static C:\Documents and Settings\Administrator\My Documents\Alarm Controller\PIC Code\SecuritySystem.c
                  __pa_23   0x013816    program     static C:\Documents and Settings\Administrator\My Documents\Alarm Controller\PIC Code\HTTPDynVariables.c
                  __pa_23   0x00bf00    program     static C:\Documents and Settings\Administrator\My Documents\Alarm Controller\Microchip\TCPIP Stack\SMTP.c
                  __pa_24   0x00c9ea    program     static C:\Documents and Settings\Administrator\My Documents\Alarm Controller\PIC Code\SMTP.c
                  __pa_24   0x015282    program     static C:\Documents and Settings\Administrator\My Documents\Alarm Controller\PIC Code\EOL.c
                  __pa_24   0x00dac4    program     static C:\Documents and Settings\Administrator\My Documents\Alarm Controller\PIC Code\SecurityXPLSender.c
                  __pa_24   0x00bf0a    program     static C:\Documents and Settings\Administrator\My Documents\Alarm Controller\Microchip\TCPIP Stack\SMTP.c
                  __pa_24   0x0118c8    program     static C:\Documents and Settings\Administrator\My Documents\Alarm Controller\PIC Code\Authenticate.c
                  __pa_24   0x002a1a    program     static C:\Documents and Settings\Administrator\My Documents\Alarm Controller\Microchip\TCPIP Stack\TCP.c
                  __pa_24   0x008520    program     static C:\Documents and Settings\Administrator\My Documents\Alarm Controller\PIC Code\SecuritySystem.c
                  __pa_24   0x010caa    program     static C:\Documents and Settings\Administrator\My Documents\Alarm Controller\Microchip\TCPIP Stack\MPFS2.c
                  __pa_24   0x014ba0    program     static C:\Documents and Settings\Administrator\My Documents\Alarm Controller\Microchip\TCPIP Stack\UDP.c
                  __pa_24   0x00fe80    program     static C:\Documents and Settings\Administrator\My Documents\Alarm Controller\PIC Code\xPL.c
                  __pa_24   0x01382a    program     static C:\Documents and Settings\Administrator\My Documents\Alarm Controller\PIC Code\HTTPDynVariables.c
                  __pa_24   0x00ed40    program     static C:\Documents and Settings\Administrator\My Documents\Alarm Controller\PIC Code\HTTPForms.c
                  __pa_24   0x00ac16    program     static C:\Documents and Settings\Administrator\My Documents\Alarm Controller\Microchip\TCPIP Stack\HTTP2.c
                  __pa_25   0x00ac20    program     static C:\Documents and Settings\Administrator\My Documents\Alarm Controller\Microchip\TCPIP Stack\HTTP2.c
                  __pa_25   0x00fe8c    program     static C:\Documents and Settings\Administrator\My Documents\Alarm Controller\PIC Code\xPL.c
                  __pa_25   0x014ba8    program     static C:\Documents and Settings\Administrator\My Documents\Alarm Controller\Microchip\TCPIP Stack\UDP.c
                  __pa_25   0x00c9f2    program     static C:\Documents and Settings\Administrator\My Documents\Alarm Controller\PIC Code\SMTP.c
                  __pa_25   0x01383c    program     static C:\Documents and Settings\Administrator\My Documents\Alarm Controller\PIC Code\HTTPDynVariables.c
                  __pa_25   0x01528c    program     static C:\Documents and Settings\Administrator\My Documents\Alarm Controller\PIC Code\EOL.c
                  __pa_25   0x010cbc    program     static C:\Documents and Settings\Administrator\My Documents\Alarm Controller\Microchip\TCPIP Stack\MPFS2.c
                  __pa_25   0x0118d2    program     static C:\Documents and Settings\Administrator\My Documents\Alarm Controller\PIC Code\Authenticate.c
                  __pa_25   0x002a2e    program     static C:\Documents and Settings\Administrator\My Documents\Alarm Controller\Microchip\TCPIP Stack\TCP.c
                  __pa_25   0x00dace    program     static C:\Documents and Settings\Administrator\My Documents\Alarm Controller\PIC Code\SecurityXPLSender.c
                  __pa_25   0x008532    program     static C:\Documents and Settings\Administrator\My Documents\Alarm Controller\PIC Code\SecuritySystem.c
                  __pa_25   0x00ed46    program     static C:\Documents and Settings\Administrator\My Documents\Alarm Controller\PIC Code\HTTPForms.c
                  __pa_25   0x00bf14    program     static C:\Documents and Settings\Administrator\My Documents\Alarm Controller\Microchip\TCPIP Stack\SMTP.c
                  __pa_26   0x00fe94    program     static C:\Documents and Settings\Administrator\My Documents\Alarm Controller\PIC Code\xPL.c
                  __pa_26   0x0118dc    program     static C:\Documents and Settings\Administrator\My Documents\Alarm Controller\PIC Code\Authenticate.c
                  __pa_26   0x01384e    program     static C:\Documents and Settings\Administrator\My Documents\Alarm Controller\PIC Code\HTTPDynVariables.c
                  __pa_26   0x002a42    program     static C:\Documents and Settings\Administrator\My Documents\Alarm Controller\Microchip\TCPIP Stack\TCP.c
                  __pa_26   0x00dad8    program     static C:\Documents and Settings\Administrator\My Documents\Alarm Controller\PIC Code\SecurityXPLSender.c
                  __pa_26   0x008538    program     static C:\Documents and Settings\Administrator\My Documents\Alarm Controller\PIC Code\SecuritySystem.c
                  __pa_26   0x00ac34    program     static C:\Documents and Settings\Administrator\My Documents\Alarm Controller\Microchip\TCPIP Stack\HTTP2.c
                  __pa_26   0x01529a    program     static C:\Documents and Settings\Administrator\My Documents\Alarm Controller\PIC Code\EOL.c
                  __pa_26   0x00c9fa    program     static C:\Documents and Settings\Administrator\My Documents\Alarm Controller\PIC Code\SMTP.c
                  __pa_26   0x010cce    program     static C:\Documents and Settings\Administrator\My Documents\Alarm Controller\Microchip\TCPIP Stack\MPFS2.c
                  __pa_26   0x00bf20    program     static C:\Documents and Settings\Administrator\My Documents\Alarm Controller\Microchip\TCPIP Stack\SMTP.c
                  __pa_26   0x00ed4e    program     static C:\Documents and Settings\Administrator\My Documents\Alarm Controller\PIC Code\HTTPForms.c
                  __pa_26   0x014bb2    program     static C:\Documents and Settings\Administrator\My Documents\Alarm Controller\Microchip\TCPIP Stack\UDP.c
                  __pa_27   0x002a52    program     static C:\Documents and Settings\Administrator\My Documents\Alarm Controller\Microchip\TCPIP Stack\TCP.c
                  __pa_27   0x00ca0e    program     static C:\Documents and Settings\Administrator\My Documents\Alarm Controller\PIC Code\SMTP.c
                  __pa_27   0x01385a    program     static C:\Documents and Settings\Administrator\My Documents\Alarm Controller\PIC Code\HTTPDynVariables.c
                  __pa_27   0x008540    program     static C:\Documents and Settings\Administrator\My Documents\Alarm Controller\PIC Code\SecuritySystem.c
                  __pa_27   0x0118e4    program     static C:\Documents and Settings\Administrator\My Documents\Alarm Controller\PIC Code\Authenticate.c
                  __pa_27   0x00daec    program     static C:\Documents and Settings\Administrator\My Documents\Alarm Controller\PIC Code\SecurityXPLSender.c
                  __pa_27   0x010ce0    program     static C:\Documents and Settings\Administrator\My Documents\Alarm Controller\Microchip\TCPIP Stack\MPFS2.c
                  __pa_27   0x00ed58    program     static C:\Documents and Settings\Administrator\My Documents\Alarm Controller\PIC Code\HTTPForms.c
                  __pa_27   0x00ac3a    program     static C:\Documents and Settings\Administrator\My Documents\Alarm Controller\Microchip\TCPIP Stack\HTTP2.c
                  __pa_27   0x00fe9e    program     static C:\Documents and Settings\Administrator\My Documents\Alarm Controller\PIC Code\xPL.c
                  __pa_27   0x00bf36    program     static C:\Documents and Settings\Administrator\My Documents\Alarm Controller\Microchip\TCPIP Stack\SMTP.c
                  __pa_27   0x0152a0    program     static C:\Documents and Settings\Administrator\My Documents\Alarm Controller\PIC Code\EOL.c
                  __pa_28   0x013866    program     static C:\Documents and Settings\Administrator\My Documents\Alarm Controller\PIC Code\HTTPDynVariables.c
                  __pa_28   0x00feb2    program     static C:\Documents and Settings\Administrator\My Documents\Alarm Controller\PIC Code\xPL.c
                  __pa_28   0x010cf2    program     static C:\Documents and Settings\Administrator\My Documents\Alarm Controller\Microchip\TCPIP Stack\MPFS2.c
                  __pa_28   0x0118f2    program     static C:\Documents and Settings\Administrator\My Documents\Alarm Controller\PIC Code\Authenticate.c
                  __pa_28   0x002a7e    program     static C:\Documents and Settings\Administrator\My Documents\Alarm Controller\Microchip\TCPIP Stack\TCP.c
                  __pa_28   0x008566    program     static C:\Documents and Settings\Administrator\My Documents\Alarm Controller\PIC Code\SecuritySystem.c
                  __pa_28   0x00ca18    program     static C:\Documents and Settings\Administrator\My Documents\Alarm Controller\PIC Code\SMTP.c
                  __pa_28   0x00ed62    program     static C:\Documents and Settings\Administrator\My Documents\Alarm Controller\PIC Code\HTTPForms.c
                  __pa_28   0x00db0a    program     static C:\Documents and Settings\Administrator\My Documents\Alarm Controller\PIC Code\SecurityXPLSender.c
                  __pa_28   0x00ac44    program     static C:\Documents and Settings\Administrator\My Documents\Alarm Controller\Microchip\TCPIP Stack\HTTP2.c
                  __pa_28   0x00bf42    program     static C:\Documents and Settings\Administrator\My Documents\Alarm Controller\Microchip\TCPIP Stack\SMTP.c
                  __pa_28   0x0152aa    program     static C:\Documents and Settings\Administrator\My Documents\Alarm Controller\PIC Code\EOL.c
                  __pa_29   0x00febc    program     static C:\Documents and Settings\Administrator\My Documents\Alarm Controller\PIC Code\xPL.c
                  __pa_29   0x00856e    program     static C:\Documents and Settings\Administrator\My Documents\Alarm Controller\PIC Code\SecuritySystem.c
                  __pa_29   0x00bf58    program     static C:\Documents and Settings\Administrator\My Documents\Alarm Controller\Microchip\TCPIP Stack\SMTP.c
                  __pa_29   0x00db26    program     static C:\Documents and Settings\Administrator\My Documents\Alarm Controller\PIC Code\SecurityXPLSender.c
                  __pa_29   0x00ed6e    program     static C:\Documents and Settings\Administrator\My Documents\Alarm Controller\PIC Code\HTTPForms.c
                  __pa_29   0x010cfe    program     static C:\Documents and Settings\Administrator\My Documents\Alarm Controller\Microchip\TCPIP Stack\MPFS2.c
                  __pa_29   0x002a96    program     static C:\Documents and Settings\Administrator\My Documents\Alarm Controller\Microchip\TCPIP Stack\TCP.c
                  __pa_29   0x00ca20    program     static C:\Documents and Settings\Administrator\My Documents\Alarm Controller\PIC Code\SMTP.c
                  __pa_29   0x0152ba    program     static C:\Documents and Settings\Administrator\My Documents\Alarm Controller\PIC Code\EOL.c
                  __pa_29   0x013870    program     static C:\Documents and Settings\Administrator\My Documents\Alarm Controller\PIC Code\HTTPDynVariables.c
                  __pa_29   0x00ac4a    program     static C:\Documents and Settings\Administrator\My Documents\Alarm Controller\Microchip\TCPIP Stack\HTTP2.c
                  __pa_29   0x0118fc    program     static C:\Documents and Settings\Administrator\My Documents\Alarm Controller\PIC Code\Authenticate.c
                   __pa_3   0x00bd64    program     static C:\Documents and Settings\Administrator\My Documents\Alarm Controller\Microchip\TCPIP Stack\SMTP.c
                   __pa_3   0x00ec0a    program     static C:\Documents and Settings\Administrator\My Documents\Alarm Controller\PIC Code\HTTPForms.c
                   __pa_3   0x013706    program     static C:\Documents and Settings\Administrator\My Documents\Alarm Controller\PIC Code\HTTPDynVariables.c
                   __pa_3   0x017c64    program     static C:\Documents and Settings\Administrator\My Documents\Alarm Controller\Microchip\TCPIP Stack\ARP.c
                   __pa_3   0x01832a    program     static C:\Documents and Settings\Administrator\My Documents\Alarm Controller\Microchip\TCPIP Stack\NBNS.c
                   __pa_3   0x0083e2    program     static C:\Documents and Settings\Administrator\My Documents\Alarm Controller\PIC Code\SecuritySystem.c
                   __pa_3   0x00aac6    program     static C:\Documents and Settings\Administrator\My Documents\Alarm Controller\Microchip\TCPIP Stack\HTTP2.c
                   __pa_3   0x0158ac    program     static C:\Documents and Settings\Administrator\My Documents\Alarm Controller\Microchip\TCPIP Stack\DNS.c
                   __pa_3   0x00c8e6    program     static C:\Documents and Settings\Administrator\My Documents\Alarm Controller\PIC Code\SMTP.c
                   __pa_3   0x010b5e    program     static C:\Documents and Settings\Administrator\My Documents\Alarm Controller\Microchip\TCPIP Stack\MPFS2.c
                   __pa_3   0x01431c    program     static C:\Documents and Settings\Administrator\My Documents\Alarm Controller\Microchip\TCPIP Stack\ETH97J60.c
                   __pa_3   0x0185b6    program     static C:\Documents and Settings\Administrator\My Documents\Alarm Controller\Microchip\TCPIP Stack\LCDBlocking.c
                   __pa_3   0x0187f2    program     static C:\Documents and Settings\Administrator\My Documents\Alarm Controller\Microchip\TCPIP Stack\IP.c
                   __pa_3   0x0124c4    program     static C:\Documents and Settings\Administrator\My Documents\Alarm Controller\Microchip\TCPIP Stack\Helpers.c
                   __pa_3   0x01fefc    program     static C:\Documents and Settings\Administrator\My Documents\Alarm Controller\PIC Code\Battery.c
                   __pa_3   0x015134    program     static C:\Documents and Settings\Administrator\My Documents\Alarm Controller\PIC Code\EOL.c
                   __pa_3   0x012f9c    program     static C:\Documents and Settings\Administrator\My Documents\Alarm Controller\PIC Code\AES.c
                   __pa_3   0x00fcf0    program     static C:\Documents and Settings\Administrator\My Documents\Alarm Controller\PIC Code\xPL.c
                   __pa_3   0x015ede    program     static C:\Documents and Settings\Administrator\My Documents\Alarm Controller\PIC Code\SNTP Customised.c
                   __pa_3   0x01784c    program     static C:\Documents and Settings\Administrator\My Documents\Alarm Controller\PIC Code\MainDemo.c
                   __pa_3   0x01173a    program     static C:\Documents and Settings\Administrator\My Documents\Alarm Controller\PIC Code\Authenticate.c
                   __pa_3   0x00280a    program     static C:\Documents and Settings\Administrator\My Documents\Alarm Controller\Microchip\TCPIP Stack\TCP.c
                   __pa_3   0x018a26    program     static C:\Documents and Settings\Administrator\My Documents\Alarm Controller\Microchip\TCPIP Stack\SPIEEPROM.c
                   __pa_3   0x00d972    program     static C:\Documents and Settings\Administrator\My Documents\Alarm Controller\PIC Code\SecurityXPLSender.c
                   __pa_3   0x014a88    program     static C:\Documents and Settings\Administrator\My Documents\Alarm Controller\Microchip\TCPIP Stack\UDP.c
                  __pa_30   0x002aa8    program     static C:\Documents and Settings\Administrator\My Documents\Alarm Controller\Microchip\TCPIP Stack\TCP.c
                  __pa_30   0x00ed74    program     static C:\Documents and Settings\Administrator\My Documents\Alarm Controller\PIC Code\HTTPForms.c
                  __pa_30   0x008578    program     static C:\Documents and Settings\Administrator\My Documents\Alarm Controller\PIC Code\SecuritySystem.c
                  __pa_30   0x00db3c    program     static C:\Documents and Settings\Administrator\My Documents\Alarm Controller\PIC Code\SecurityXPLSender.c
                  __pa_30   0x011904    program     static C:\Documents and Settings\Administrator\My Documents\Alarm Controller\PIC Code\Authenticate.c
                  __pa_30   0x013878    program     static C:\Documents and Settings\Administrator\My Documents\Alarm Controller\PIC Code\HTTPDynVariables.c
                  __pa_30   0x00ca26    program     static C:\Documents and Settings\Administrator\My Documents\Alarm Controller\PIC Code\SMTP.c
                  __pa_30   0x010d0e    program     static C:\Documents and Settings\Administrator\My Documents\Alarm Controller\Microchip\TCPIP Stack\MPFS2.c
                  __pa_30   0x00fec6    program     static C:\Documents and Settings\Administrator\My Documents\Alarm Controller\PIC Code\xPL.c
                  __pa_30   0x00bf66    program     static C:\Documents and Settings\Administrator\My Documents\Alarm Controller\Microchip\TCPIP Stack\SMTP.c
                  __pa_30   0x00ac58    program     static C:\Documents and Settings\Administrator\My Documents\Alarm Controller\Microchip\TCPIP Stack\HTTP2.c
                  __pa_30   0x0152c4    program     static C:\Documents and Settings\Administrator\My Documents\Alarm Controller\PIC Code\EOL.c
                  __pa_31   0x010d1c    program     static C:\Documents and Settings\Administrator\My Documents\Alarm Controller\Microchip\TCPIP Stack\MPFS2.c
                  __pa_31   0x01190c    program     static C:\Documents and Settings\Administrator\My Documents\Alarm Controller\PIC Code\Authenticate.c
                  __pa_31   0x002ab4    program     static C:\Documents and Settings\Administrator\My Documents\Alarm Controller\Microchip\TCPIP Stack\TCP.c
                  __pa_31   0x00ca30    program     static C:\Documents and Settings\Administrator\My Documents\Alarm Controller\PIC Code\SMTP.c
                  __pa_31   0x00fed0    program     static C:\Documents and Settings\Administrator\My Documents\Alarm Controller\PIC Code\xPL.c
                  __pa_31   0x0152da    program     static C:\Documents and Settings\Administrator\My Documents\Alarm Controller\PIC Code\EOL.c
                  __pa_31   0x00ac60    program     static C:\Documents and Settings\Administrator\My Documents\Alarm Controller\Microchip\TCPIP Stack\HTTP2.c
                  __pa_31   0x008584    program     static C:\Documents and Settings\Administrator\My Documents\Alarm Controller\PIC Code\SecuritySystem.c
                  __pa_31   0x00bf74    program     static C:\Documents and Settings\Administrator\My Documents\Alarm Controller\Microchip\TCPIP Stack\SMTP.c
                  __pa_31   0x00ed82    program     static C:\Documents and Settings\Administrator\My Documents\Alarm Controller\PIC Code\HTTPForms.c
                  __pa_31   0x00db46    program     static C:\Documents and Settings\Administrator\My Documents\Alarm Controller\PIC Code\SecurityXPLSender.c
                  __pa_31   0x013888    program     static C:\Documents and Settings\Administrator\My Documents\Alarm Controller\PIC Code\HTTPDynVariables.c
                  __pa_32   0x00bf86    program     static C:\Documents and Settings\Administrator\My Documents\Alarm Controller\Microchip\TCPIP Stack\SMTP.c
                  __pa_32   0x013890    program     static C:\Documents and Settings\Administrator\My Documents\Alarm Controller\PIC Code\HTTPDynVariables.c
                  __pa_32   0x002abe    program     static C:\Documents and Settings\Administrator\My Documents\Alarm Controller\Microchip\TCPIP Stack\TCP.c
                  __pa_32   0x0152e6    program     static C:\Documents and Settings\Administrator\My Documents\Alarm Controller\PIC Code\EOL.c
                  __pa_32   0x00ca36    program     static C:\Documents and Settings\Administrator\My Documents\Alarm Controller\PIC Code\SMTP.c
                  __pa_32   0x00db56    program     static C:\Documents and Settings\Administrator\My Documents\Alarm Controller\PIC Code\SecurityXPLSender.c
                  __pa_32   0x011914    program     static C:\Documents and Settings\Administrator\My Documents\Alarm Controller\PIC Code\Authenticate.c
                  __pa_32   0x00ed88    program     static C:\Documents and Settings\Administrator\My Documents\Alarm Controller\PIC Code\HTTPForms.c
                  __pa_32   0x00fee0    program     static C:\Documents and Settings\Administrator\My Documents\Alarm Controller\PIC Code\xPL.c
                  __pa_32   0x00ac70    program     static C:\Documents and Settings\Administrator\My Documents\Alarm Controller\Microchip\TCPIP Stack\HTTP2.c
                  __pa_32   0x008590    program     static C:\Documents and Settings\Administrator\My Documents\Alarm Controller\PIC Code\SecuritySystem.c
                  __pa_32   0x010d2a    program     static C:\Documents and Settings\Administrator\My Documents\Alarm Controller\Microchip\TCPIP Stack\MPFS2.c
                  __pa_33   0x00fef0    program     static C:\Documents and Settings\Administrator\My Documents\Alarm Controller\PIC Code\xPL.c
                  __pa_33   0x01191e    program     static C:\Documents and Settings\Administrator\My Documents\Alarm Controller\PIC Code\Authenticate.c
                  __pa_33   0x00ac80    program     static C:\Documents and Settings\Administrator\My Documents\Alarm Controller\Microchip\TCPIP Stack\HTTP2.c
                  __pa_33   0x01389e    program     static C:\Documents and Settings\Administrator\My Documents\Alarm Controller\PIC Code\HTTPDynVariables.c
                  __pa_33   0x00ed8e    program     static C:\Documents and Settings\Administrator\My Documents\Alarm Controller\PIC Code\HTTPForms.c
                  __pa_33   0x0152f0    program     static C:\Documents and Settings\Administrator\My Documents\Alarm Controller\PIC Code\EOL.c
                  __pa_33   0x00db60    program     static C:\Documents and Settings\Administrator\My Documents\Alarm Controller\PIC Code\SecurityXPLSender.c
                  __pa_33   0x002ac8    program     static C:\Documents and Settings\Administrator\My Documents\Alarm Controller\Microchip\TCPIP Stack\TCP.c
                  __pa_33   0x010d38    program     static C:\Documents and Settings\Administrator\My Documents\Alarm Controller\Microchip\TCPIP Stack\MPFS2.c
                  __pa_33   0x00ca3e    program     static C:\Documents and Settings\Administrator\My Documents\Alarm Controller\PIC Code\SMTP.c
                  __pa_33   0x00bf98    program     static C:\Documents and Settings\Administrator\My Documents\Alarm Controller\Microchip\TCPIP Stack\SMTP.c
                  __pa_33   0x00859c    program     static C:\Documents and Settings\Administrator\My Documents\Alarm Controller\PIC Code\SecuritySystem.c
                  __pa_34   0x00db6a    program     static C:\Documents and Settings\Administrator\My Documents\Alarm Controller\PIC Code\SecurityXPLSender.c
                  __pa_34   0x00ed9c    program     static C:\Documents and Settings\Administrator\My Documents\Alarm Controller\PIC Code\HTTPForms.c
                  __pa_34   0x010d46    program     static C:\Documents and Settings\Administrator\My Documents\Alarm Controller\Microchip\TCPIP Stack\MPFS2.c
                  __pa_34   0x0085a4    program     static C:\Documents and Settings\Administrator\My Documents\Alarm Controller\PIC Code\SecuritySystem.c
                  __pa_34   0x00ac98    program     static C:\Documents and Settings\Administrator\My Documents\Alarm Controller\Microchip\TCPIP Stack\HTTP2.c
                  __pa_34   0x00bf9e    program     static C:\Documents and Settings\Administrator\My Documents\Alarm Controller\Microchip\TCPIP Stack\SMTP.c
                  __pa_34   0x0138ac    program     static C:\Documents and Settings\Administrator\My Documents\Alarm Controller\PIC Code\HTTPDynVariables.c
                  __pa_34   0x0152fa    program     static C:\Documents and Settings\Administrator\My Documents\Alarm Controller\PIC Code\EOL.c
                  __pa_34   0x002ae8    program     static C:\Documents and Settings\Administrator\My Documents\Alarm Controller\Microchip\TCPIP Stack\TCP.c
                  __pa_34   0x011928    program     static C:\Documents and Settings\Administrator\My Documents\Alarm Controller\PIC Code\Authenticate.c
                  __pa_34   0x00fefe    program     static C:\Documents and Settings\Administrator\My Documents\Alarm Controller\PIC Code\xPL.c
                  __pa_35   0x0138b6    program     static C:\Documents and Settings\Administrator\My Documents\Alarm Controller\PIC Code\HTTPDynVariables.c
                  __pa_35   0x00db74    program     static C:\Documents and Settings\Administrator\My Documents\Alarm Controller\PIC Code\SecurityXPLSender.c
                  __pa_35   0x00edaa    program     static C:\Documents and Settings\Administrator\My Documents\Alarm Controller\PIC Code\HTTPForms.c
                  __pa_35   0x0085ae    program     static C:\Documents and Settings\Administrator\My Documents\Alarm Controller\PIC Code\SecuritySystem.c
                  __pa_35   0x011930    program     static C:\Documents and Settings\Administrator\My Documents\Alarm Controller\PIC Code\Authenticate.c
                  __pa_35   0x015300    program     static C:\Documents and Settings\Administrator\My Documents\Alarm Controller\PIC Code\EOL.c
                  __pa_35   0x00ff0c    program     static C:\Documents and Settings\Administrator\My Documents\Alarm Controller\PIC Code\xPL.c
                  __pa_35   0x010d50    program     static C:\Documents and Settings\Administrator\My Documents\Alarm Controller\Microchip\TCPIP Stack\MPFS2.c
                  __pa_35   0x00bfb0    program     static C:\Documents and Settings\Administrator\My Documents\Alarm Controller\Microchip\TCPIP Stack\SMTP.c
                  __pa_35   0x002afe    program     static C:\Documents and Settings\Administrator\My Documents\Alarm Controller\Microchip\TCPIP Stack\TCP.c
                  __pa_35   0x00aca6    program     static C:\Documents and Settings\Administrator\My Documents\Alarm Controller\Microchip\TCPIP Stack\HTTP2.c
                  __pa_36   0x00db7c    program     static C:\Documents and Settings\Administrator\My Documents\Alarm Controller\PIC Code\SecurityXPLSender.c
                  __pa_36   0x00bfba    program     static C:\Documents and Settings\Administrator\My Documents\Alarm Controller\Microchip\TCPIP Stack\SMTP.c
                  __pa_36   0x0138c6    program     static C:\Documents and Settings\Administrator\My Documents\Alarm Controller\PIC Code\HTTPDynVariables.c
                  __pa_36   0x00acb4    program     static C:\Documents and Settings\Administrator\My Documents\Alarm Controller\Microchip\TCPIP Stack\HTTP2.c
                  __pa_36   0x0085b8    program     static C:\Documents and Settings\Administrator\My Documents\Alarm Controller\PIC Code\SecuritySystem.c
                  __pa_36   0x01530a    program     static C:\Documents and Settings\Administrator\My Documents\Alarm Controller\PIC Code\EOL.c
                  __pa_36   0x00edb4    program     static C:\Documents and Settings\Administrator\My Documents\Alarm Controller\PIC Code\HTTPForms.c
                  __pa_36   0x011948    program     static C:\Documents and Settings\Administrator\My Documents\Alarm Controller\PIC Code\Authenticate.c
                  __pa_36   0x010d58    program     static C:\Documents and Settings\Administrator\My Documents\Alarm Controller\Microchip\TCPIP Stack\MPFS2.c
                  __pa_36   0x002b0c    program     static C:\Documents and Settings\Administrator\My Documents\Alarm Controller\Microchip\TCPIP Stack\TCP.c
                  __pa_36   0x00ff1a    program     static C:\Documents and Settings\Administrator\My Documents\Alarm Controller\PIC Code\xPL.c
                  __pa_37   0x00db8c    program     static C:\Documents and Settings\Administrator\My Documents\Alarm Controller\PIC Code\SecurityXPLSender.c
                  __pa_37   0x011966    program     static C:\Documents and Settings\Administrator\My Documents\Alarm Controller\PIC Code\Authenticate.c
                  __pa_37   0x00bfc2    program     static C:\Documents and Settings\Administrator\My Documents\Alarm Controller\Microchip\TCPIP Stack\SMTP.c
                  __pa_37   0x0138d2    program     static C:\Documents and Settings\Administrator\My Documents\Alarm Controller\PIC Code\HTTPDynVariables.c
                  __pa_37   0x0085c2    program     static C:\Documents and Settings\Administrator\My Documents\Alarm Controller\PIC Code\SecuritySystem.c
                  __pa_37   0x00ff26    program     static C:\Documents and Settings\Administrator\My Documents\Alarm Controller\PIC Code\xPL.c
                  __pa_37   0x00acbe    program     static C:\Documents and Settings\Administrator\My Documents\Alarm Controller\Microchip\TCPIP Stack\HTTP2.c
                  __pa_37   0x010d62    program     static C:\Documents and Settings\Administrator\My Documents\Alarm Controller\Microchip\TCPIP Stack\MPFS2.c
                  __pa_37   0x015314    program     static C:\Documents and Settings\Administrator\My Documents\Alarm Controller\PIC Code\EOL.c
                  __pa_37   0x002b18    program     static C:\Documents and Settings\Administrator\My Documents\Alarm Controller\Microchip\TCPIP Stack\TCP.c
                  __pa_37   0x00edbc    program     static C:\Documents and Settings\Administrator\My Documents\Alarm Controller\PIC Code\HTTPForms.c
                  __pa_38   0x0085d0    program     static C:\Documents and Settings\Administrator\My Documents\Alarm Controller\PIC Code\SecuritySystem.c
                  __pa_38   0x0138d8    program     static C:\Documents and Settings\Administrator\My Documents\Alarm Controller\PIC Code\HTTPDynVariables.c
                  __pa_38   0x010d68    program     static C:\Documents and Settings\Administrator\My Documents\Alarm Controller\Microchip\TCPIP Stack\MPFS2.c
                  __pa_38   0x015326    program     static C:\Documents and Settings\Administrator\My Documents\Alarm Controller\PIC Code\EOL.c
                  __pa_38   0x00db94    program     static C:\Documents and Settings\Administrator\My Documents\Alarm Controller\PIC Code\SecurityXPLSender.c
                  __pa_38   0x00edc4    program     static C:\Documents and Settings\Administrator\My Documents\Alarm Controller\PIC Code\HTTPForms.c
                  __pa_38   0x00bfca    program     static C:\Documents and Settings\Administrator\My Documents\Alarm Controller\Microchip\TCPIP Stack\SMTP.c
                  __pa_38   0x01196c    program     static C:\Documents and Settings\Administrator\My Documents\Alarm Controller\PIC Code\Authenticate.c
                  __pa_38   0x00acc8    program     static C:\Documents and Settings\Administrator\My Documents\Alarm Controller\Microchip\TCPIP Stack\HTTP2.c
                  __pa_38   0x00ff34    program     static C:\Documents and Settings\Administrator\My Documents\Alarm Controller\PIC Code\xPL.c
                  __pa_38   0x002b20    program     static C:\Documents and Settings\Administrator\My Documents\Alarm Controller\Microchip\TCPIP Stack\TCP.c
                  __pa_39   0x010d72    program     static C:\Documents and Settings\Administrator\My Documents\Alarm Controller\Microchip\TCPIP Stack\MPFS2.c
                  __pa_39   0x01532c    program     static C:\Documents and Settings\Administrator\My Documents\Alarm Controller\PIC Code\EOL.c
                  __pa_39   0x00acd2    program     static C:\Documents and Settings\Administrator\My Documents\Alarm Controller\Microchip\TCPIP Stack\HTTP2.c
                  __pa_39   0x00ff3e    program     static C:\Documents and Settings\Administrator\My Documents\Alarm Controller\PIC Code\xPL.c
                  __pa_39   0x00edce    program     static C:\Documents and Settings\Administrator\My Documents\Alarm Controller\PIC Code\HTTPForms.c
                  __pa_39   0x011972    program     static C:\Documents and Settings\Administrator\My Documents\Alarm Controller\PIC Code\Authenticate.c
                  __pa_39   0x0085da    program     static C:\Documents and Settings\Administrator\My Documents\Alarm Controller\PIC Code\SecuritySystem.c
                  __pa_39   0x0138de    program     static C:\Documents and Settings\Administrator\My Documents\Alarm Controller\PIC Code\HTTPDynVariables.c
                  __pa_39   0x00bfda    program     static C:\Documents and Settings\Administrator\My Documents\Alarm Controller\Microchip\TCPIP Stack\SMTP.c
                  __pa_39   0x00dba2    program     static C:\Documents and Settings\Administrator\My Documents\Alarm Controller\PIC Code\SecurityXPLSender.c
                  __pa_39   0x002b2e    program     static C:\Documents and Settings\Administrator\My Documents\Alarm Controller\Microchip\TCPIP Stack\TCP.c
                   __pa_4   0x0124e4    program     static C:\Documents and Settings\Administrator\My Documents\Alarm Controller\Microchip\TCPIP Stack\Helpers.c
                   __pa_4   0x014334    program     static C:\Documents and Settings\Administrator\My Documents\Alarm Controller\Microchip\TCPIP Stack\ETH97J60.c
                   __pa_4   0x0158b4    program     static C:\Documents and Settings\Administrator\My Documents\Alarm Controller\Microchip\TCPIP Stack\DNS.c
                   __pa_4   0x017c70    program     static C:\Documents and Settings\Administrator\My Documents\Alarm Controller\Microchip\TCPIP Stack\ARP.c
                   __pa_4   0x00c8f8    program     static C:\Documents and Settings\Administrator\My Documents\Alarm Controller\PIC Code\SMTP.c
                   __pa_4   0x011744    program     static C:\Documents and Settings\Administrator\My Documents\Alarm Controller\PIC Code\Authenticate.c
                   __pa_4   0x018334    program     static C:\Documents and Settings\Administrator\My Documents\Alarm Controller\Microchip\TCPIP Stack\NBNS.c
                   __pa_4   0x00ec14    program     static C:\Documents and Settings\Administrator\My Documents\Alarm Controller\PIC Code\HTTPForms.c
                   __pa_4   0x012fa8    program     static C:\Documents and Settings\Administrator\My Documents\Alarm Controller\PIC Code\AES.c
                   __pa_4   0x00bd82    program     static C:\Documents and Settings\Administrator\My Documents\Alarm Controller\Microchip\TCPIP Stack\SMTP.c
                   __pa_4   0x00281e    program     static C:\Documents and Settings\Administrator\My Documents\Alarm Controller\Microchip\TCPIP Stack\TCP.c
                   __pa_4   0x0083f0    program     static C:\Documents and Settings\Administrator\My Documents\Alarm Controller\PIC Code\SecuritySystem.c
                   __pa_4   0x018a30    program     static C:\Documents and Settings\Administrator\My Documents\Alarm Controller\Microchip\TCPIP Stack\SPIEEPROM.c
                   __pa_4   0x00ab04    program     static C:\Documents and Settings\Administrator\My Documents\Alarm Controller\Microchip\TCPIP Stack\HTTP2.c
                   __pa_4   0x00d986    program     static C:\Documents and Settings\Administrator\My Documents\Alarm Controller\PIC Code\SecurityXPLSender.c
                   __pa_4   0x013716    program     static C:\Documents and Settings\Administrator\My Documents\Alarm Controller\PIC Code\HTTPDynVariables.c
                   __pa_4   0x014a90    program     static C:\Documents and Settings\Administrator\My Documents\Alarm Controller\Microchip\TCPIP Stack\UDP.c
                   __pa_4   0x01ff1a    program     static C:\Documents and Settings\Administrator\My Documents\Alarm Controller\PIC Code\Battery.c
                   __pa_4   0x01785e    program     static C:\Documents and Settings\Administrator\My Documents\Alarm Controller\PIC Code\MainDemo.c
                   __pa_4   0x018804    program     static C:\Documents and Settings\Administrator\My Documents\Alarm Controller\Microchip\TCPIP Stack\IP.c
                   __pa_4   0x00fcfa    program     static C:\Documents and Settings\Administrator\My Documents\Alarm Controller\PIC Code\xPL.c
                   __pa_4   0x015eea    program     static C:\Documents and Settings\Administrator\My Documents\Alarm Controller\PIC Code\SNTP Customised.c
                   __pa_4   0x0185be    program     static C:\Documents and Settings\Administrator\My Documents\Alarm Controller\Microchip\TCPIP Stack\LCDBlocking.c
                   __pa_4   0x010b68    program     static C:\Documents and Settings\Administrator\My Documents\Alarm Controller\Microchip\TCPIP Stack\MPFS2.c
                   __pa_4   0x01514a    program     static C:\Documents and Settings\Administrator\My Documents\Alarm Controller\PIC Code\EOL.c
                  __pa_40   0x00edda    program     static C:\Documents and Settings\Administrator\My Documents\Alarm Controller\PIC Code\HTTPForms.c
                  __pa_40   0x01197e    program     static C:\Documents and Settings\Administrator\My Documents\Alarm Controller\PIC Code\Authenticate.c
                  __pa_40   0x00acda    program     static C:\Documents and Settings\Administrator\My Documents\Alarm Controller\Microchip\TCPIP Stack\HTTP2.c
                  __pa_40   0x0085e4    program     static C:\Documents and Settings\Administrator\My Documents\Alarm Controller\PIC Code\SecuritySystem.c
                  __pa_40   0x010d7a    program     static C:\Documents and Settings\Administrator\My Documents\Alarm Controller\Microchip\TCPIP Stack\MPFS2.c
                  __pa_40   0x0138f0    program     static C:\Documents and Settings\Administrator\My Documents\Alarm Controller\PIC Code\HTTPDynVariables.c
                  __pa_40   0x00dbb0    program     static C:\Documents and Settings\Administrator\My Documents\Alarm Controller\PIC Code\SecurityXPLSender.c
                  __pa_40   0x00ff46    program     static C:\Documents and Settings\Administrator\My Documents\Alarm Controller\PIC Code\xPL.c
                  __pa_40   0x00bfea    program     static C:\Documents and Settings\Administrator\My Documents\Alarm Controller\Microchip\TCPIP Stack\SMTP.c
                  __pa_40   0x002b3a    program     static C:\Documents and Settings\Administrator\My Documents\Alarm Controller\Microchip\TCPIP Stack\TCP.c
                  __pa_41   0x00edee    program     static C:\Documents and Settings\Administrator\My Documents\Alarm Controller\PIC Code\HTTPForms.c
                  __pa_41   0x011996    program     static C:\Documents and Settings\Administrator\My Documents\Alarm Controller\PIC Code\Authenticate.c
                  __pa_41   0x00bff8    program     static C:\Documents and Settings\Administrator\My Documents\Alarm Controller\Microchip\TCPIP Stack\SMTP.c
                  __pa_41   0x00ace8    program     static C:\Documents and Settings\Administrator\My Documents\Alarm Controller\Microchip\TCPIP Stack\HTTP2.c
                  __pa_41   0x0085fa    program     static C:\Documents and Settings\Administrator\My Documents\Alarm Controller\PIC Code\SecuritySystem.c
                  __pa_41   0x010d82    program     static C:\Documents and Settings\Administrator\My Documents\Alarm Controller\Microchip\TCPIP Stack\MPFS2.c
                  __pa_41   0x00ff50    program     static C:\Documents and Settings\Administrator\My Documents\Alarm Controller\PIC Code\xPL.c
                  __pa_41   0x00dbbe    program     static C:\Documents and Settings\Administrator\My Documents\Alarm Controller\PIC Code\SecurityXPLSender.c
                  __pa_41   0x002b4e    program     static C:\Documents and Settings\Administrator\My Documents\Alarm Controller\Microchip\TCPIP Stack\TCP.c
                  __pa_41   0x013902    program     static C:\Documents and Settings\Administrator\My Documents\Alarm Controller\PIC Code\HTTPDynVariables.c
                  __pa_42   0x013912    program     static C:\Documents and Settings\Administrator\My Documents\Alarm Controller\PIC Code\HTTPDynVariables.c
                  __pa_42   0x00dbc6    program     static C:\Documents and Settings\Administrator\My Documents\Alarm Controller\PIC Code\SecurityXPLSender.c
                  __pa_42   0x00ee02    program     static C:\Documents and Settings\Administrator\My Documents\Alarm Controller\PIC Code\HTTPForms.c
                  __pa_42   0x002b60    program     static C:\Documents and Settings\Administrator\My Documents\Alarm Controller\Microchip\TCPIP Stack\TCP.c
                  __pa_42   0x00acfa    program     static C:\Documents and Settings\Administrator\My Documents\Alarm Controller\Microchip\TCPIP Stack\HTTP2.c
                  __pa_42   0x00c006    program     static C:\Documents and Settings\Administrator\My Documents\Alarm Controller\Microchip\TCPIP Stack\SMTP.c
                  __pa_42   0x010d8e    program     static C:\Documents and Settings\Administrator\My Documents\Alarm Controller\Microchip\TCPIP Stack\MPFS2.c
                  __pa_42   0x0119a6    program     static C:\Documents and Settings\Administrator\My Documents\Alarm Controller\PIC Code\Authenticate.c
                  __pa_42   0x008604    program     static C:\Documents and Settings\Administrator\My Documents\Alarm Controller\PIC Code\SecuritySystem.c
                  __pa_42   0x00ff6e    program     static C:\Documents and Settings\Administrator\My Documents\Alarm Controller\PIC Code\xPL.c
                  __pa_43   0x0119b6    program     static C:\Documents and Settings\Administrator\My Documents\Alarm Controller\PIC Code\Authenticate.c
                  __pa_43   0x013938    program     static C:\Documents and Settings\Administrator\My Documents\Alarm Controller\PIC Code\HTTPDynVariables.c
                  __pa_43   0x00ad00    program     static C:\Documents and Settings\Administrator\My Documents\Alarm Controller\Microchip\TCPIP Stack\HTTP2.c
                  __pa_43   0x002b72    program     static C:\Documents and Settings\Administrator\My Documents\Alarm Controller\Microchip\TCPIP Stack\TCP.c
                  __pa_43   0x00ff7a    program     static C:\Documents and Settings\Administrator\My Documents\Alarm Controller\PIC Code\xPL.c
                  __pa_43   0x010da2    program     static C:\Documents and Settings\Administrator\My Documents\Alarm Controller\Microchip\TCPIP Stack\MPFS2.c
                  __pa_43   0x00860c    program     static C:\Documents and Settings\Administrator\My Documents\Alarm Controller\PIC Code\SecuritySystem.c
                  __pa_43   0x00c014    program     static C:\Documents and Settings\Administrator\My Documents\Alarm Controller\Microchip\TCPIP Stack\SMTP.c
                  __pa_43   0x00ee14    program     static C:\Documents and Settings\Administrator\My Documents\Alarm Controller\PIC Code\HTTPForms.c
                  __pa_43   0x00dbce    program     static C:\Documents and Settings\Administrator\My Documents\Alarm Controller\PIC Code\SecurityXPLSender.c
                  __pa_44   0x00c01e    program     static C:\Documents and Settings\Administrator\My Documents\Alarm Controller\Microchip\TCPIP Stack\SMTP.c
                  __pa_44   0x0119c2    program     static C:\Documents and Settings\Administrator\My Documents\Alarm Controller\PIC Code\Authenticate.c
                  __pa_44   0x00ee1a    program     static C:\Documents and Settings\Administrator\My Documents\Alarm Controller\PIC Code\HTTPForms.c
                  __pa_44   0x00ff90    program     static C:\Documents and Settings\Administrator\My Documents\Alarm Controller\PIC Code\xPL.c
                  __pa_44   0x00ad0c    program     static C:\Documents and Settings\Administrator\My Documents\Alarm Controller\Microchip\TCPIP Stack\HTTP2.c
                  __pa_44   0x010db6    program     static C:\Documents and Settings\Administrator\My Documents\Alarm Controller\Microchip\TCPIP Stack\MPFS2.c
                  __pa_44   0x01394e    program     static C:\Documents and Settings\Administrator\My Documents\Alarm Controller\PIC Code\HTTPDynVariables.c
                  __pa_44   0x008618    program     static C:\Documents and Settings\Administrator\My Documents\Alarm Controller\PIC Code\SecuritySystem.c
                  __pa_44   0x00dbdc    program     static C:\Documents and Settings\Administrator\My Documents\Alarm Controller\PIC Code\SecurityXPLSender.c
                  __pa_44   0x002b8c    program     static C:\Documents and Settings\Administrator\My Documents\Alarm Controller\Microchip\TCPIP Stack\TCP.c
                  __pa_45   0x0119ca    program     static C:\Documents and Settings\Administrator\My Documents\Alarm Controller\PIC Code\Authenticate.c
                  __pa_45   0x00ff9e    program     static C:\Documents and Settings\Administrator\My Documents\Alarm Controller\PIC Code\xPL.c
                  __pa_45   0x00ad14    program     static C:\Documents and Settings\Administrator\My Documents\Alarm Controller\Microchip\TCPIP Stack\HTTP2.c
                  __pa_45   0x013956    program     static C:\Documents and Settings\Administrator\My Documents\Alarm Controller\PIC Code\HTTPDynVariables.c
                  __pa_45   0x00c028    program     static C:\Documents and Settings\Administrator\My Documents\Alarm Controller\Microchip\TCPIP Stack\SMTP.c
                  __pa_45   0x008620    program     static C:\Documents and Settings\Administrator\My Documents\Alarm Controller\PIC Code\SecuritySystem.c
                  __pa_45   0x00dbea    program     static C:\Documents and Settings\Administrator\My Documents\Alarm Controller\PIC Code\SecurityXPLSender.c
                  __pa_45   0x00ee2e    program     static C:\Documents and Settings\Administrator\My Documents\Alarm Controller\PIC Code\HTTPForms.c
                  __pa_45   0x002b94    program     static C:\Documents and Settings\Administrator\My Documents\Alarm Controller\Microchip\TCPIP Stack\TCP.c
                  __pa_45   0x010dc2    program     static C:\Documents and Settings\Administrator\My Documents\Alarm Controller\Microchip\TCPIP Stack\MPFS2.c
                  __pa_46   0x00ee34    program     static C:\Documents and Settings\Administrator\My Documents\Alarm Controller\PIC Code\HTTPForms.c
                  __pa_46   0x013964    program     static C:\Documents and Settings\Administrator\My Documents\Alarm Controller\PIC Code\HTTPDynVariables.c
                  __pa_46   0x00dbf4    program     static C:\Documents and Settings\Administrator\My Documents\Alarm Controller\PIC Code\SecurityXPLSender.c
                  __pa_46   0x0119dc    program     static C:\Documents and Settings\Administrator\My Documents\Alarm Controller\PIC Code\Authenticate.c
                  __pa_46   0x00c032    program     static C:\Documents and Settings\Administrator\My Documents\Alarm Controller\Microchip\TCPIP Stack\SMTP.c
                  __pa_46   0x00862a    program     static C:\Documents and Settings\Administrator\My Documents\Alarm Controller\PIC Code\SecuritySystem.c
                  __pa_46   0x002ba6    program     static C:\Documents and Settings\Administrator\My Documents\Alarm Controller\Microchip\TCPIP Stack\TCP.c
                  __pa_46   0x00ffa8    program     static C:\Documents and Settings\Administrator\My Documents\Alarm Controller\PIC Code\xPL.c
                  __pa_46   0x010dd0    program     static C:\Documents and Settings\Administrator\My Documents\Alarm Controller\Microchip\TCPIP Stack\MPFS2.c
                  __pa_46   0x00ad1e    program     static C:\Documents and Settings\Administrator\My Documents\Alarm Controller\Microchip\TCPIP Stack\HTTP2.c
                  __pa_47   0x00c03e    program     static C:\Documents and Settings\Administrator\My Documents\Alarm Controller\Microchip\TCPIP Stack\SMTP.c
                  __pa_47   0x0119e2    program     static C:\Documents and Settings\Administrator\My Documents\Alarm Controller\PIC Code\Authenticate.c
                  __pa_47   0x00ffb2    program     static C:\Documents and Settings\Administrator\My Documents\Alarm Controller\PIC Code\xPL.c
                  __pa_47   0x010dda    program     static C:\Documents and Settings\Administrator\My Documents\Alarm Controller\Microchip\TCPIP Stack\MPFS2.c
                  __pa_47   0x002bb8    program     static C:\Documents and Settings\Administrator\My Documents\Alarm Controller\Microchip\TCPIP Stack\TCP.c
                  __pa_47   0x008632    program     static C:\Documents and Settings\Administrator\My Documents\Alarm Controller\PIC Code\SecuritySystem.c
                  __pa_47   0x00ad28    program     static C:\Documents and Settings\Administrator\My Documents\Alarm Controller\Microchip\TCPIP Stack\HTTP2.c
                  __pa_47   0x00dbfe    program     static C:\Documents and Settings\Administrator\My Documents\Alarm Controller\PIC Code\SecurityXPLSender.c
                  __pa_47   0x013972    program     static C:\Documents and Settings\Administrator\My Documents\Alarm Controller\PIC Code\HTTPDynVariables.c
                  __pa_47   0x00ee46    program     static C:\Documents and Settings\Administrator\My Documents\Alarm Controller\PIC Code\HTTPForms.c
                  __pa_48   0x00dc0c    program     static C:\Documents and Settings\Administrator\My Documents\Alarm Controller\PIC Code\SecurityXPLSender.c
                  __pa_48   0x00ffb8    program     static C:\Documents and Settings\Administrator\My Documents\Alarm Controller\PIC Code\xPL.c
                  __pa_48   0x00ad38    program     static C:\Documents and Settings\Administrator\My Documents\Alarm Controller\Microchip\TCPIP Stack\HTTP2.c
                  __pa_48   0x0119f0    program     static C:\Documents and Settings\Administrator\My Documents\Alarm Controller\PIC Code\Authenticate.c
                  __pa_48   0x00c046    program     static C:\Documents and Settings\Administrator\My Documents\Alarm Controller\Microchip\TCPIP Stack\SMTP.c
                  __pa_48   0x00ee4e    program     static C:\Documents and Settings\Administrator\My Documents\Alarm Controller\PIC Code\HTTPForms.c
                  __pa_48   0x008640    program     static C:\Documents and Settings\Administrator\My Documents\Alarm Controller\PIC Code\SecuritySystem.c
                  __pa_48   0x01397c    program     static C:\Documents and Settings\Administrator\My Documents\Alarm Controller\PIC Code\HTTPDynVariables.c
                  __pa_48   0x002bc2    program     static C:\Documents and Settings\Administrator\My Documents\Alarm Controller\Microchip\TCPIP Stack\TCP.c
                  __pa_48   0x010de4    program     static C:\Documents and Settings\Administrator\My Documents\Alarm Controller\Microchip\TCPIP Stack\MPFS2.c
                  __pa_49   0x0119fe    program     static C:\Documents and Settings\Administrator\My Documents\Alarm Controller\PIC Code\Authenticate.c
                  __pa_49   0x00dc12    program     static C:\Documents and Settings\Administrator\My Documents\Alarm Controller\PIC Code\SecurityXPLSender.c
                  __pa_49   0x002bcc    program     static C:\Documents and Settings\Administrator\My Documents\Alarm Controller\Microchip\TCPIP Stack\TCP.c
                  __pa_49   0x010dee    program     static C:\Documents and Settings\Administrator\My Documents\Alarm Controller\Microchip\TCPIP Stack\MPFS2.c
                  __pa_49   0x00ee60    program     static C:\Documents and Settings\Administrator\My Documents\Alarm Controller\PIC Code\HTTPForms.c
                  __pa_49   0x013986    program     static C:\Documents and Settings\Administrator\My Documents\Alarm Controller\PIC Code\HTTPDynVariables.c
                  __pa_49   0x00ffca    program     static C:\Documents and Settings\Administrator\My Documents\Alarm Controller\PIC Code\xPL.c
                  __pa_49   0x00ad48    program     static C:\Documents and Settings\Administrator\My Documents\Alarm Controller\Microchip\TCPIP Stack\HTTP2.c
                  __pa_49   0x00864e    program     static C:\Documents and Settings\Administrator\My Documents\Alarm Controller\PIC Code\SecuritySystem.c
                  __pa_49   0x00c050    program     static C:\Documents and Settings\Administrator\My Documents\Alarm Controller\Microchip\TCPIP Stack\SMTP.c
                   __pa_5   0x017c7c    program     static C:\Documents and Settings\Administrator\My Documents\Alarm Controller\Microchip\TCPIP Stack\ARP.c
                   __pa_5   0x01ff26    program     static C:\Documents and Settings\Administrator\My Documents\Alarm Controller\PIC Code\Battery.c
                   __pa_5   0x00d992    program     static C:\Documents and Settings\Administrator\My Documents\Alarm Controller\PIC Code\SecurityXPLSender.c
                   __pa_5   0x015150    program     static C:\Documents and Settings\Administrator\My Documents\Alarm Controller\PIC Code\EOL.c
                   __pa_5   0x014a98    program     static C:\Documents and Settings\Administrator\My Documents\Alarm Controller\Microchip\TCPIP Stack\UDP.c
                   __pa_5   0x010b72    program     static C:\Documents and Settings\Administrator\My Documents\Alarm Controller\Microchip\TCPIP Stack\MPFS2.c
                   __pa_5   0x018a38    program     static C:\Documents and Settings\Administrator\My Documents\Alarm Controller\Microchip\TCPIP Stack\SPIEEPROM.c
                   __pa_5   0x002840    program     static C:\Documents and Settings\Administrator\My Documents\Alarm Controller\Microchip\TCPIP Stack\TCP.c
                   __pa_5   0x01786a    program     static C:\Documents and Settings\Administrator\My Documents\Alarm Controller\PIC Code\MainDemo.c
                   __pa_5   0x00fd50    program     static C:\Documents and Settings\Administrator\My Documents\Alarm Controller\PIC Code\xPL.c
                   __pa_5   0x0158ca    program     static C:\Documents and Settings\Administrator\My Documents\Alarm Controller\Microchip\TCPIP Stack\DNS.c
                   __pa_5   0x00ab2c    program     static C:\Documents and Settings\Administrator\My Documents\Alarm Controller\Microchip\TCPIP Stack\HTTP2.c
                   __pa_5   0x0124f6    program     static C:\Documents and Settings\Administrator\My Documents\Alarm Controller\Microchip\TCPIP Stack\Helpers.c
                   __pa_5   0x015efa    program     static C:\Documents and Settings\Administrator\My Documents\Alarm Controller\PIC Code\SNTP Customised.c
                   __pa_5   0x01880e    program     static C:\Documents and Settings\Administrator\My Documents\Alarm Controller\Microchip\TCPIP Stack\IP.c
                   __pa_5   0x00841a    program     static C:\Documents and Settings\Administrator\My Documents\Alarm Controller\PIC Code\SecuritySystem.c
                   __pa_5   0x00c902    program     static C:\Documents and Settings\Administrator\My Documents\Alarm Controller\PIC Code\SMTP.c
                   __pa_5   0x014344    program     static C:\Documents and Settings\Administrator\My Documents\Alarm Controller\Microchip\TCPIP Stack\ETH97J60.c
                   __pa_5   0x00ec18    program     static C:\Documents and Settings\Administrator\My Documents\Alarm Controller\PIC Code\HTTPForms.c
                   __pa_5   0x00bdba    program     static C:\Documents and Settings\Administrator\My Documents\Alarm Controller\Microchip\TCPIP Stack\SMTP.c
                   __pa_5   0x011756    program     static C:\Documents and Settings\Administrator\My Documents\Alarm Controller\PIC Code\Authenticate.c
                   __pa_5   0x01371c    program     static C:\Documents and Settings\Administrator\My Documents\Alarm Controller\PIC Code\HTTPDynVariables.c
                   __pa_5   0x01833c    program     static C:\Documents and Settings\Administrator\My Documents\Alarm Controller\Microchip\TCPIP Stack\NBNS.c
                   __pa_5   0x012fb2    program     static C:\Documents and Settings\Administrator\My Documents\Alarm Controller\PIC Code\AES.c
                  __pa_50   0x00865c    program     static C:\Documents and Settings\Administrator\My Documents\Alarm Controller\PIC Code\SecuritySystem.c
                  __pa_50   0x00c05e    program     static C:\Documents and Settings\Administrator\My Documents\Alarm Controller\Microchip\TCPIP Stack\SMTP.c
                  __pa_50   0x00ad52    program     static C:\Documents and Settings\Administrator\My Documents\Alarm Controller\Microchip\TCPIP Stack\HTTP2.c
                  __pa_50   0x010df4    program     static C:\Documents and Settings\Administrator\My Documents\Alarm Controller\Microchip\TCPIP Stack\MPFS2.c
                  __pa_50   0x00ffe0    program     static C:\Documents and Settings\Administrator\My Documents\Alarm Controller\PIC Code\xPL.c
                  __pa_50   0x01398c    program     static C:\Documents and Settings\Administrator\My Documents\Alarm Controller\PIC Code\HTTPDynVariables.c
                  __pa_50   0x002be4    program     static C:\Documents and Settings\Administrator\My Documents\Alarm Controller\Microchip\TCPIP Stack\TCP.c
                  __pa_50   0x00dc18    program     static C:\Documents and Settings\Administrator\My Documents\Alarm Controller\PIC Code\SecurityXPLSender.c
                  __pa_50   0x011a04    program     static C:\Documents and Settings\Administrator\My Documents\Alarm Controller\PIC Code\Authenticate.c
                  __pa_50   0x00ee6a    program     static C:\Documents and Settings\Administrator\My Documents\Alarm Controller\PIC Code\HTTPForms.c
                  __pa_51   0x00866c    program     static C:\Documents and Settings\Administrator\My Documents\Alarm Controller\PIC Code\SecuritySystem.c
                  __pa_51   0x00c06e    program     static C:\Documents and Settings\Administrator\My Documents\Alarm Controller\Microchip\TCPIP Stack\SMTP.c
                  __pa_51   0x00dc30    program     static C:\Documents and Settings\Administrator\My Documents\Alarm Controller\PIC Code\SecurityXPLSender.c
                  __pa_51   0x010dfc    program     static C:\Documents and Settings\Administrator\My Documents\Alarm Controller\Microchip\TCPIP Stack\MPFS2.c
                  __pa_51   0x00ad62    program     static C:\Documents and Settings\Administrator\My Documents\Alarm Controller\Microchip\TCPIP Stack\HTTP2.c
                  __pa_51   0x002c00    program     static C:\Documents and Settings\Administrator\My Documents\Alarm Controller\Microchip\TCPIP Stack\TCP.c
                  __pa_51   0x00ffec    program     static C:\Documents and Settings\Administrator\My Documents\Alarm Controller\PIC Code\xPL.c
                  __pa_51   0x011a0e    program     static C:\Documents and Settings\Administrator\My Documents\Alarm Controller\PIC Code\Authenticate.c
                  __pa_51   0x013996    program     static C:\Documents and Settings\Administrator\My Documents\Alarm Controller\PIC Code\HTTPDynVariables.c
                  __pa_51   0x00ee74    program     static C:\Documents and Settings\Administrator\My Documents\Alarm Controller\PIC Code\HTTPForms.c
                  __pa_52   0x011a14    program     static C:\Documents and Settings\Administrator\My Documents\Alarm Controller\PIC Code\Authenticate.c
                  __pa_52   0x01399c    program     static C:\Documents and Settings\Administrator\My Documents\Alarm Controller\PIC Code\HTTPDynVariables.c
                  __pa_52   0x00ee7c    program     static C:\Documents and Settings\Administrator\My Documents\Alarm Controller\PIC Code\HTTPForms.c
                  __pa_52   0x00ad6c    program     static C:\Documents and Settings\Administrator\My Documents\Alarm Controller\Microchip\TCPIP Stack\HTTP2.c
                  __pa_52   0x00fffa    program     static C:\Documents and Settings\Administrator\My Documents\Alarm Controller\PIC Code\xPL.c
                  __pa_52   0x00867e    program     static C:\Documents and Settings\Administrator\My Documents\Alarm Controller\PIC Code\SecuritySystem.c
                  __pa_52   0x010e06    program     static C:\Documents and Settings\Administrator\My Documents\Alarm Controller\Microchip\TCPIP Stack\MPFS2.c
                  __pa_52   0x002c1a    program     static C:\Documents and Settings\Administrator\My Documents\Alarm Controller\Microchip\TCPIP Stack\TCP.c
                  __pa_52   0x00c076    program     static C:\Documents and Settings\Administrator\My Documents\Alarm Controller\Microchip\TCPIP Stack\SMTP.c
                  __pa_52   0x00dc40    program     static C:\Documents and Settings\Administrator\My Documents\Alarm Controller\PIC Code\SecurityXPLSender.c
                  __pa_53   0x002c34    program     static C:\Documents and Settings\Administrator\My Documents\Alarm Controller\Microchip\TCPIP Stack\TCP.c
                  __pa_53   0x010e24    program     static C:\Documents and Settings\Administrator\My Documents\Alarm Controller\Microchip\TCPIP Stack\MPFS2.c
                  __pa_53   0x0139ac    program     static C:\Documents and Settings\Administrator\My Documents\Alarm Controller\PIC Code\HTTPDynVariables.c
                  __pa_53   0x00dc54    program     static C:\Documents and Settings\Administrator\My Documents\Alarm Controller\PIC Code\SecurityXPLSender.c
                  __pa_53   0x00ad7a    program     static C:\Documents and Settings\Administrator\My Documents\Alarm Controller\Microchip\TCPIP Stack\HTTP2.c
                  __pa_53   0x011a1c    program     static C:\Documents and Settings\Administrator\My Documents\Alarm Controller\PIC Code\Authenticate.c
                  __pa_53   0x00c07e    program     static C:\Documents and Settings\Administrator\My Documents\Alarm Controller\Microchip\TCPIP Stack\SMTP.c
                  __pa_53   0x01000a    program     static C:\Documents and Settings\Administrator\My Documents\Alarm Controller\PIC Code\xPL.c
                  __pa_53   0x00ee8a    program     static C:\Documents and Settings\Administrator\My Documents\Alarm Controller\PIC Code\HTTPForms.c
                  __pa_53   0x008690    program     static C:\Documents and Settings\Administrator\My Documents\Alarm Controller\PIC Code\SecuritySystem.c
                  __pa_54   0x00dc6e    program     static C:\Documents and Settings\Administrator\My Documents\Alarm Controller\PIC Code\SecurityXPLSender.c
                  __pa_54   0x010e3e    program     static C:\Documents and Settings\Administrator\My Documents\Alarm Controller\Microchip\TCPIP Stack\MPFS2.c
                  __pa_54   0x00ee98    program     static C:\Documents and Settings\Administrator\My Documents\Alarm Controller\PIC Code\HTTPForms.c
                  __pa_54   0x00c08a    program     static C:\Documents and Settings\Administrator\My Documents\Alarm Controller\Microchip\TCPIP Stack\SMTP.c
                  __pa_54   0x010012    program     static C:\Documents and Settings\Administrator\My Documents\Alarm Controller\PIC Code\xPL.c
                  __pa_54   0x002c4e    program     static C:\Documents and Settings\Administrator\My Documents\Alarm Controller\Microchip\TCPIP Stack\TCP.c
                  __pa_54   0x00869a    program     static C:\Documents and Settings\Administrator\My Documents\Alarm Controller\PIC Code\SecuritySystem.c
                  __pa_54   0x0139b2    program     static C:\Documents and Settings\Administrator\My Documents\Alarm Controller\PIC Code\HTTPDynVariables.c
                  __pa_54   0x00ad88    program     static C:\Documents and Settings\Administrator\My Documents\Alarm Controller\Microchip\TCPIP Stack\HTTP2.c
                  __pa_54   0x011a28    program     static C:\Documents and Settings\Administrator\My Documents\Alarm Controller\PIC Code\Authenticate.c
                  __pa_55   0x00dc7c    program     static C:\Documents and Settings\Administrator\My Documents\Alarm Controller\PIC Code\SecurityXPLSender.c
                  __pa_55   0x0139c2    program     static C:\Documents and Settings\Administrator\My Documents\Alarm Controller\PIC Code\HTTPDynVariables.c
                  __pa_55   0x00ad96    program     static C:\Documents and Settings\Administrator\My Documents\Alarm Controller\Microchip\TCPIP Stack\HTTP2.c
                  __pa_55   0x00c094    program     static C:\Documents and Settings\Administrator\My Documents\Alarm Controller\Microchip\TCPIP Stack\SMTP.c
                  __pa_55   0x010e4c    program     static C:\Documents and Settings\Administrator\My Documents\Alarm Controller\Microchip\TCPIP Stack\MPFS2.c
                  __pa_55   0x002c58    program     static C:\Documents and Settings\Administrator\My Documents\Alarm Controller\Microchip\TCPIP Stack\TCP.c
                  __pa_55   0x011a30    program     static C:\Documents and Settings\Administrator\My Documents\Alarm Controller\PIC Code\Authenticate.c
                  __pa_55   0x01001a    program     static C:\Documents and Settings\Administrator\My Documents\Alarm Controller\PIC Code\xPL.c
                  __pa_55   0x0086a0    program     static C:\Documents and Settings\Administrator\My Documents\Alarm Controller\PIC Code\SecuritySystem.c
                  __pa_55   0x00eea6    program     static C:\Documents and Settings\Administrator\My Documents\Alarm Controller\PIC Code\HTTPForms.c
                  __pa_56   0x0086aa    program     static C:\Documents and Settings\Administrator\My Documents\Alarm Controller\PIC Code\SecuritySystem.c
                  __pa_56   0x00dc8a    program     static C:\Documents and Settings\Administrator\My Documents\Alarm Controller\PIC Code\SecurityXPLSender.c
                  __pa_56   0x010024    program     static C:\Documents and Settings\Administrator\My Documents\Alarm Controller\PIC Code\xPL.c
                  __pa_56   0x0139d2    program     static C:\Documents and Settings\Administrator\My Documents\Alarm Controller\PIC Code\HTTPDynVariables.c
                  __pa_56   0x00eeb4    program     static C:\Documents and Settings\Administrator\My Documents\Alarm Controller\PIC Code\HTTPForms.c
                  __pa_56   0x00ada4    program     static C:\Documents and Settings\Administrator\My Documents\Alarm Controller\Microchip\TCPIP Stack\HTTP2.c
                  __pa_56   0x011a3e    program     static C:\Documents and Settings\Administrator\My Documents\Alarm Controller\PIC Code\Authenticate.c
                  __pa_56   0x010e52    program     static C:\Documents and Settings\Administrator\My Documents\Alarm Controller\Microchip\TCPIP Stack\MPFS2.c
                  __pa_56   0x00c09c    program     static C:\Documents and Settings\Administrator\My Documents\Alarm Controller\Microchip\TCPIP Stack\SMTP.c
                  __pa_56   0x002c62    program     static C:\Documents and Settings\Administrator\My Documents\Alarm Controller\Microchip\TCPIP Stack\TCP.c
                  __pa_57   0x00dc9e    program     static C:\Documents and Settings\Administrator\My Documents\Alarm Controller\PIC Code\SecurityXPLSender.c
                  __pa_57   0x00eec0    program     static C:\Documents and Settings\Administrator\My Documents\Alarm Controller\PIC Code\HTTPForms.c
                  __pa_57   0x011a44    program     static C:\Documents and Settings\Administrator\My Documents\Alarm Controller\PIC Code\Authenticate.c
                  __pa_57   0x010e62    program     static C:\Documents and Settings\Administrator\My Documents\Alarm Controller\Microchip\TCPIP Stack\MPFS2.c
                  __pa_57   0x010034    program     static C:\Documents and Settings\Administrator\My Documents\Alarm Controller\PIC Code\xPL.c
                  __pa_57   0x00adb2    program     static C:\Documents and Settings\Administrator\My Documents\Alarm Controller\Microchip\TCPIP Stack\HTTP2.c
                  __pa_57   0x0086b2    program     static C:\Documents and Settings\Administrator\My Documents\Alarm Controller\PIC Code\SecuritySystem.c
                  __pa_57   0x00c0aa    program     static C:\Documents and Settings\Administrator\My Documents\Alarm Controller\Microchip\TCPIP Stack\SMTP.c
                  __pa_57   0x0139d8    program     static C:\Documents and Settings\Administrator\My Documents\Alarm Controller\PIC Code\HTTPDynVariables.c
                  __pa_57   0x002c7a    program     static C:\Documents and Settings\Administrator\My Documents\Alarm Controller\Microchip\TCPIP Stack\TCP.c
                  __pa_58   0x00dcac    program     static C:\Documents and Settings\Administrator\My Documents\Alarm Controller\PIC Code\SecurityXPLSender.c
                  __pa_58   0x0086c2    program     static C:\Documents and Settings\Administrator\My Documents\Alarm Controller\PIC Code\SecuritySystem.c
                  __pa_58   0x00adba    program     static C:\Documents and Settings\Administrator\My Documents\Alarm Controller\Microchip\TCPIP Stack\HTTP2.c
                  __pa_58   0x011a4c    program     static C:\Documents and Settings\Administrator\My Documents\Alarm Controller\PIC Code\Authenticate.c
                  __pa_58   0x0139e0    program     static C:\Documents and Settings\Administrator\My Documents\Alarm Controller\PIC Code\HTTPDynVariables.c
                  __pa_58   0x00eed0    program     static C:\Documents and Settings\Administrator\My Documents\Alarm Controller\PIC Code\HTTPForms.c
                  __pa_58   0x010040    program     static C:\Documents and Settings\Administrator\My Documents\Alarm Controller\PIC Code\xPL.c
                  __pa_58   0x00c0b4    program     static C:\Documents and Settings\Administrator\My Documents\Alarm Controller\Microchip\TCPIP Stack\SMTP.c
                  __pa_58   0x002c82    program     static C:\Documents and Settings\Administrator\My Documents\Alarm Controller\Microchip\TCPIP Stack\TCP.c
                  __pa_58   0x010e6e    program     static C:\Documents and Settings\Administrator\My Documents\Alarm Controller\Microchip\TCPIP Stack\MPFS2.c
                  __pa_59   0x0139e8    program     static C:\Documents and Settings\Administrator\My Documents\Alarm Controller\PIC Code\HTTPDynVariables.c
                  __pa_59   0x002c8a    program     static C:\Documents and Settings\Administrator\My Documents\Alarm Controller\Microchip\TCPIP Stack\TCP.c
                  __pa_59   0x00eee0    program     static C:\Documents and Settings\Administrator\My Documents\Alarm Controller\PIC Code\HTTPForms.c
                  __pa_59   0x010e74    program     static C:\Documents and Settings\Administrator\My Documents\Alarm Controller\Microchip\TCPIP Stack\MPFS2.c
                  __pa_59   0x00c0c2    program     static C:\Documents and Settings\Administrator\My Documents\Alarm Controller\Microchip\TCPIP Stack\SMTP.c
                  __pa_59   0x010048    program     static C:\Documents and Settings\Administrator\My Documents\Alarm Controller\PIC Code\xPL.c
                  __pa_59   0x011a56    program     static C:\Documents and Settings\Administrator\My Documents\Alarm Controller\PIC Code\Authenticate.c
                  __pa_59   0x0086ce    program     static C:\Documents and Settings\Administrator\My Documents\Alarm Controller\PIC Code\SecuritySystem.c
                  __pa_59   0x00dcbc    program     static C:\Documents and Settings\Administrator\My Documents\Alarm Controller\PIC Code\SecurityXPLSender.c
                  __pa_59   0x00adc4    program     static C:\Documents and Settings\Administrator\My Documents\Alarm Controller\Microchip\TCPIP Stack\HTTP2.c
                   __pa_6   0x00d998    program     static C:\Documents and Settings\Administrator\My Documents\Alarm Controller\PIC Code\SecurityXPLSender.c
                   __pa_6   0x014aa2    program     static C:\Documents and Settings\Administrator\My Documents\Alarm Controller\Microchip\TCPIP Stack\UDP.c
                   __pa_6   0x013720    program     static C:\Documents and Settings\Administrator\My Documents\Alarm Controller\PIC Code\HTTPDynVariables.c
                   __pa_6   0x00bdcc    program     static C:\Documents and Settings\Administrator\My Documents\Alarm Controller\Microchip\TCPIP Stack\SMTP.c
                   __pa_6   0x010b88    program     static C:\Documents and Settings\Administrator\My Documents\Alarm Controller\Microchip\TCPIP Stack\MPFS2.c
                   __pa_6   0x017c84    program     static C:\Documents and Settings\Administrator\My Documents\Alarm Controller\Microchip\TCPIP Stack\ARP.c
                   __pa_6   0x017876    program     static C:\Documents and Settings\Administrator\My Documents\Alarm Controller\PIC Code\MainDemo.c
                   __pa_6   0x00fd6e    program     static C:\Documents and Settings\Administrator\My Documents\Alarm Controller\PIC Code\xPL.c
                   __pa_6   0x0158d4    program     static C:\Documents and Settings\Administrator\My Documents\Alarm Controller\Microchip\TCPIP Stack\DNS.c
                   __pa_6   0x01434e    program     static C:\Documents and Settings\Administrator\My Documents\Alarm Controller\Microchip\TCPIP Stack\ETH97J60.c
                   __pa_6   0x00c90c    program     static C:\Documents and Settings\Administrator\My Documents\Alarm Controller\PIC Code\SMTP.c
                   __pa_6   0x00ab34    program     static C:\Documents and Settings\Administrator\My Documents\Alarm Controller\Microchip\TCPIP Stack\HTTP2.c
                   __pa_6   0x015162    program     static C:\Documents and Settings\Administrator\My Documents\Alarm Controller\PIC Code\EOL.c
                   __pa_6   0x018a42    program     static C:\Documents and Settings\Administrator\My Documents\Alarm Controller\Microchip\TCPIP Stack\SPIEEPROM.c
                   __pa_6   0x0028ba    program     static C:\Documents and Settings\Administrator\My Documents\Alarm Controller\Microchip\TCPIP Stack\TCP.c
                   __pa_6   0x012fbe    program     static C:\Documents and Settings\Administrator\My Documents\Alarm Controller\PIC Code\AES.c
                   __pa_6   0x008420    program     static C:\Documents and Settings\Administrator\My Documents\Alarm Controller\PIC Code\SecuritySystem.c
                   __pa_6   0x012508    program     static C:\Documents and Settings\Administrator\My Documents\Alarm Controller\Microchip\TCPIP Stack\Helpers.c
                   __pa_6   0x01881a    program     static C:\Documents and Settings\Administrator\My Documents\Alarm Controller\Microchip\TCPIP Stack\IP.c
                   __pa_6   0x015f04    program     static C:\Documents and Settings\Administrator\My Documents\Alarm Controller\PIC Code\SNTP Customised.c
                   __pa_6   0x00ec40    program     static C:\Documents and Settings\Administrator\My Documents\Alarm Controller\PIC Code\HTTPForms.c
                   __pa_6   0x011772    program     static C:\Documents and Settings\Administrator\My Documents\Alarm Controller\PIC Code\Authenticate.c
                   __pa_6   0x018342    program     static C:\Documents and Settings\Administrator\My Documents\Alarm Controller\Microchip\TCPIP Stack\NBNS.c
                  __pa_60   0x002ca0    program     static C:\Documents and Settings\Administrator\My Documents\Alarm Controller\Microchip\TCPIP Stack\TCP.c
                  __pa_60   0x00eeea    program     static C:\Documents and Settings\Administrator\My Documents\Alarm Controller\PIC Code\HTTPForms.c
                  __pa_60   0x011a5c    program     static C:\Documents and Settings\Administrator\My Documents\Alarm Controller\PIC Code\Authenticate.c
                  __pa_60   0x0086da    program     static C:\Documents and Settings\Administrator\My Documents\Alarm Controller\PIC Code\SecuritySystem.c
                  __pa_60   0x00adce    program     static C:\Documents and Settings\Administrator\My Documents\Alarm Controller\Microchip\TCPIP Stack\HTTP2.c
                  __pa_60   0x0139f2    program     static C:\Documents and Settings\Administrator\My Documents\Alarm Controller\PIC Code\HTTPDynVariables.c
                  __pa_60   0x00dcc8    program     static C:\Documents and Settings\Administrator\My Documents\Alarm Controller\PIC Code\SecurityXPLSender.c
                  __pa_60   0x00c0ca    program     static C:\Documents and Settings\Administrator\My Documents\Alarm Controller\Microchip\TCPIP Stack\SMTP.c
                  __pa_60   0x01004e    program     static C:\Documents and Settings\Administrator\My Documents\Alarm Controller\PIC Code\xPL.c
                  __pa_61   0x0139fa    program     static C:\Documents and Settings\Administrator\My Documents\Alarm Controller\PIC Code\HTTPDynVariables.c
                  __pa_61   0x00add6    program     static C:\Documents and Settings\Administrator\My Documents\Alarm Controller\Microchip\TCPIP Stack\HTTP2.c
                  __pa_61   0x002cb2    program     static C:\Documents and Settings\Administrator\My Documents\Alarm Controller\Microchip\TCPIP Stack\TCP.c
                  __pa_61   0x00dcce    program     static C:\Documents and Settings\Administrator\My Documents\Alarm Controller\PIC Code\SecurityXPLSender.c
                  __pa_61   0x00eef4    program     static C:\Documents and Settings\Administrator\My Documents\Alarm Controller\PIC Code\HTTPForms.c
                  __pa_61   0x010058    program     static C:\Documents and Settings\Administrator\My Documents\Alarm Controller\PIC Code\xPL.c
                  __pa_61   0x011a64    program     static C:\Documents and Settings\Administrator\My Documents\Alarm Controller\PIC Code\Authenticate.c
                  __pa_61   0x00c0d2    program     static C:\Documents and Settings\Administrator\My Documents\Alarm Controller\Microchip\TCPIP Stack\SMTP.c
                  __pa_61   0x0086e0    program     static C:\Documents and Settings\Administrator\My Documents\Alarm Controller\PIC Code\SecuritySystem.c
                  __pa_62   0x01005e    program     static C:\Documents and Settings\Administrator\My Documents\Alarm Controller\PIC Code\xPL.c
                  __pa_62   0x013a04    program     static C:\Documents and Settings\Administrator\My Documents\Alarm Controller\PIC Code\HTTPDynVariables.c
                  __pa_62   0x00c0dc    program     static C:\Documents and Settings\Administrator\My Documents\Alarm Controller\Microchip\TCPIP Stack\SMTP.c
                  __pa_62   0x002cc8    program     static C:\Documents and Settings\Administrator\My Documents\Alarm Controller\Microchip\TCPIP Stack\TCP.c
                  __pa_62   0x00eefa    program     static C:\Documents and Settings\Administrator\My Documents\Alarm Controller\PIC Code\HTTPForms.c
                  __pa_62   0x00dcd8    program     static C:\Documents and Settings\Administrator\My Documents\Alarm Controller\PIC Code\SecurityXPLSender.c
                  __pa_62   0x0086ea    program     static C:\Documents and Settings\Administrator\My Documents\Alarm Controller\PIC Code\SecuritySystem.c
                  __pa_62   0x011a72    program     static C:\Documents and Settings\Administrator\My Documents\Alarm Controller\PIC Code\Authenticate.c
                  __pa_62   0x00ade0    program     static C:\Documents and Settings\Administrator\My Documents\Alarm Controller\Microchip\TCPIP Stack\HTTP2.c
                  __pa_63   0x00dce6    program     static C:\Documents and Settings\Administrator\My Documents\Alarm Controller\PIC Code\SecurityXPLSender.c
                  __pa_63   0x00ef04    program     static C:\Documents and Settings\Administrator\My Documents\Alarm Controller\PIC Code\HTTPForms.c
                  __pa_63   0x0086f4    program     static C:\Documents and Settings\Administrator\My Documents\Alarm Controller\PIC Code\SecuritySystem.c
                  __pa_63   0x00c0e4    program     static C:\Documents and Settings\Administrator\My Documents\Alarm Controller\Microchip\TCPIP Stack\SMTP.c
                  __pa_63   0x002cde    program     static C:\Documents and Settings\Administrator\My Documents\Alarm Controller\Microchip\TCPIP Stack\TCP.c
                  __pa_63   0x013a0c    program     static C:\Documents and Settings\Administrator\My Documents\Alarm Controller\PIC Code\HTTPDynVariables.c
                  __pa_63   0x00adec    program     static C:\Documents and Settings\Administrator\My Documents\Alarm Controller\Microchip\TCPIP Stack\HTTP2.c
                  __pa_63   0x010066    program     static C:\Documents and Settings\Administrator\My Documents\Alarm Controller\PIC Code\xPL.c
                  __pa_64   0x00adf2    program     static C:\Documents and Settings\Administrator\My Documents\Alarm Controller\Microchip\TCPIP Stack\HTTP2.c
                  __pa_64   0x002cec    program     static C:\Documents and Settings\Administrator\My Documents\Alarm Controller\Microchip\TCPIP Stack\TCP.c
                  __pa_64   0x0086fa    program     static C:\Documents and Settings\Administrator\My Documents\Alarm Controller\PIC Code\SecuritySystem.c
                  __pa_64   0x00ef0a    program     static C:\Documents and Settings\Administrator\My Documents\Alarm Controller\PIC Code\HTTPForms.c
                  __pa_64   0x00dcf4    program     static C:\Documents and Settings\Administrator\My Documents\Alarm Controller\PIC Code\SecurityXPLSender.c
                  __pa_64   0x01006c    program     static C:\Documents and Settings\Administrator\My Documents\Alarm Controller\PIC Code\xPL.c
                  __pa_64   0x013a18    program     static C:\Documents and Settings\Administrator\My Documents\Alarm Controller\PIC Code\HTTPDynVariables.c
                  __pa_65   0x00dd02    program     static C:\Documents and Settings\Administrator\My Documents\Alarm Controller\PIC Code\SecurityXPLSender.c
                  __pa_65   0x00adfe    program     static C:\Documents and Settings\Administrator\My Documents\Alarm Controller\Microchip\TCPIP Stack\HTTP2.c
                  __pa_65   0x008700    program     static C:\Documents and Settings\Administrator\My Documents\Alarm Controller\PIC Code\SecuritySystem.c
                  __pa_65   0x002cfa    program     static C:\Documents and Settings\Administrator\My Documents\Alarm Controller\Microchip\TCPIP Stack\TCP.c
                  __pa_65   0x00ef14    program     static C:\Documents and Settings\Administrator\My Documents\Alarm Controller\PIC Code\HTTPForms.c
                  __pa_65   0x01007a    program     static C:\Documents and Settings\Administrator\My Documents\Alarm Controller\PIC Code\xPL.c
                  __pa_65   0x013a20    program     static C:\Documents and Settings\Administrator\My Documents\Alarm Controller\PIC Code\HTTPDynVariables.c
                  __pa_66   0x008706    program     static C:\Documents and Settings\Administrator\My Documents\Alarm Controller\PIC Code\SecuritySystem.c
                  __pa_66   0x00ef1e    program     static C:\Documents and Settings\Administrator\My Documents\Alarm Controller\PIC Code\HTTPForms.c
                  __pa_66   0x013a24    program     static C:\Documents and Settings\Administrator\My Documents\Alarm Controller\PIC Code\HTTPDynVariables.c
                  __pa_66   0x00ae12    program     static C:\Documents and Settings\Administrator\My Documents\Alarm Controller\Microchip\TCPIP Stack\HTTP2.c
                  __pa_66   0x002d04    program     static C:\Documents and Settings\Administrator\My Documents\Alarm Controller\Microchip\TCPIP Stack\TCP.c
                  __pa_66   0x00dd12    program     static C:\Documents and Settings\Administrator\My Documents\Alarm Controller\PIC Code\SecurityXPLSender.c
                  __pa_67   0x00ef2c    program     static C:\Documents and Settings\Administrator\My Documents\Alarm Controller\PIC Code\HTTPForms.c
                  __pa_67   0x00ae18    program     static C:\Documents and Settings\Administrator\My Documents\Alarm Controller\Microchip\TCPIP Stack\HTTP2.c
                  __pa_67   0x00dd1e    program     static C:\Documents and Settings\Administrator\My Documents\Alarm Controller\PIC Code\SecurityXPLSender.c
                  __pa_67   0x00871c    program     static C:\Documents and Settings\Administrator\My Documents\Alarm Controller\PIC Code\SecuritySystem.c
                  __pa_67   0x002d0e    program     static C:\Documents and Settings\Administrator\My Documents\Alarm Controller\Microchip\TCPIP Stack\TCP.c
                  __pa_67   0x013a2c    program     static C:\Documents and Settings\Administrator\My Documents\Alarm Controller\PIC Code\HTTPDynVariables.c
                  __pa_68   0x00ae22    program     static C:\Documents and Settings\Administrator\My Documents\Alarm Controller\Microchip\TCPIP Stack\HTTP2.c
                  __pa_68   0x00ef3a    program     static C:\Documents and Settings\Administrator\My Documents\Alarm Controller\PIC Code\HTTPForms.c
                  __pa_68   0x013a34    program     static C:\Documents and Settings\Administrator\My Documents\Alarm Controller\PIC Code\HTTPDynVariables.c
                  __pa_68   0x008728    program     static C:\Documents and Settings\Administrator\My Documents\Alarm Controller\PIC Code\SecuritySystem.c
                  __pa_68   0x002d18    program     static C:\Documents and Settings\Administrator\My Documents\Alarm Controller\Microchip\TCPIP Stack\TCP.c
                  __pa_68   0x00dd2c    program     static C:\Documents and Settings\Administrator\My Documents\Alarm Controller\PIC Code\SecurityXPLSender.c
                  __pa_69   0x00dd3c    program     static C:\Documents and Settings\Administrator\My Documents\Alarm Controller\PIC Code\SecurityXPLSender.c
                  __pa_69   0x00ae2c    program     static C:\Documents and Settings\Administrator\My Documents\Alarm Controller\Microchip\TCPIP Stack\HTTP2.c
                  __pa_69   0x00ef48    program     static C:\Documents and Settings\Administrator\My Documents\Alarm Controller\PIC Code\HTTPForms.c
                  __pa_69   0x008732    program     static C:\Documents and Settings\Administrator\My Documents\Alarm Controller\PIC Code\SecuritySystem.c
                  __pa_69   0x002d22    program     static C:\Documents and Settings\Administrator\My Documents\Alarm Controller\Microchip\TCPIP Stack\TCP.c
                   __pa_7   0x01517e    program     static C:\Documents and Settings\Administrator\My Documents\Alarm Controller\PIC Code\EOL.c
                   __pa_7   0x00ab3a    program     static C:\Documents and Settings\Administrator\My Documents\Alarm Controller\Microchip\TCPIP Stack\HTTP2.c
                   __pa_7   0x0028c4    program     static C:\Documents and Settings\Administrator\My Documents\Alarm Controller\Microchip\TCPIP Stack\TCP.c
                   __pa_7   0x012fc6    program     static C:\Documents and Settings\Administrator\My Documents\Alarm Controller\PIC Code\AES.c
                   __pa_7   0x00842a    program     static C:\Documents and Settings\Administrator\My Documents\Alarm Controller\PIC Code\SecuritySystem.c
                   __pa_7   0x00ec56    program     static C:\Documents and Settings\Administrator\My Documents\Alarm Controller\PIC Code\HTTPForms.c
                   __pa_7   0x011796    program     static C:\Documents and Settings\Administrator\My Documents\Alarm Controller\PIC Code\Authenticate.c
                   __pa_7   0x01834e    program     static C:\Documents and Settings\Administrator\My Documents\Alarm Controller\Microchip\TCPIP Stack\NBNS.c
                   __pa_7   0x015f10    program     static C:\Documents and Settings\Administrator\My Documents\Alarm Controller\PIC Code\SNTP Customised.c
                   __pa_7   0x01250e    program     static C:\Documents and Settings\Administrator\My Documents\Alarm Controller\Microchip\TCPIP Stack\Helpers.c
                   __pa_7   0x01435a    program     static C:\Documents and Settings\Administrator\My Documents\Alarm Controller\Microchip\TCPIP Stack\ETH97J60.c
                   __pa_7   0x0158de    program     static C:\Documents and Settings\Administrator\My Documents\Alarm Controller\Microchip\TCPIP Stack\DNS.c
                   __pa_7   0x017c9e    program     static C:\Documents and Settings\Administrator\My Documents\Alarm Controller\Microchip\TCPIP Stack\ARP.c
                   __pa_7   0x017886    program     static C:\Documents and Settings\Administrator\My Documents\Alarm Controller\PIC Code\MainDemo.c
                   __pa_7   0x010b8e    program     static C:\Documents and Settings\Administrator\My Documents\Alarm Controller\Microchip\TCPIP Stack\MPFS2.c
                   __pa_7   0x00fd78    program     static C:\Documents and Settings\Administrator\My Documents\Alarm Controller\PIC Code\xPL.c
                   __pa_7   0x00c91c    program     static C:\Documents and Settings\Administrator\My Documents\Alarm Controller\PIC Code\SMTP.c
                   __pa_7   0x013726    program     static C:\Documents and Settings\Administrator\My Documents\Alarm Controller\PIC Code\HTTPDynVariables.c
                   __pa_7   0x014aaa    program     static C:\Documents and Settings\Administrator\My Documents\Alarm Controller\Microchip\TCPIP Stack\UDP.c
                   __pa_7   0x00d9a2    program     static C:\Documents and Settings\Administrator\My Documents\Alarm Controller\PIC Code\SecurityXPLSender.c
                   __pa_7   0x00bde8    program     static C:\Documents and Settings\Administrator\My Documents\Alarm Controller\Microchip\TCPIP Stack\SMTP.c
                  __pa_70   0x00dd44    program     static C:\Documents and Settings\Administrator\My Documents\Alarm Controller\PIC Code\SecurityXPLSender.c
                  __pa_70   0x00ae36    program     static C:\Documents and Settings\Administrator\My Documents\Alarm Controller\Microchip\TCPIP Stack\HTTP2.c
                  __pa_70   0x008740    program     static C:\Documents and Settings\Administrator\My Documents\Alarm Controller\PIC Code\SecuritySystem.c
                  __pa_70   0x002d2c    program     static C:\Documents and Settings\Administrator\My Documents\Alarm Controller\Microchip\TCPIP Stack\TCP.c
                  __pa_70   0x00ef52    program     static C:\Documents and Settings\Administrator\My Documents\Alarm Controller\PIC Code\HTTPForms.c
                  __pa_71   0x00dd4e    program     static C:\Documents and Settings\Administrator\My Documents\Alarm Controller\PIC Code\SecurityXPLSender.c
                  __pa_71   0x00ae3e    program     static C:\Documents and Settings\Administrator\My Documents\Alarm Controller\Microchip\TCPIP Stack\HTTP2.c
                  __pa_71   0x00874c    program     static C:\Documents and Settings\Administrator\My Documents\Alarm Controller\PIC Code\SecuritySystem.c
                  __pa_71   0x002d3a    program     static C:\Documents and Settings\Administrator\My Documents\Alarm Controller\Microchip\TCPIP Stack\TCP.c
                  __pa_72   0x00dd56    program     static C:\Documents and Settings\Administrator\My Documents\Alarm Controller\PIC Code\SecurityXPLSender.c
                  __pa_72   0x00ae4c    program     static C:\Documents and Settings\Administrator\My Documents\Alarm Controller\Microchip\TCPIP Stack\HTTP2.c
                  __pa_72   0x002d4e    program     static C:\Documents and Settings\Administrator\My Documents\Alarm Controller\Microchip\TCPIP Stack\TCP.c
                  __pa_72   0x00875c    program     static C:\Documents and Settings\Administrator\My Documents\Alarm Controller\PIC Code\SecuritySystem.c
                  __pa_73   0x002d62    program     static C:\Documents and Settings\Administrator\My Documents\Alarm Controller\Microchip\TCPIP Stack\TCP.c
                  __pa_73   0x00dd5c    program     static C:\Documents and Settings\Administrator\My Documents\Alarm Controller\PIC Code\SecurityXPLSender.c
                  __pa_73   0x00ae56    program     static C:\Documents and Settings\Administrator\My Documents\Alarm Controller\Microchip\TCPIP Stack\HTTP2.c
                  __pa_73   0x008778    program     static C:\Documents and Settings\Administrator\My Documents\Alarm Controller\PIC Code\SecuritySystem.c
                  __pa_74   0x002d76    program     static C:\Documents and Settings\Administrator\My Documents\Alarm Controller\Microchip\TCPIP Stack\TCP.c
                  __pa_74   0x00dd62    program     static C:\Documents and Settings\Administrator\My Documents\Alarm Controller\PIC Code\SecurityXPLSender.c
                  __pa_74   0x00ae60    program     static C:\Documents and Settings\Administrator\My Documents\Alarm Controller\Microchip\TCPIP Stack\HTTP2.c
                  __pa_74   0x00878e    program     static C:\Documents and Settings\Administrator\My Documents\Alarm Controller\PIC Code\SecuritySystem.c
                  __pa_75   0x00dd6a    program     static C:\Documents and Settings\Administrator\My Documents\Alarm Controller\PIC Code\SecurityXPLSender.c
                  __pa_75   0x00ae6c    program     static C:\Documents and Settings\Administrator\My Documents\Alarm Controller\Microchip\TCPIP Stack\HTTP2.c
                  __pa_75   0x008794    program     static C:\Documents and Settings\Administrator\My Documents\Alarm Controller\PIC Code\SecuritySystem.c
                  __pa_75   0x002d8a    program     static C:\Documents and Settings\Administrator\My Documents\Alarm Controller\Microchip\TCPIP Stack\TCP.c
                  __pa_76   0x002d92    program     static C:\Documents and Settings\Administrator\My Documents\Alarm Controller\Microchip\TCPIP Stack\TCP.c
                  __pa_76   0x00dd72    program     static C:\Documents and Settings\Administrator\My Documents\Alarm Controller\PIC Code\SecurityXPLSender.c
                  __pa_76   0x0087a6    program     static C:\Documents and Settings\Administrator\My Documents\Alarm Controller\PIC Code\SecuritySystem.c
                  __pa_76   0x00ae74    program     static C:\Documents and Settings\Administrator\My Documents\Alarm Controller\Microchip\TCPIP Stack\HTTP2.c
                  __pa_77   0x00dd78    program     static C:\Documents and Settings\Administrator\My Documents\Alarm Controller\PIC Code\SecurityXPLSender.c
                  __pa_77   0x00ae82    program     static C:\Documents and Settings\Administrator\My Documents\Alarm Controller\Microchip\TCPIP Stack\HTTP2.c
                  __pa_77   0x0087b2    program     static C:\Documents and Settings\Administrator\My Documents\Alarm Controller\PIC Code\SecuritySystem.c
                  __pa_77   0x002da4    program     static C:\Documents and Settings\Administrator\My Documents\Alarm Controller\Microchip\TCPIP Stack\TCP.c
                  __pa_78   0x002db6    program     static C:\Documents and Settings\Administrator\My Documents\Alarm Controller\Microchip\TCPIP Stack\TCP.c
                  __pa_78   0x00ae8a    program     static C:\Documents and Settings\Administrator\My Documents\Alarm Controller\Microchip\TCPIP Stack\HTTP2.c
                  __pa_78   0x0087be    program     static C:\Documents and Settings\Administrator\My Documents\Alarm Controller\PIC Code\SecuritySystem.c
                  __pa_78   0x00dd88    program     static C:\Documents and Settings\Administrator\My Documents\Alarm Controller\PIC Code\SecurityXPLSender.c
                  __pa_79   0x0087ca    program     static C:\Documents and Settings\Administrator\My Documents\Alarm Controller\PIC Code\SecuritySystem.c
                  __pa_79   0x002dc8    program     static C:\Documents and Settings\Administrator\My Documents\Alarm Controller\Microchip\TCPIP Stack\TCP.c
                  __pa_79   0x00ae90    program     static C:\Documents and Settings\Administrator\My Documents\Alarm Controller\Microchip\TCPIP Stack\HTTP2.c
                  __pa_79   0x00dd90    program     static C:\Documents and Settings\Administrator\My Documents\Alarm Controller\PIC Code\SecurityXPLSender.c
                   __pa_8   0x014368    program     static C:\Documents and Settings\Administrator\My Documents\Alarm Controller\Microchip\TCPIP Stack\ETH97J60.c
                   __pa_8   0x012528    program     static C:\Documents and Settings\Administrator\My Documents\Alarm Controller\Microchip\TCPIP Stack\Helpers.c
                   __pa_8   0x00bdee    program     static C:\Documents and Settings\Administrator\My Documents\Alarm Controller\Microchip\TCPIP Stack\SMTP.c
                   __pa_8   0x012fce    program     static C:\Documents and Settings\Administrator\My Documents\Alarm Controller\PIC Code\AES.c
                   __pa_8   0x008436    program     static C:\Documents and Settings\Administrator\My Documents\Alarm Controller\PIC Code\SecuritySystem.c
                   __pa_8   0x00ab44    program     static C:\Documents and Settings\Administrator\My Documents\Alarm Controller\Microchip\TCPIP Stack\HTTP2.c
                   __pa_8   0x015f1c    program     static C:\Documents and Settings\Administrator\My Documents\Alarm Controller\PIC Code\SNTP Customised.c
                   __pa_8   0x0117a0    program     static C:\Documents and Settings\Administrator\My Documents\Alarm Controller\PIC Code\Authenticate.c
                   __pa_8   0x00ec5e    program     static C:\Documents and Settings\Administrator\My Documents\Alarm Controller\PIC Code\HTTPForms.c
                   __pa_8   0x00fd8c    program     static C:\Documents and Settings\Administrator\My Documents\Alarm Controller\PIC Code\xPL.c
                   __pa_8   0x01518c    program     static C:\Documents and Settings\Administrator\My Documents\Alarm Controller\PIC Code\EOL.c
                   __pa_8   0x013730    program     static C:\Documents and Settings\Administrator\My Documents\Alarm Controller\PIC Code\HTTPDynVariables.c
                   __pa_8   0x00c92e    program     static C:\Documents and Settings\Administrator\My Documents\Alarm Controller\PIC Code\SMTP.c
                   __pa_8   0x010b96    program     static C:\Documents and Settings\Administrator\My Documents\Alarm Controller\Microchip\TCPIP Stack\MPFS2.c
                   __pa_8   0x014ab4    program     static C:\Documents and Settings\Administrator\My Documents\Alarm Controller\Microchip\TCPIP Stack\UDP.c
                   __pa_8   0x00d9ac    program     static C:\Documents and Settings\Administrator\My Documents\Alarm Controller\PIC Code\SecurityXPLSender.c
                   __pa_8   0x0158f4    program     static C:\Documents and Settings\Administrator\My Documents\Alarm Controller\Microchip\TCPIP Stack\DNS.c
                   __pa_8   0x017896    program     static C:\Documents and Settings\Administrator\My Documents\Alarm Controller\PIC Code\MainDemo.c
                   __pa_8   0x0028da    program     static C:\Documents and Settings\Administrator\My Documents\Alarm Controller\Microchip\TCPIP Stack\TCP.c
                  __pa_80   0x00dd96    program     static C:\Documents and Settings\Administrator\My Documents\Alarm Controller\PIC Code\SecurityXPLSender.c
                  __pa_80   0x0087e0    program     static C:\Documents and Settings\Administrator\My Documents\Alarm Controller\PIC Code\SecuritySystem.c
                  __pa_80   0x00aea0    program     static C:\Documents and Settings\Administrator\My Documents\Alarm Controller\Microchip\TCPIP Stack\HTTP2.c
                  __pa_80   0x002dda    program     static C:\Documents and Settings\Administrator\My Documents\Alarm Controller\Microchip\TCPIP Stack\TCP.c
                  __pa_81   0x00aeae    program     static C:\Documents and Settings\Administrator\My Documents\Alarm Controller\Microchip\TCPIP Stack\HTTP2.c
                  __pa_81   0x00dd9c    program     static C:\Documents and Settings\Administrator\My Documents\Alarm Controller\PIC Code\SecurityXPLSender.c
                  __pa_81   0x0087e6    program     static C:\Documents and Settings\Administrator\My Documents\Alarm Controller\PIC Code\SecuritySystem.c
                  __pa_81   0x002de2    program     static C:\Documents and Settings\Administrator\My Documents\Alarm Controller\Microchip\TCPIP Stack\TCP.c
                  __pa_82   0x00aebc    program     static C:\Documents and Settings\Administrator\My Documents\Alarm Controller\Microchip\TCPIP Stack\HTTP2.c
                  __pa_82   0x00ddaa    program     static C:\Documents and Settings\Administrator\My Documents\Alarm Controller\PIC Code\SecurityXPLSender.c
                  __pa_82   0x002dea    program     static C:\Documents and Settings\Administrator\My Documents\Alarm Controller\Microchip\TCPIP Stack\TCP.c
                  __pa_82   0x0087fc    program     static C:\Documents and Settings\Administrator\My Documents\Alarm Controller\PIC Code\SecuritySystem.c
                  __pa_83   0x002df4    program     static C:\Documents and Settings\Administrator\My Documents\Alarm Controller\Microchip\TCPIP Stack\TCP.c
                  __pa_83   0x008802    program     static C:\Documents and Settings\Administrator\My Documents\Alarm Controller\PIC Code\SecuritySystem.c
                  __pa_83   0x00ddb8    program     static C:\Documents and Settings\Administrator\My Documents\Alarm Controller\PIC Code\SecurityXPLSender.c
                  __pa_83   0x00aeca    program     static C:\Documents and Settings\Administrator\My Documents\Alarm Controller\Microchip\TCPIP Stack\HTTP2.c
                  __pa_84   0x008812    program     static C:\Documents and Settings\Administrator\My Documents\Alarm Controller\PIC Code\SecuritySystem.c
                  __pa_84   0x00ddbe    program     static C:\Documents and Settings\Administrator\My Documents\Alarm Controller\PIC Code\SecurityXPLSender.c
                  __pa_84   0x00aed4    program     static C:\Documents and Settings\Administrator\My Documents\Alarm Controller\Microchip\TCPIP Stack\HTTP2.c
                  __pa_84   0x002dfe    program     static C:\Documents and Settings\Administrator\My Documents\Alarm Controller\Microchip\TCPIP Stack\TCP.c
                  __pa_85   0x00aee0    program     static C:\Documents and Settings\Administrator\My Documents\Alarm Controller\Microchip\TCPIP Stack\HTTP2.c
                  __pa_85   0x00881e    program     static C:\Documents and Settings\Administrator\My Documents\Alarm Controller\PIC Code\SecuritySystem.c
                  __pa_85   0x002e06    program     static C:\Documents and Settings\Administrator\My Documents\Alarm Controller\Microchip\TCPIP Stack\TCP.c
                  __pa_85   0x00ddca    program     static C:\Documents and Settings\Administrator\My Documents\Alarm Controller\PIC Code\SecurityXPLSender.c
                  __pa_86   0x00aee6    program     static C:\Documents and Settings\Administrator\My Documents\Alarm Controller\Microchip\TCPIP Stack\HTTP2.c
                  __pa_86   0x002e16    program     static C:\Documents and Settings\Administrator\My Documents\Alarm Controller\Microchip\TCPIP Stack\TCP.c
                  __pa_86   0x008830    program     static C:\Documents and Settings\Administrator\My Documents\Alarm Controller\PIC Code\SecuritySystem.c
                  __pa_86   0x00ddd2    program     static C:\Documents and Settings\Administrator\My Documents\Alarm Controller\PIC Code\SecurityXPLSender.c
                  __pa_87   0x002e26    program     static C:\Documents and Settings\Administrator\My Documents\Alarm Controller\Microchip\TCPIP Stack\TCP.c
                  __pa_87   0x00aef2    program     static C:\Documents and Settings\Administrator\My Documents\Alarm Controller\Microchip\TCPIP Stack\HTTP2.c
                  __pa_87   0x00883c    program     static C:\Documents and Settings\Administrator\My Documents\Alarm Controller\PIC Code\SecuritySystem.c
                  __pa_87   0x00ddd8    program     static C:\Documents and Settings\Administrator\My Documents\Alarm Controller\PIC Code\SecurityXPLSender.c
                  __pa_88   0x008844    program     static C:\Documents and Settings\Administrator\My Documents\Alarm Controller\PIC Code\SecuritySystem.c
                  __pa_88   0x00aefc    program     static C:\Documents and Settings\Administrator\My Documents\Alarm Controller\Microchip\TCPIP Stack\HTTP2.c
                  __pa_88   0x002e36    program     static C:\Documents and Settings\Administrator\My Documents\Alarm Controller\Microchip\TCPIP Stack\TCP.c
                  __pa_89   0x00884c    program     static C:\Documents and Settings\Administrator\My Documents\Alarm Controller\PIC Code\SecuritySystem.c
                  __pa_89   0x002e3e    program     static C:\Documents and Settings\Administrator\My Documents\Alarm Controller\Microchip\TCPIP Stack\TCP.c
                  __pa_89   0x00af06    program     static C:\Documents and Settings\Administrator\My Documents\Alarm Controller\Microchip\TCPIP Stack\HTTP2.c
                   __pa_9   0x012fd6    program     static C:\Documents and Settings\Administrator\My Documents\Alarm Controller\PIC Code\AES.c
                   __pa_9   0x00ec68    program     static C:\Documents and Settings\Administrator\My Documents\Alarm Controller\PIC Code\HTTPForms.c
                   __pa_9   0x00d9b8    program     static C:\Documents and Settings\Administrator\My Documents\Alarm Controller\PIC Code\SecurityXPLSender.c
                   __pa_9   0x00be06    program     static C:\Documents and Settings\Administrator\My Documents\Alarm Controller\Microchip\TCPIP Stack\SMTP.c
                   __pa_9   0x0151a2    program     static C:\Documents and Settings\Administrator\My Documents\Alarm Controller\PIC Code\EOL.c
                   __pa_9   0x00c93a    program     static C:\Documents and Settings\Administrator\My Documents\Alarm Controller\PIC Code\SMTP.c
                   __pa_9   0x010ba8    program     static C:\Documents and Settings\Administrator\My Documents\Alarm Controller\Microchip\TCPIP Stack\MPFS2.c
                   __pa_9   0x015f2a    program     static C:\Documents and Settings\Administrator\My Documents\Alarm Controller\PIC Code\SNTP Customised.c
                   __pa_9   0x0028e4    program     static C:\Documents and Settings\Administrator\My Documents\Alarm Controller\Microchip\TCPIP Stack\TCP.c
                   __pa_9   0x0117ac    program     static C:\Documents and Settings\Administrator\My Documents\Alarm Controller\PIC Code\Authenticate.c
                   __pa_9   0x00fd96    program     static C:\Documents and Settings\Administrator\My Documents\Alarm Controller\PIC Code\xPL.c
                   __pa_9   0x015900    program     static C:\Documents and Settings\Administrator\My Documents\Alarm Controller\Microchip\TCPIP Stack\DNS.c
                   __pa_9   0x014370    program     static C:\Documents and Settings\Administrator\My Documents\Alarm Controller\Microchip\TCPIP Stack\ETH97J60.c
                   __pa_9   0x01253a    program     static C:\Documents and Settings\Administrator\My Documents\Alarm Controller\Microchip\TCPIP Stack\Helpers.c
                   __pa_9   0x008442    program     static C:\Documents and Settings\Administrator\My Documents\Alarm Controller\PIC Code\SecuritySystem.c
                   __pa_9   0x014abc    program     static C:\Documents and Settings\Administrator\My Documents\Alarm Controller\Microchip\TCPIP Stack\UDP.c
                   __pa_9   0x01373e    program     static C:\Documents and Settings\Administrator\My Documents\Alarm Controller\PIC Code\HTTPDynVariables.c
                   __pa_9   0x00ab5e    program     static C:\Documents and Settings\Administrator\My Documents\Alarm Controller\Microchip\TCPIP Stack\HTTP2.c
                  __pa_90   0x00af0e    program     static C:\Documents and Settings\Administrator\My Documents\Alarm Controller\Microchip\TCPIP Stack\HTTP2.c
                  __pa_90   0x008856    program     static C:\Documents and Settings\Administrator\My Documents\Alarm Controller\PIC Code\SecuritySystem.c
                  __pa_90   0x002e46    program     static C:\Documents and Settings\Administrator\My Documents\Alarm Controller\Microchip\TCPIP Stack\TCP.c
                  __pa_91   0x00af14    program     static C:\Documents and Settings\Administrator\My Documents\Alarm Controller\Microchip\TCPIP Stack\HTTP2.c
                  __pa_91   0x002e54    program     static C:\Documents and Settings\Administrator\My Documents\Alarm Controller\Microchip\TCPIP Stack\TCP.c
                  __pa_91   0x00885c    program     static C:\Documents and Settings\Administrator\My Documents\Alarm Controller\PIC Code\SecuritySystem.c
                  __pa_92   0x008870    program     static C:\Documents and Settings\Administrator\My Documents\Alarm Controller\PIC Code\SecuritySystem.c
                  __pa_92   0x00af1a    program     static C:\Documents and Settings\Administrator\My Documents\Alarm Controller\Microchip\TCPIP Stack\HTTP2.c
                  __pa_92   0x002e62    program     static C:\Documents and Settings\Administrator\My Documents\Alarm Controller\Microchip\TCPIP Stack\TCP.c
                  __pa_93   0x00887c    program     static C:\Documents and Settings\Administrator\My Documents\Alarm Controller\PIC Code\SecuritySystem.c
                  __pa_93   0x002e70    program     static C:\Documents and Settings\Administrator\My Documents\Alarm Controller\Microchip\TCPIP Stack\TCP.c
                  __pa_93   0x00af26    program     static C:\Documents and Settings\Administrator\My Documents\Alarm Controller\Microchip\TCPIP Stack\HTTP2.c
                  __pa_94   0x008890    program     static C:\Documents and Settings\Administrator\My Documents\Alarm Controller\PIC Code\SecuritySystem.c
                  __pa_94   0x002e7e    program     static C:\Documents and Settings\Administrator\My Documents\Alarm Controller\Microchip\TCPIP Stack\TCP.c
                  __pa_94   0x00af2e    program     static C:\Documents and Settings\Administrator\My Documents\Alarm Controller\Microchip\TCPIP Stack\HTTP2.c
                  __pa_95   0x00af3e    program     static C:\Documents and Settings\Administrator\My Documents\Alarm Controller\Microchip\TCPIP Stack\HTTP2.c
                  __pa_95   0x002e8c    program     static C:\Documents and Settings\Administrator\My Documents\Alarm Controller\Microchip\TCPIP Stack\TCP.c
                  __pa_95   0x00889c    program     static C:\Documents and Settings\Administrator\My Documents\Alarm Controller\PIC Code\SecuritySystem.c
                  __pa_96   0x0088a8    program     static C:\Documents and Settings\Administrator\My Documents\Alarm Controller\PIC Code\SecuritySystem.c
                  __pa_96   0x002e9a    program     static C:\Documents and Settings\Administrator\My Documents\Alarm Controller\Microchip\TCPIP Stack\TCP.c
                  __pa_96   0x00af46    program     static C:\Documents and Settings\Administrator\My Documents\Alarm Controller\Microchip\TCPIP Stack\HTTP2.c
                  __pa_97   0x0088ae    program     static C:\Documents and Settings\Administrator\My Documents\Alarm Controller\PIC Code\SecuritySystem.c
                  __pa_97   0x002ea8    program     static C:\Documents and Settings\Administrator\My Documents\Alarm Controller\Microchip\TCPIP Stack\TCP.c
                  __pa_97   0x00af56    program     static C:\Documents and Settings\Administrator\My Documents\Alarm Controller\Microchip\TCPIP Stack\HTTP2.c
                  __pa_98   0x002eb6    program     static C:\Documents and Settings\Administrator\My Documents\Alarm Controller\Microchip\TCPIP Stack\TCP.c
                  __pa_98   0x00af5c    program     static C:\Documents and Settings\Administrator\My Documents\Alarm Controller\Microchip\TCPIP Stack\HTTP2.c
                  __pa_98   0x0088b4    program     static C:\Documents and Settings\Administrator\My Documents\Alarm Controller\PIC Code\SecuritySystem.c
                  __pa_99   0x002ec0    program     static C:\Documents and Settings\Administrator\My Documents\Alarm Controller\Microchip\TCPIP Stack\TCP.c
                  __pa_99   0x0088c4    program     static C:\Documents and Settings\Administrator\My Documents\Alarm Controller\PIC Code\SecuritySystem.c
                  __pa_99   0x00af62    program     static C:\Documents and Settings\Administrator\My Documents\Alarm Controller\Microchip\TCPIP Stack\HTTP2.c
               __string_0   0x006067    program     static C:\Documents and Settings\Administrator\My Documents\Alarm Controller\PIC Code\Battery.c
               __string_0   0x004eb1    program     static C:\Documents and Settings\Administrator\My Documents\Alarm Controller\PIC Code\Authenticate.c
               __string_0   0x0039de    program     static C:\Documents and Settings\Administrator\My Documents\Alarm Controller\Microchip\TCPIP Stack\HTTP2.c
               __string_0   0x005c62    program     static C:\Documents and Settings\Administrator\My Documents\Alarm Controller\PIC Code\HTTPForms.c
               __string_0   0x0039e9    program     static C:\Documents and Settings\Administrator\My Documents\Alarm Controller\Microchip\TCPIP Stack\MPFS2.c
               __string_0   0x0057c9    program     static C:\Documents and Settings\Administrator\My Documents\Alarm Controller\PIC Code\SecurityXPLSender.c
               __string_0   0x0062a5    program     static C:\Documents and Settings\Administrator\My Documents\Alarm Controller\PIC Code\HTTPDynVariables.c
               __string_0   0x006259    program     static C:\Documents and Settings\Administrator\My Documents\Alarm Controller\PIC Code\SNTP Customised.c
               __string_0   0x0032ae    program     static C:\Documents and Settings\Administrator\My Documents\Alarm Controller\PIC Code\MainDemo.c
               __string_0   0x006145    program     static C:\Documents and Settings\Administrator\My Documents\Alarm Controller\PIC Code\EOL.c
               __string_0   0x006001    program     static C:\Documents and Settings\Administrator\My Documents\Alarm Controller\PIC Code\SMTP.c
               __string_0   0x004aa1    program     static C:\Documents and Settings\Administrator\My Documents\Alarm Controller\PIC Code\SecuritySystem.c
               __string_0   0x003a64    program     static C:\Documents and Settings\Administrator\My Documents\Alarm Controller\Microchip\TCPIP Stack\SMTP.c
               __string_1   0x003252    program     static C:\Documents and Settings\Administrator\My Documents\Alarm Controller\PIC Code\MainDemo.c
               __string_1   0x00624f    program     static C:\Documents and Settings\Administrator\My Documents\Alarm Controller\PIC Code\SNTP Customised.c
               __string_1   0x006143    program     static C:\Documents and Settings\Administrator\My Documents\Alarm Controller\PIC Code\EOL.c
               __string_1   0x00629c    program     static C:\Documents and Settings\Administrator\My Documents\Alarm Controller\PIC Code\HTTPDynVariables.c
               __string_1   0x005ff3    program     static C:\Documents and Settings\Administrator\My Documents\Alarm Controller\PIC Code\SMTP.c
               __string_1   0x0057c6    program     static C:\Documents and Settings\Administrator\My Documents\Alarm Controller\PIC Code\SecurityXPLSender.c
               __string_1   0x0039d3    program     static C:\Documents and Settings\Administrator\My Documents\Alarm Controller\Microchip\TCPIP Stack\HTTP2.c
               __string_1   0x005c5f    program     static C:\Documents and Settings\Administrator\My Documents\Alarm Controller\PIC Code\HTTPForms.c
               __string_1   0x004a9c    program     static C:\Documents and Settings\Administrator\My Documents\Alarm Controller\PIC Code\SecuritySystem.c
               __string_1   0x003a53    program     static C:\Documents and Settings\Administrator\My Documents\Alarm Controller\Microchip\TCPIP Stack\SMTP.c
               __string_1   0x004e81    program     static C:\Documents and Settings\Administrator\My Documents\Alarm Controller\PIC Code\Authenticate.c
               __string_1   0x00605e    program     static C:\Documents and Settings\Administrator\My Documents\Alarm Controller\PIC Code\Battery.c
              __string_10   0x0056f0    program     static C:\Documents and Settings\Administrator\My Documents\Alarm Controller\PIC Code\SecurityXPLSender.c
              __string_10   0x005c00    program     static C:\Documents and Settings\Administrator\My Documents\Alarm Controller\PIC Code\HTTPForms.c
              __string_10   0x004d59    program     static C:\Documents and Settings\Administrator\My Documents\Alarm Controller\PIC Code\Authenticate.c
              __string_10   0x0061a4    program     static C:\Documents and Settings\Administrator\My Documents\Alarm Controller\PIC Code\SNTP Customised.c
              __string_10   0x004260    program     static C:\Documents and Settings\Administrator\My Documents\Alarm Controller\PIC Code\xPL.c
              __string_10   0x003a0d    program     static C:\Documents and Settings\Administrator\My Documents\Alarm Controller\Microchip\TCPIP Stack\SMTP.c
              __string_10   0x004a63    program     static C:\Documents and Settings\Administrator\My Documents\Alarm Controller\PIC Code\SecuritySystem.c
              __string_10   0x0060ce    program     static C:\Documents and Settings\Administrator\My Documents\Alarm Controller\PIC Code\EOL.c
              __string_10   0x0039b1    program     static C:\Documents and Settings\Administrator\My Documents\Alarm Controller\Microchip\TCPIP Stack\HTTP2.c
              __string_10   0x005f97    program     static C:\Documents and Settings\Administrator\My Documents\Alarm Controller\PIC Code\SMTP.c
             __string_100   0x004351    program     static C:\Documents and Settings\Administrator\My Documents\Alarm Controller\PIC Code\SecuritySystem.c
             __string_100   0x004f82    program     static C:\Documents and Settings\Administrator\My Documents\Alarm Controller\PIC Code\SecurityXPLSender.c
             __string_101   0x00433f    program     static C:\Documents and Settings\Administrator\My Documents\Alarm Controller\PIC Code\SecuritySystem.c
             __string_101   0x004f74    program     static C:\Documents and Settings\Administrator\My Documents\Alarm Controller\PIC Code\SecurityXPLSender.c
             __string_102   0x004f72    program     static C:\Documents and Settings\Administrator\My Documents\Alarm Controller\PIC Code\SecurityXPLSender.c
             __string_102   0x00432f    program     static C:\Documents and Settings\Administrator\My Documents\Alarm Controller\PIC Code\SecuritySystem.c
             __string_103   0x004f69    program     static C:\Documents and Settings\Administrator\My Documents\Alarm Controller\PIC Code\SecurityXPLSender.c
             __string_103   0x004304    program     static C:\Documents and Settings\Administrator\My Documents\Alarm Controller\PIC Code\SecuritySystem.c
             __string_104   0x004f5e    program     static C:\Documents and Settings\Administrator\My Documents\Alarm Controller\PIC Code\SecurityXPLSender.c
             __string_104   0x0042f4    program     static C:\Documents and Settings\Administrator\My Documents\Alarm Controller\PIC Code\SecuritySystem.c
             __string_105   0x004f53    program     static C:\Documents and Settings\Administrator\My Documents\Alarm Controller\PIC Code\SecurityXPLSender.c
             __string_105   0x0042e6    program     static C:\Documents and Settings\Administrator\My Documents\Alarm Controller\PIC Code\SecuritySystem.c
             __string_106   0x0042bb    program     static C:\Documents and Settings\Administrator\My Documents\Alarm Controller\PIC Code\SecuritySystem.c
             __string_106   0x004f41    program     static C:\Documents and Settings\Administrator\My Documents\Alarm Controller\PIC Code\SecurityXPLSender.c
             __string_107   0x0042a8    program     static C:\Documents and Settings\Administrator\My Documents\Alarm Controller\PIC Code\SecuritySystem.c
             __string_107   0x004f14    program     static C:\Documents and Settings\Administrator\My Documents\Alarm Controller\PIC Code\SecurityXPLSender.c
             __string_108   0x004295    program     static C:\Documents and Settings\Administrator\My Documents\Alarm Controller\PIC Code\SecuritySystem.c
             __string_108   0x004f0c    program     static C:\Documents and Settings\Administrator\My Documents\Alarm Controller\PIC Code\SecurityXPLSender.c
             __string_109   0x004f03    program     static C:\Documents and Settings\Administrator\My Documents\Alarm Controller\PIC Code\SecurityXPLSender.c
              __string_11   0x004d34    program     static C:\Documents and Settings\Administrator\My Documents\Alarm Controller\PIC Code\Authenticate.c
              __string_11   0x005be9    program     static C:\Documents and Settings\Administrator\My Documents\Alarm Controller\PIC Code\HTTPForms.c
              __string_11   0x0060b7    program     static C:\Documents and Settings\Administrator\My Documents\Alarm Controller\PIC Code\EOL.c
              __string_11   0x004a5f    program     static C:\Documents and Settings\Administrator\My Documents\Alarm Controller\PIC Code\SecuritySystem.c
              __string_11   0x003a01    program     static C:\Documents and Settings\Administrator\My Documents\Alarm Controller\Microchip\TCPIP Stack\SMTP.c
              __string_11   0x0039ad    program     static C:\Documents and Settings\Administrator\My Documents\Alarm Controller\Microchip\TCPIP Stack\HTTP2.c
              __string_11   0x004259    program     static C:\Documents and Settings\Administrator\My Documents\Alarm Controller\PIC Code\xPL.c
              __string_11   0x005f92    program     static C:\Documents and Settings\Administrator\My Documents\Alarm Controller\PIC Code\SMTP.c
              __string_11   0x006193    program     static C:\Documents and Settings\Administrator\My Documents\Alarm Controller\PIC Code\SNTP Customised.c
              __string_11   0x0056c0    program     static C:\Documents and Settings\Administrator\My Documents\Alarm Controller\PIC Code\SecurityXPLSender.c
             __string_110   0x004efa    program     static C:\Documents and Settings\Administrator\My Documents\Alarm Controller\PIC Code\SecurityXPLSender.c
             __string_111   0x004ef2    program     static C:\Documents and Settings\Administrator\My Documents\Alarm Controller\PIC Code\SecurityXPLSender.c
             __string_112   0x004ee0    program     static C:\Documents and Settings\Administrator\My Documents\Alarm Controller\PIC Code\SecurityXPLSender.c
              __string_12   0x004250    program     static C:\Documents and Settings\Administrator\My Documents\Alarm Controller\PIC Code\xPL.c
              __string_12   0x005be3    program     static C:\Documents and Settings\Administrator\My Documents\Alarm Controller\PIC Code\HTTPForms.c
              __string_12   0x0056b4    program     static C:\Documents and Settings\Administrator\My Documents\Alarm Controller\PIC Code\SecurityXPLSender.c
              __string_12   0x004a56    program     static C:\Documents and Settings\Administrator\My Documents\Alarm Controller\PIC Code\SecuritySystem.c
              __string_12   0x00617f    program     static C:\Documents and Settings\Administrator\My Documents\Alarm Controller\PIC Code\SNTP Customised.c
              __string_12   0x0039fb    program     static C:\Documents and Settings\Administrator\My Documents\Alarm Controller\Microchip\TCPIP Stack\SMTP.c
              __string_12   0x0060a8    program     static C:\Documents and Settings\Administrator\My Documents\Alarm Controller\PIC Code\EOL.c
              __string_12   0x005f8f    program     static C:\Documents and Settings\Administrator\My Documents\Alarm Controller\PIC Code\SMTP.c
              __string_12   0x0039a9    program     static C:\Documents and Settings\Administrator\My Documents\Alarm Controller\Microchip\TCPIP Stack\HTTP2.c
              __string_12   0x004d12    program     static C:\Documents and Settings\Administrator\My Documents\Alarm Controller\PIC Code\Authenticate.c
              __string_13   0x004a4d    program     static C:\Documents and Settings\Administrator\My Documents\Alarm Controller\PIC Code\SecuritySystem.c
              __string_13   0x005bd4    program     static C:\Documents and Settings\Administrator\My Documents\Alarm Controller\PIC Code\HTTPForms.c
              __string_13   0x0039f7    program     static C:\Documents and Settings\Administrator\My Documents\Alarm Controller\Microchip\TCPIP Stack\SMTP.c
              __string_13   0x005f8a    program     static C:\Documents and Settings\Administrator\My Documents\Alarm Controller\PIC Code\SMTP.c
              __string_13   0x0056a8    program     static C:\Documents and Settings\Administrator\My Documents\Alarm Controller\PIC Code\SecurityXPLSender.c
              __string_13   0x004d0e    program     static C:\Documents and Settings\Administrator\My Documents\Alarm Controller\PIC Code\Authenticate.c
              __string_13   0x0039a5    program     static C:\Documents and Settings\Administrator\My Documents\Alarm Controller\Microchip\TCPIP Stack\HTTP2.c
              __string_13   0x00616a    program     static C:\Documents and Settings\Administrator\My Documents\Alarm Controller\PIC Code\SNTP Customised.c
              __string_13   0x006098    program     static C:\Documents and Settings\Administrator\My Documents\Alarm Controller\PIC Code\EOL.c
              __string_13   0x00424a    program     static C:\Documents and Settings\Administrator\My Documents\Alarm Controller\PIC Code\xPL.c
              __string_14   0x00569c    program     static C:\Documents and Settings\Administrator\My Documents\Alarm Controller\PIC Code\SecurityXPLSender.c
              __string_14   0x0039a1    program     static C:\Documents and Settings\Administrator\My Documents\Alarm Controller\Microchip\TCPIP Stack\HTTP2.c
              __string_14   0x005f86    program     static C:\Documents and Settings\Administrator\My Documents\Alarm Controller\PIC Code\SMTP.c
              __string_14   0x004a40    program     static C:\Documents and Settings\Administrator\My Documents\Alarm Controller\PIC Code\SecuritySystem.c
              __string_14   0x006092    program     static C:\Documents and Settings\Administrator\My Documents\Alarm Controller\PIC Code\EOL.c
              __string_14   0x0039f0    program     static C:\Documents and Settings\Administrator\My Documents\Alarm Controller\Microchip\TCPIP Stack\SMTP.c
              __string_14   0x004245    program     static C:\Documents and Settings\Administrator\My Documents\Alarm Controller\PIC Code\xPL.c
              __string_14   0x004cf5    program     static C:\Documents and Settings\Administrator\My Documents\Alarm Controller\PIC Code\Authenticate.c
              __string_14   0x005bc4    program     static C:\Documents and Settings\Administrator\My Documents\Alarm Controller\PIC Code\HTTPForms.c
              __string_15   0x00399d    program     static C:\Documents and Settings\Administrator\My Documents\Alarm Controller\Microchip\TCPIP Stack\HTTP2.c
              __string_15   0x005f7f    program     static C:\Documents and Settings\Administrator\My Documents\Alarm Controller\PIC Code\SMTP.c
              __string_15   0x004241    program     static C:\Documents and Settings\Administrator\My Documents\Alarm Controller\PIC Code\xPL.c
              __string_15   0x005bbf    program     static C:\Documents and Settings\Administrator\My Documents\Alarm Controller\PIC Code\HTTPForms.c
              __string_15   0x00568f    program     static C:\Documents and Settings\Administrator\My Documents\Alarm Controller\PIC Code\SecurityXPLSender.c
              __string_15   0x004cf1    program     static C:\Documents and Settings\Administrator\My Documents\Alarm Controller\PIC Code\Authenticate.c
              __string_15   0x006086    program     static C:\Documents and Settings\Administrator\My Documents\Alarm Controller\PIC Code\EOL.c
              __string_15   0x004a39    program     static C:\Documents and Settings\Administrator\My Documents\Alarm Controller\PIC Code\SecuritySystem.c
              __string_16   0x005bb5    program     static C:\Documents and Settings\Administrator\My Documents\Alarm Controller\PIC Code\HTTPForms.c
              __string_16   0x005670    program     static C:\Documents and Settings\Administrator\My Documents\Alarm Controller\PIC Code\SecurityXPLSender.c
              __string_16   0x004cea    program     static C:\Documents and Settings\Administrator\My Documents\Alarm Controller\PIC Code\Authenticate.c
              __string_16   0x004a33    program     static C:\Documents and Settings\Administrator\My Documents\Alarm Controller\PIC Code\SecuritySystem.c
              __string_16   0x003992    program     static C:\Documents and Settings\Administrator\My Documents\Alarm Controller\Microchip\TCPIP Stack\HTTP2.c
              __string_16   0x006074    program     static C:\Documents and Settings\Administrator\My Documents\Alarm Controller\PIC Code\EOL.c
              __string_16   0x004238    program     static C:\Documents and Settings\Administrator\My Documents\Alarm Controller\PIC Code\xPL.c
              __string_16   0x005f75    program     static C:\Documents and Settings\Administrator\My Documents\Alarm Controller\PIC Code\SMTP.c
              __string_17   0x005bab    program     static C:\Documents and Settings\Administrator\My Documents\Alarm Controller\PIC Code\HTTPForms.c
              __string_17   0x004a2b    program     static C:\Documents and Settings\Administrator\My Documents\Alarm Controller\PIC Code\SecuritySystem.c
              __string_17   0x003988    program     static C:\Documents and Settings\Administrator\My Documents\Alarm Controller\Microchip\TCPIP Stack\HTTP2.c
              __string_17   0x005f6b    program     static C:\Documents and Settings\Administrator\My Documents\Alarm Controller\PIC Code\SMTP.c
              __string_17   0x004230    program     static C:\Documents and Settings\Administrator\My Documents\Alarm Controller\PIC Code\xPL.c
              __string_17   0x005669    program     static C:\Documents and Settings\Administrator\My Documents\Alarm Controller\PIC Code\SecurityXPLSender.c
              __string_17   0x004ccd    program     static C:\Documents and Settings\Administrator\My Documents\Alarm Controller\PIC Code\Authenticate.c
              __string_18   0x005f3d    program     static C:\Documents and Settings\Administrator\My Documents\Alarm Controller\PIC Code\SMTP.c
              __string_18   0x00565c    program     static C:\Documents and Settings\Administrator\My Documents\Alarm Controller\PIC Code\SecurityXPLSender.c
              __string_18   0x005b9b    program     static C:\Documents and Settings\Administrator\My Documents\Alarm Controller\PIC Code\HTTPForms.c
              __string_18   0x004228    program     static C:\Documents and Settings\Administrator\My Documents\Alarm Controller\PIC Code\xPL.c
              __string_18   0x00397f    program     static C:\Documents and Settings\Administrator\My Documents\Alarm Controller\Microchip\TCPIP Stack\HTTP2.c
              __string_18   0x004a24    program     static C:\Documents and Settings\Administrator\My Documents\Alarm Controller\PIC Code\SecuritySystem.c
              __string_18   0x004cb0    program     static C:\Documents and Settings\Administrator\My Documents\Alarm Controller\PIC Code\Authenticate.c
              __string_19   0x004a1d    program     static C:\Documents and Settings\Administrator\My Documents\Alarm Controller\PIC Code\SecuritySystem.c
              __string_19   0x005b92    program     static C:\Documents and Settings\Administrator\My Documents\Alarm Controller\PIC Code\HTTPForms.c
              __string_19   0x00564c    program     static C:\Documents and Settings\Administrator\My Documents\Alarm Controller\PIC Code\SecurityXPLSender.c
              __string_19   0x004ca7    program     static C:\Documents and Settings\Administrator\My Documents\Alarm Controller\PIC Code\Authenticate.c
              __string_19   0x003976    program     static C:\Documents and Settings\Administrator\My Documents\Alarm Controller\Microchip\TCPIP Stack\HTTP2.c
              __string_19   0x004223    program     static C:\Documents and Settings\Administrator\My Documents\Alarm Controller\PIC Code\xPL.c
              __string_19   0x005f3a    program     static C:\Documents and Settings\Administrator\My Documents\Alarm Controller\PIC Code\SMTP.c
               __string_2   0x005fe6    program     static C:\Documents and Settings\Administrator\My Documents\Alarm Controller\PIC Code\SMTP.c
               __string_2   0x004a96    program     static C:\Documents and Settings\Administrator\My Documents\Alarm Controller\PIC Code\SecuritySystem.c
               __string_2   0x006140    program     static C:\Documents and Settings\Administrator\My Documents\Alarm Controller\PIC Code\EOL.c
               __string_2   0x003205    program     static C:\Documents and Settings\Administrator\My Documents\Alarm Controller\PIC Code\MainDemo.c
               __string_2   0x004e7f    program     static C:\Documents and Settings\Administrator\My Documents\Alarm Controller\PIC Code\Authenticate.c
               __string_2   0x006050    program     static C:\Documents and Settings\Administrator\My Documents\Alarm Controller\PIC Code\Battery.c
               __string_2   0x0039ce    program     static C:\Documents and Settings\Administrator\My Documents\Alarm Controller\Microchip\TCPIP Stack\HTTP2.c
               __string_2   0x003a46    program     static C:\Documents and Settings\Administrator\My Documents\Alarm Controller\Microchip\TCPIP Stack\SMTP.c
               __string_2   0x005c57    program     static C:\Documents and Settings\Administrator\My Documents\Alarm Controller\PIC Code\HTTPForms.c
               __string_2   0x006245    program     static C:\Documents and Settings\Administrator\My Documents\Alarm Controller\PIC Code\SNTP Customised.c
               __string_2   0x005795    program     static C:\Documents and Settings\Administrator\My Documents\Alarm Controller\PIC Code\SecurityXPLSender.c
               __string_2   0x006290    program     static C:\Documents and Settings\Administrator\My Documents\Alarm Controller\PIC Code\HTTPDynVariables.c
              __string_20   0x004ca4    program     static C:\Documents and Settings\Administrator\My Documents\Alarm Controller\PIC Code\Authenticate.c
              __string_20   0x004a14    program     static C:\Documents and Settings\Administrator\My Documents\Alarm Controller\PIC Code\SecuritySystem.c
              __string_20   0x005b83    program     static C:\Documents and Settings\Administrator\My Documents\Alarm Controller\PIC Code\HTTPForms.c
              __string_20   0x005645    program     static C:\Documents and Settings\Administrator\My Documents\Alarm Controller\PIC Code\SecurityXPLSender.c
              __string_20   0x00396c    program     static C:\Documents and Settings\Administrator\My Documents\Alarm Controller\Microchip\TCPIP Stack\HTTP2.c
              __string_20   0x005f1f    program     static C:\Documents and Settings\Administrator\My Documents\Alarm Controller\PIC Code\SMTP.c
              __string_20   0x00421e    program     static C:\Documents and Settings\Administrator\My Documents\Alarm Controller\PIC Code\xPL.c
              __string_21   0x004a0b    program     static C:\Documents and Settings\Administrator\My Documents\Alarm Controller\PIC Code\SecuritySystem.c
              __string_21   0x005615    program     static C:\Documents and Settings\Administrator\My Documents\Alarm Controller\PIC Code\SecurityXPLSender.c
              __string_21   0x005eea    program     static C:\Documents and Settings\Administrator\My Documents\Alarm Controller\PIC Code\SMTP.c
              __string_21   0x004216    program     static C:\Documents and Settings\Administrator\My Documents\Alarm Controller\PIC Code\xPL.c
              __string_21   0x003962    program     static C:\Documents and Settings\Administrator\My Documents\Alarm Controller\Microchip\TCPIP Stack\HTTP2.c
              __string_21   0x005b7e    program     static C:\Documents and Settings\Administrator\My Documents\Alarm Controller\PIC Code\HTTPForms.c
              __string_21   0x004c70    program     static C:\Documents and Settings\Administrator\My Documents\Alarm Controller\PIC Code\Authenticate.c
              __string_22   0x005ebe    program     static C:\Documents and Settings\Administrator\My Documents\Alarm Controller\PIC Code\SMTP.c
              __string_22   0x005607    program     static C:\Documents and Settings\Administrator\My Documents\Alarm Controller\PIC Code\SecurityXPLSender.c
              __string_22   0x005b68    program     static C:\Documents and Settings\Administrator\My Documents\Alarm Controller\PIC Code\HTTPForms.c
              __string_22   0x00420d    program     static C:\Documents and Settings\Administrator\My Documents\Alarm Controller\PIC Code\xPL.c
              __string_22   0x004c40    program     static C:\Documents and Settings\Administrator\My Documents\Alarm Controller\PIC Code\Authenticate.c
              __string_22   0x003957    program     static C:\Documents and Settings\Administrator\My Documents\Alarm Controller\Microchip\TCPIP Stack\HTTP2.c
              __string_22   0x004a02    program     static C:\Documents and Settings\Administrator\My Documents\Alarm Controller\PIC Code\SecuritySystem.c
              __string_23   0x004c0c    program     static C:\Documents and Settings\Administrator\My Documents\Alarm Controller\PIC Code\Authenticate.c
              __string_23   0x004204    program     static C:\Documents and Settings\Administrator\My Documents\Alarm Controller\PIC Code\xPL.c
              __string_23   0x005ea9    program     static C:\Documents and Settings\Administrator\My Documents\Alarm Controller\PIC Code\SMTP.c
              __string_23   0x005b4a    program     static C:\Documents and Settings\Administrator\My Documents\Alarm Controller\PIC Code\HTTPForms.c
              __string_23   0x0055d0    program     static C:\Documents and Settings\Administrator\My Documents\Alarm Controller\PIC Code\SecurityXPLSender.c
              __string_23   0x0049f9    program     static C:\Documents and Settings\Administrator\My Documents\Alarm Controller\PIC Code\SecuritySystem.c
              __string_23   0x003943    program     static C:\Documents and Settings\Administrator\My Documents\Alarm Controller\Microchip\TCPIP Stack\HTTP2.c
              __string_24   0x004bf5    program     static C:\Documents and Settings\Administrator\My Documents\Alarm Controller\PIC Code\Authenticate.c
              __string_24   0x0049f0    program     static C:\Documents and Settings\Administrator\My Documents\Alarm Controller\PIC Code\SecuritySystem.c
              __string_24   0x005e6b    program     static C:\Documents and Settings\Administrator\My Documents\Alarm Controller\PIC Code\SMTP.c
              __string_24   0x0055b9    program     static C:\Documents and Settings\Administrator\My Documents\Alarm Controller\PIC Code\SecurityXPLSender.c
              __string_24   0x005b35    program     static C:\Documents and Settings\Administrator\My Documents\Alarm Controller\PIC Code\HTTPForms.c
              __string_24   0x003936    program     static C:\Documents and Settings\Administrator\My Documents\Alarm Controller\Microchip\TCPIP Stack\HTTP2.c
              __string_24   0x0041fb    program     static C:\Documents and Settings\Administrator\My Documents\Alarm Controller\PIC Code\xPL.c
              __string_25   0x005b2d    program     static C:\Documents and Settings\Administrator\My Documents\Alarm Controller\PIC Code\HTTPForms.c
              __string_25   0x004be2    program     static C:\Documents and Settings\Administrator\My Documents\Alarm Controller\PIC Code\Authenticate.c
              __string_25   0x0055a4    program     static C:\Documents and Settings\Administrator\My Documents\Alarm Controller\PIC Code\SecurityXPLSender.c
              __string_25   0x0041f2    program     static C:\Documents and Settings\Administrator\My Documents\Alarm Controller\PIC Code\xPL.c
              __string_25   0x005e5e    program     static C:\Documents and Settings\Administrator\My Documents\Alarm Controller\PIC Code\SMTP.c
              __string_25   0x003935    program     static C:\Documents and Settings\Administrator\My Documents\Alarm Controller\Microchip\TCPIP Stack\HTTP2.c
              __string_25   0x0049e7    program     static C:\Documents and Settings\Administrator\My Documents\Alarm Controller\PIC Code\SecuritySystem.c
              __string_26   0x0041e9    program     static C:\Documents and Settings\Administrator\My Documents\Alarm Controller\PIC Code\xPL.c
              __string_26   0x005b1c    program     static C:\Documents and Settings\Administrator\My Documents\Alarm Controller\PIC Code\HTTPForms.c
              __string_26   0x005e4f    program     static C:\Documents and Settings\Administrator\My Documents\Alarm Controller\PIC Code\SMTP.c
              __string_26   0x004bdf    program     static C:\Documents and Settings\Administrator\My Documents\Alarm Controller\PIC Code\Authenticate.c
              __string_26   0x0049de    program     static C:\Documents and Settings\Administrator\My Documents\Alarm Controller\PIC Code\SecuritySystem.c
              __string_26   0x00558b    program     static C:\Documents and Settings\Administrator\My Documents\Alarm Controller\PIC Code\SecurityXPLSender.c
              __string_26   0x003910    program     static C:\Documents and Settings\Administrator\My Documents\Alarm Controller\Microchip\TCPIP Stack\HTTP2.c
              __string_27   0x0041e0    program     static C:\Documents and Settings\Administrator\My Documents\Alarm Controller\PIC Code\xPL.c
              __string_27   0x00388f    program     static C:\Documents and Settings\Administrator\My Documents\Alarm Controller\Microchip\TCPIP Stack\HTTP2.c
              __string_27   0x004bd7    program     static C:\Documents and Settings\Administrator\My Documents\Alarm Controller\PIC Code\Authenticate.c
              __string_27   0x00557f    program     static C:\Documents and Settings\Administrator\My Documents\Alarm Controller\PIC Code\SecurityXPLSender.c
              __string_27   0x005e3f    program     static C:\Documents and Settings\Administrator\My Documents\Alarm Controller\PIC Code\SMTP.c
              __string_27   0x005b0d    program     static C:\Documents and Settings\Administrator\My Documents\Alarm Controller\PIC Code\HTTPForms.c
              __string_27   0x0049d5    program     static C:\Documents and Settings\Administrator\My Documents\Alarm Controller\PIC Code\SecuritySystem.c
              __string_28   0x005aff    program     static C:\Documents and Settings\Administrator\My Documents\Alarm Controller\PIC Code\HTTPForms.c
              __string_28   0x0041d7    program     static C:\Documents and Settings\Administrator\My Documents\Alarm Controller\PIC Code\xPL.c
              __string_28   0x004bd5    program     static C:\Documents and Settings\Administrator\My Documents\Alarm Controller\PIC Code\Authenticate.c
              __string_28   0x005573    program     static C:\Documents and Settings\Administrator\My Documents\Alarm Controller\PIC Code\SecurityXPLSender.c
              __string_28   0x00499e    program     static C:\Documents and Settings\Administrator\My Documents\Alarm Controller\PIC Code\SecuritySystem.c
              __string_28   0x0037f1    program     static C:\Documents and Settings\Administrator\My Documents\Alarm Controller\Microchip\TCPIP Stack\HTTP2.c
              __string_28   0x005e2d    program     static C:\Documents and Settings\Administrator\My Documents\Alarm Controller\PIC Code\SMTP.c
              __string_29   0x0041ce    program     static C:\Documents and Settings\Administrator\My Documents\Alarm Controller\PIC Code\xPL.c
              __string_29   0x005aef    program     static C:\Documents and Settings\Administrator\My Documents\Alarm Controller\PIC Code\HTTPForms.c
              __string_29   0x005e14    program     static C:\Documents and Settings\Administrator\My Documents\Alarm Controller\PIC Code\SMTP.c
              __string_29   0x004bd3    program     static C:\Documents and Settings\Administrator\My Documents\Alarm Controller\PIC Code\Authenticate.c
              __string_29   0x00551b    program     static C:\Documents and Settings\Administrator\My Documents\Alarm Controller\PIC Code\SecurityXPLSender.c
              __string_29   0x004968    program     static C:\Documents and Settings\Administrator\My Documents\Alarm Controller\PIC Code\SecuritySystem.c
              __string_29   0x003784    program     static C:\Documents and Settings\Administrator\My Documents\Alarm Controller\Microchip\TCPIP Stack\HTTP2.c
               __string_3   0x004e5a    program     static C:\Documents and Settings\Administrator\My Documents\Alarm Controller\PIC Code\Authenticate.c
               __string_3   0x004a92    program     static C:\Documents and Settings\Administrator\My Documents\Alarm Controller\PIC Code\SecuritySystem.c
               __string_3   0x006049    program     static C:\Documents and Settings\Administrator\My Documents\Alarm Controller\PIC Code\Battery.c
               __string_3   0x0031fa    program     static C:\Documents and Settings\Administrator\My Documents\Alarm Controller\PIC Code\MainDemo.c
               __string_3   0x005fdb    program     static C:\Documents and Settings\Administrator\My Documents\Alarm Controller\PIC Code\SMTP.c
               __string_3   0x006139    program     static C:\Documents and Settings\Administrator\My Documents\Alarm Controller\PIC Code\EOL.c
               __string_3   0x00428c    program     static C:\Documents and Settings\Administrator\My Documents\Alarm Controller\PIC Code\xPL.c
               __string_3   0x00623c    program     static C:\Documents and Settings\Administrator\My Documents\Alarm Controller\PIC Code\SNTP Customised.c
               __string_3   0x006288    program     static C:\Documents and Settings\Administrator\My Documents\Alarm Controller\PIC Code\HTTPDynVariables.c
               __string_3   0x005783    program     static C:\Documents and Settings\Administrator\My Documents\Alarm Controller\PIC Code\SecurityXPLSender.c
               __string_3   0x003a43    program     static C:\Documents and Settings\Administrator\My Documents\Alarm Controller\Microchip\TCPIP Stack\SMTP.c
               __string_3   0x005c50    program     static C:\Documents and Settings\Administrator\My Documents\Alarm Controller\PIC Code\HTTPForms.c
              __string_30   0x004bc6    program     static C:\Documents and Settings\Administrator\My Documents\Alarm Controller\PIC Code\Authenticate.c
              __string_30   0x005ad9    program     static C:\Documents and Settings\Administrator\My Documents\Alarm Controller\PIC Code\HTTPForms.c
              __string_30   0x004931    program     static C:\Documents and Settings\Administrator\My Documents\Alarm Controller\PIC Code\SecuritySystem.c
              __string_30   0x003714    program     static C:\Documents and Settings\Administrator\My Documents\Alarm Controller\Microchip\TCPIP Stack\HTTP2.c
              __string_30   0x0054f2    program     static C:\Documents and Settings\Administrator\My Documents\Alarm Controller\PIC Code\SecurityXPLSender.c
              __string_30   0x005e07    program     static C:\Documents and Settings\Administrator\My Documents\Alarm Controller\PIC Code\SMTP.c
              __string_30   0x0041bd    program     static C:\Documents and Settings\Administrator\My Documents\Alarm Controller\PIC Code\xPL.c
              __string_31   0x0054c9    program     static C:\Documents and Settings\Administrator\My Documents\Alarm Controller\PIC Code\SecurityXPLSender.c
              __string_31   0x004bbd    program     static C:\Documents and Settings\Administrator\My Documents\Alarm Controller\PIC Code\Authenticate.c
              __string_31   0x0036ae    program     static C:\Documents and Settings\Administrator\My Documents\Alarm Controller\Microchip\TCPIP Stack\HTTP2.c
              __string_31   0x004194    program     static C:\Documents and Settings\Administrator\My Documents\Alarm Controller\PIC Code\xPL.c
              __string_31   0x00491c    program     static C:\Documents and Settings\Administrator\My Documents\Alarm Controller\PIC Code\SecuritySystem.c
              __string_31   0x005acd    program     static C:\Documents and Settings\Administrator\My Documents\Alarm Controller\PIC Code\HTTPForms.c
              __string_31   0x005df5    program     static C:\Documents and Settings\Administrator\My Documents\Alarm Controller\PIC Code\SMTP.c
              __string_32   0x004168    program     static C:\Documents and Settings\Administrator\My Documents\Alarm Controller\PIC Code\xPL.c
              __string_32   0x0054c6    program     static C:\Documents and Settings\Administrator\My Documents\Alarm Controller\PIC Code\SecurityXPLSender.c
              __string_32   0x005de4    program     static C:\Documents and Settings\Administrator\My Documents\Alarm Controller\PIC Code\SMTP.c
              __string_32   0x004bb9    program     static C:\Documents and Settings\Administrator\My Documents\Alarm Controller\PIC Code\Authenticate.c
              __string_32   0x004911    program     static C:\Documents and Settings\Administrator\My Documents\Alarm Controller\PIC Code\SecuritySystem.c
              __string_32   0x005ac7    program     static C:\Documents and Settings\Administrator\My Documents\Alarm Controller\PIC Code\HTTPForms.c
              __string_32   0x00358e    program     static C:\Documents and Settings\Administrator\My Documents\Alarm Controller\Microchip\TCPIP Stack\HTTP2.c
              __string_33   0x0034e1    program     static C:\Documents and Settings\Administrator\My Documents\Alarm Controller\Microchip\TCPIP Stack\HTTP2.c
              __string_33   0x00413b    program     static C:\Documents and Settings\Administrator\My Documents\Alarm Controller\PIC Code\xPL.c
              __string_33   0x004ba8    program     static C:\Documents and Settings\Administrator\My Documents\Alarm Controller\PIC Code\Authenticate.c
              __string_33   0x0054a7    program     static C:\Documents and Settings\Administrator\My Documents\Alarm Controller\PIC Code\SecurityXPLSender.c
              __string_33   0x005d9b    program     static C:\Documents and Settings\Administrator\My Documents\Alarm Controller\PIC Code\SMTP.c
              __string_33   0x004907    program     static C:\Documents and Settings\Administrator\My Documents\Alarm Controller\PIC Code\SecuritySystem.c
              __string_33   0x005ab1    program     static C:\Documents and Settings\Administrator\My Documents\Alarm Controller\PIC Code\HTTPForms.c
              __string_34   0x005d80    program     static C:\Documents and Settings\Administrator\My Documents\Alarm Controller\PIC Code\SMTP.c
              __string_34   0x005aa6    program     static C:\Documents and Settings\Administrator\My Documents\Alarm Controller\PIC Code\HTTPForms.c
              __string_34   0x00340e    program     static C:\Documents and Settings\Administrator\My Documents\Alarm Controller\Microchip\TCPIP Stack\HTTP2.c
              __string_34   0x004100    program     static C:\Documents and Settings\Administrator\My Documents\Alarm Controller\PIC Code\xPL.c
              __string_34   0x004b97    program     static C:\Documents and Settings\Administrator\My Documents\Alarm Controller\PIC Code\Authenticate.c
              __string_34   0x005498    program     static C:\Documents and Settings\Administrator\My Documents\Alarm Controller\PIC Code\SecurityXPLSender.c
              __string_34   0x004904    program     static C:\Documents and Settings\Administrator\My Documents\Alarm Controller\PIC Code\SecuritySystem.c
              __string_35   0x0033dc    program     static C:\Documents and Settings\Administrator\My Documents\Alarm Controller\Microchip\TCPIP Stack\HTTP2.c
              __string_35   0x0040f0    program     static C:\Documents and Settings\Administrator\My Documents\Alarm Controller\PIC Code\xPL.c
              __string_35   0x005d50    program     static C:\Documents and Settings\Administrator\My Documents\Alarm Controller\PIC Code\SMTP.c
              __string_35   0x004b80    program     static C:\Documents and Settings\Administrator\My Documents\Alarm Controller\PIC Code\Authenticate.c
              __string_35   0x005478    program     static C:\Documents and Settings\Administrator\My Documents\Alarm Controller\PIC Code\SecurityXPLSender.c
              __string_35   0x005a9e    program     static C:\Documents and Settings\Administrator\My Documents\Alarm Controller\PIC Code\HTTPForms.c
              __string_35   0x0048e3    program     static C:\Documents and Settings\Administrator\My Documents\Alarm Controller\PIC Code\SecuritySystem.c
              __string_36   0x003385    program     static C:\Documents and Settings\Administrator\My Documents\Alarm Controller\Microchip\TCPIP Stack\HTTP2.c
              __string_36   0x00544e    program     static C:\Documents and Settings\Administrator\My Documents\Alarm Controller\PIC Code\SecurityXPLSender.c
              __string_36   0x0048c1    program     static C:\Documents and Settings\Administrator\My Documents\Alarm Controller\PIC Code\SecuritySystem.c
              __string_36   0x004b7a    program     static C:\Documents and Settings\Administrator\My Documents\Alarm Controller\PIC Code\Authenticate.c
              __string_36   0x0040ea    program     static C:\Documents and Settings\Administrator\My Documents\Alarm Controller\PIC Code\xPL.c
              __string_36   0x005d37    program     static C:\Documents and Settings\Administrator\My Documents\Alarm Controller\PIC Code\SMTP.c
              __string_36   0x005a88    program     static C:\Documents and Settings\Administrator\My Documents\Alarm Controller\PIC Code\HTTPForms.c
              __string_37   0x0040b1    program     static C:\Documents and Settings\Administrator\My Documents\Alarm Controller\PIC Code\xPL.c
              __string_37   0x005441    program     static C:\Documents and Settings\Administrator\My Documents\Alarm Controller\PIC Code\SecurityXPLSender.c
              __string_37   0x00337d    program     static C:\Documents and Settings\Administrator\My Documents\Alarm Controller\Microchip\TCPIP Stack\HTTP2.c
              __string_37   0x004b5f    program     static C:\Documents and Settings\Administrator\My Documents\Alarm Controller\PIC Code\Authenticate.c
              __string_37   0x005a7d    program     static C:\Documents and Settings\Administrator\My Documents\Alarm Controller\PIC Code\HTTPForms.c
              __string_37   0x00489f    program     static C:\Documents and Settings\Administrator\My Documents\Alarm Controller\PIC Code\SecuritySystem.c
              __string_37   0x005cf4    program     static C:\Documents and Settings\Administrator\My Documents\Alarm Controller\PIC Code\SMTP.c
              __string_38   0x005a72    program     static C:\Documents and Settings\Administrator\My Documents\Alarm Controller\PIC Code\HTTPForms.c
              __string_38   0x00336e    program     static C:\Documents and Settings\Administrator\My Documents\Alarm Controller\Microchip\TCPIP Stack\HTTP2.c
              __string_38   0x004893    program     static C:\Documents and Settings\Administrator\My Documents\Alarm Controller\PIC Code\SecuritySystem.c
              __string_38   0x005ce6    program     static C:\Documents and Settings\Administrator\My Documents\Alarm Controller\PIC Code\SMTP.c
              __string_38   0x005436    program     static C:\Documents and Settings\Administrator\My Documents\Alarm Controller\PIC Code\SecurityXPLSender.c
              __string_38   0x004b42    program     static C:\Documents and Settings\Administrator\My Documents\Alarm Controller\PIC Code\Authenticate.c
              __string_38   0x004080    program     static C:\Documents and Settings\Administrator\My Documents\Alarm Controller\PIC Code\xPL.c
              __string_39   0x004880    program     static C:\Documents and Settings\Administrator\My Documents\Alarm Controller\PIC Code\SecuritySystem.c
              __string_39   0x005434    program     static C:\Documents and Settings\Administrator\My Documents\Alarm Controller\PIC Code\SecurityXPLSender.c
              __string_39   0x004076    program     static C:\Documents and Settings\Administrator\My Documents\Alarm Controller\PIC Code\xPL.c
              __string_39   0x004b25    program     static C:\Documents and Settings\Administrator\My Documents\Alarm Controller\PIC Code\Authenticate.c
              __string_39   0x005cce    program     static C:\Documents and Settings\Administrator\My Documents\Alarm Controller\PIC Code\SMTP.c
              __string_39   0x00335e    program     static C:\Documents and Settings\Administrator\My Documents\Alarm Controller\Microchip\TCPIP Stack\HTTP2.c
              __string_39   0x005a62    program     static C:\Documents and Settings\Administrator\My Documents\Alarm Controller\PIC Code\HTTPForms.c
               __string_4   0x00622f    program     static C:\Documents and Settings\Administrator\My Documents\Alarm Controller\PIC Code\SNTP Customised.c
               __string_4   0x003a37    program     static C:\Documents and Settings\Administrator\My Documents\Alarm Controller\Microchip\TCPIP Stack\SMTP.c
               __string_4   0x004283    program     static C:\Documents and Settings\Administrator\My Documents\Alarm Controller\PIC Code\xPL.c
               __string_4   0x006131    program     static C:\Documents and Settings\Administrator\My Documents\Alarm Controller\PIC Code\EOL.c
               __string_4   0x005fcf    program     static C:\Documents and Settings\Administrator\My Documents\Alarm Controller\PIC Code\SMTP.c
               __string_4   0x00600b    program     static C:\Documents and Settings\Administrator\My Documents\Alarm Controller\PIC Code\Battery.c
               __string_4   0x005c3f    program     static C:\Documents and Settings\Administrator\My Documents\Alarm Controller\PIC Code\HTTPForms.c
               __string_4   0x0039ca    program     static C:\Documents and Settings\Administrator\My Documents\Alarm Controller\Microchip\TCPIP Stack\HTTP2.c
               __string_4   0x00577f    program     static C:\Documents and Settings\Administrator\My Documents\Alarm Controller\PIC Code\SecurityXPLSender.c
               __string_4   0x00627d    program     static C:\Documents and Settings\Administrator\My Documents\Alarm Controller\PIC Code\HTTPDynVariables.c
               __string_4   0x004a8b    program     static C:\Documents and Settings\Administrator\My Documents\Alarm Controller\PIC Code\SecuritySystem.c
               __string_4   0x004e27    program     static C:\Documents and Settings\Administrator\My Documents\Alarm Controller\PIC Code\Authenticate.c
              __string_40   0x004b0b    program     static C:\Documents and Settings\Administrator\My Documents\Alarm Controller\PIC Code\Authenticate.c
              __string_40   0x005429    program     static C:\Documents and Settings\Administrator\My Documents\Alarm Controller\PIC Code\SecurityXPLSender.c
              __string_40   0x00335a    program     static C:\Documents and Settings\Administrator\My Documents\Alarm Controller\Microchip\TCPIP Stack\HTTP2.c
              __string_40   0x005cbc    program     static C:\Documents and Settings\Administrator\My Documents\Alarm Controller\PIC Code\SMTP.c
              __string_40   0x004072    program     static C:\Documents and Settings\Administrator\My Documents\Alarm Controller\PIC Code\xPL.c
              __string_40   0x00484c    program     static C:\Documents and Settings\Administrator\My Documents\Alarm Controller\PIC Code\SecuritySystem.c
              __string_40   0x005a5a    program     static C:\Documents and Settings\Administrator\My Documents\Alarm Controller\PIC Code\HTTPForms.c
              __string_41   0x00483f    program     static C:\Documents and Settings\Administrator\My Documents\Alarm Controller\PIC Code\SecuritySystem.c
              __string_41   0x004061    program     static C:\Documents and Settings\Administrator\My Documents\Alarm Controller\PIC Code\xPL.c
              __string_41   0x005ca6    program     static C:\Documents and Settings\Administrator\My Documents\Alarm Controller\PIC Code\SMTP.c
              __string_41   0x005a4d    program     static C:\Documents and Settings\Administrator\My Documents\Alarm Controller\PIC Code\HTTPForms.c
              __string_41   0x004aed    program     static C:\Documents and Settings\Administrator\My Documents\Alarm Controller\PIC Code\Authenticate.c
              __string_41   0x005423    program     static C:\Documents and Settings\Administrator\My Documents\Alarm Controller\PIC Code\SecurityXPLSender.c
              __string_41   0x003355    program     static C:\Documents and Settings\Administrator\My Documents\Alarm Controller\Microchip\TCPIP Stack\HTTP2.c
              __string_42   0x004815    program     static C:\Documents and Settings\Administrator\My Documents\Alarm Controller\PIC Code\SecuritySystem.c
              __string_42   0x00540a    program     static C:\Documents and Settings\Administrator\My Documents\Alarm Controller\PIC Code\SecurityXPLSender.c
              __string_42   0x004058    program     static C:\Documents and Settings\Administrator\My Documents\Alarm Controller\PIC Code\xPL.c
              __string_42   0x00334a    program     static C:\Documents and Settings\Administrator\My Documents\Alarm Controller\Microchip\TCPIP Stack\HTTP2.c
              __string_42   0x004ac1    program     static C:\Documents and Settings\Administrator\My Documents\Alarm Controller\PIC Code\Authenticate.c
              __string_42   0x005c77    program     static C:\Documents and Settings\Administrator\My Documents\Alarm Controller\PIC Code\SMTP.c
              __string_42   0x005a38    program     static C:\Documents and Settings\Administrator\My Documents\Alarm Controller\PIC Code\HTTPForms.c
              __string_43   0x0053e0    program     static C:\Documents and Settings\Administrator\My Documents\Alarm Controller\PIC Code\SecurityXPLSender.c
              __string_43   0x003340    program     static C:\Documents and Settings\Administrator\My Documents\Alarm Controller\Microchip\TCPIP Stack\HTTP2.c
              __string_43   0x004807    program     static C:\Documents and Settings\Administrator\My Documents\Alarm Controller\PIC Code\SecuritySystem.c
              __string_43   0x004054    program     static C:\Documents and Settings\Administrator\My Documents\Alarm Controller\PIC Code\xPL.c
              __string_43   0x004ab5    program     static C:\Documents and Settings\Administrator\My Documents\Alarm Controller\PIC Code\Authenticate.c
              __string_43   0x005a30    program     static C:\Documents and Settings\Administrator\My Documents\Alarm Controller\PIC Code\HTTPForms.c
              __string_44   0x0047f0    program     static C:\Documents and Settings\Administrator\My Documents\Alarm Controller\PIC Code\SecuritySystem.c
              __string_44   0x0053d4    program     static C:\Documents and Settings\Administrator\My Documents\Alarm Controller\PIC Code\SecurityXPLSender.c
              __string_44   0x004044    program     static C:\Documents and Settings\Administrator\My Documents\Alarm Controller\PIC Code\xPL.c
              __string_44   0x005a1b    program     static C:\Documents and Settings\Administrator\My Documents\Alarm Controller\PIC Code\HTTPForms.c
              __string_44   0x00332d    program     static C:\Documents and Settings\Administrator\My Documents\Alarm Controller\Microchip\TCPIP Stack\HTTP2.c
              __string_44   0x004aa9    program     static C:\Documents and Settings\Administrator\My Documents\Alarm Controller\PIC Code\Authenticate.c
              __string_45   0x0047cb    program     static C:\Documents and Settings\Administrator\My Documents\Alarm Controller\PIC Code\SecuritySystem.c
              __string_45   0x004034    program     static C:\Documents and Settings\Administrator\My Documents\Alarm Controller\PIC Code\xPL.c
              __string_45   0x00331e    program     static C:\Documents and Settings\Administrator\My Documents\Alarm Controller\Microchip\TCPIP Stack\HTTP2.c
              __string_45   0x005a09    program     static C:\Documents and Settings\Administrator\My Documents\Alarm Controller\PIC Code\HTTPForms.c
              __string_45   0x0053cd    program     static C:\Documents and Settings\Administrator\My Documents\Alarm Controller\PIC Code\SecurityXPLSender.c
              __string_46   0x0059ec    program     static C:\Documents and Settings\Administrator\My Documents\Alarm Controller\PIC Code\HTTPForms.c
              __string_46   0x003305    program     static C:\Documents and Settings\Administrator\My Documents\Alarm Controller\Microchip\TCPIP Stack\HTTP2.c
              __string_46   0x0047aa    program     static C:\Documents and Settings\Administrator\My Documents\Alarm Controller\PIC Code\SecuritySystem.c
              __string_46   0x004025    program     static C:\Documents and Settings\Administrator\My Documents\Alarm Controller\PIC Code\xPL.c
              __string_46   0x0053a2    program     static C:\Documents and Settings\Administrator\My Documents\Alarm Controller\PIC Code\SecurityXPLSender.c
              __string_47   0x00538d    program     static C:\Documents and Settings\Administrator\My Documents\Alarm Controller\PIC Code\SecurityXPLSender.c
              __string_47   0x00479d    program     static C:\Documents and Settings\Administrator\My Documents\Alarm Controller\PIC Code\SecuritySystem.c
              __string_47   0x004016    program     static C:\Documents and Settings\Administrator\My Documents\Alarm Controller\PIC Code\xPL.c
              __string_47   0x0059db    program     static C:\Documents and Settings\Administrator\My Documents\Alarm Controller\PIC Code\HTTPForms.c
              __string_47   0x0032f5    program     static C:\Documents and Settings\Administrator\My Documents\Alarm Controller\Microchip\TCPIP Stack\HTTP2.c
              __string_48   0x005373    program     static C:\Documents and Settings\Administrator\My Documents\Alarm Controller\PIC Code\SecurityXPLSender.c
              __string_48   0x004773    program     static C:\Documents and Settings\Administrator\My Documents\Alarm Controller\PIC Code\SecuritySystem.c
              __string_48   0x0032ec    program     static C:\Documents and Settings\Administrator\My Documents\Alarm Controller\Microchip\TCPIP Stack\HTTP2.c
              __string_48   0x004013    program     static C:\Documents and Settings\Administrator\My Documents\Alarm Controller\PIC Code\xPL.c
              __string_48   0x0059c8    program     static C:\Documents and Settings\Administrator\My Documents\Alarm Controller\PIC Code\HTTPForms.c
              __string_49   0x003fff    program     static C:\Documents and Settings\Administrator\My Documents\Alarm Controller\PIC Code\xPL.c
              __string_49   0x0032e3    program     static C:\Documents and Settings\Administrator\My Documents\Alarm Controller\Microchip\TCPIP Stack\HTTP2.c
              __string_49   0x004758    program     static C:\Documents and Settings\Administrator\My Documents\Alarm Controller\PIC Code\SecuritySystem.c
              __string_49   0x005346    program     static C:\Documents and Settings\Administrator\My Documents\Alarm Controller\PIC Code\SecurityXPLSender.c
              __string_49   0x0059af    program     static C:\Documents and Settings\Administrator\My Documents\Alarm Controller\PIC Code\HTTPForms.c
               __string_5   0x005c37    program     static C:\Documents and Settings\Administrator\My Documents\Alarm Controller\PIC Code\HTTPForms.c
               __string_5   0x004e07    program     static C:\Documents and Settings\Administrator\My Documents\Alarm Controller\PIC Code\Authenticate.c
               __string_5   0x004a84    program     static C:\Documents and Settings\Administrator\My Documents\Alarm Controller\PIC Code\SecuritySystem.c
               __string_5   0x0039c6    program     static C:\Documents and Settings\Administrator\My Documents\Alarm Controller\Microchip\TCPIP Stack\HTTP2.c
               __string_5   0x00612a    program     static C:\Documents and Settings\Administrator\My Documents\Alarm Controller\PIC Code\EOL.c
               __string_5   0x00427a    program     static C:\Documents and Settings\Administrator\My Documents\Alarm Controller\PIC Code\xPL.c
               __string_5   0x00621c    program     static C:\Documents and Settings\Administrator\My Documents\Alarm Controller\PIC Code\SNTP Customised.c
               __string_5   0x005fc4    program     static C:\Documents and Settings\Administrator\My Documents\Alarm Controller\PIC Code\SMTP.c
               __string_5   0x003a33    program     static C:\Documents and Settings\Administrator\My Documents\Alarm Controller\Microchip\TCPIP Stack\SMTP.c
               __string_5   0x00576c    program     static C:\Documents and Settings\Administrator\My Documents\Alarm Controller\PIC Code\SecurityXPLSender.c
               __string_5   0x00626e    program     static C:\Documents and Settings\Administrator\My Documents\Alarm Controller\PIC Code\HTTPDynVariables.c
              __string_50   0x003ff7    program     static C:\Documents and Settings\Administrator\My Documents\Alarm Controller\PIC Code\xPL.c
              __string_50   0x005319    program     static C:\Documents and Settings\Administrator\My Documents\Alarm Controller\PIC Code\SecurityXPLSender.c
              __string_50   0x004727    program     static C:\Documents and Settings\Administrator\My Documents\Alarm Controller\PIC Code\SecuritySystem.c
              __string_50   0x0032df    program     static C:\Documents and Settings\Administrator\My Documents\Alarm Controller\Microchip\TCPIP Stack\HTTP2.c
              __string_50   0x0059ab    program     static C:\Documents and Settings\Administrator\My Documents\Alarm Controller\PIC Code\HTTPForms.c
              __string_51   0x0032da    program     static C:\Documents and Settings\Administrator\My Documents\Alarm Controller\Microchip\TCPIP Stack\HTTP2.c
              __string_51   0x004711    program     static C:\Documents and Settings\Administrator\My Documents\Alarm Controller\PIC Code\SecuritySystem.c
              __string_51   0x00599f    program     static C:\Documents and Settings\Administrator\My Documents\Alarm Controller\PIC Code\HTTPForms.c
              __string_51   0x0052ec    program     static C:\Documents and Settings\Administrator\My Documents\Alarm Controller\PIC Code\SecurityXPLSender.c
              __string_51   0x003fe7    program     static C:\Documents and Settings\Administrator\My Documents\Alarm Controller\PIC Code\xPL.c
              __string_52   0x0032cf    program     static C:\Documents and Settings\Administrator\My Documents\Alarm Controller\Microchip\TCPIP Stack\HTTP2.c
              __string_52   0x00470b    program     static C:\Documents and Settings\Administrator\My Documents\Alarm Controller\PIC Code\SecuritySystem.c
              __string_52   0x00599b    program     static C:\Documents and Settings\Administrator\My Documents\Alarm Controller\PIC Code\HTTPForms.c
              __string_52   0x0052e6    program     static C:\Documents and Settings\Administrator\My Documents\Alarm Controller\PIC Code\SecurityXPLSender.c
              __string_52   0x003fdb    program     static C:\Documents and Settings\Administrator\My Documents\Alarm Controller\PIC Code\xPL.c
              __string_53   0x0046f3    program     static C:\Documents and Settings\Administrator\My Documents\Alarm Controller\PIC Code\SecuritySystem.c
              __string_53   0x005987    program     static C:\Documents and Settings\Administrator\My Documents\Alarm Controller\PIC Code\HTTPForms.c
              __string_53   0x003fb5    program     static C:\Documents and Settings\Administrator\My Documents\Alarm Controller\PIC Code\xPL.c
              __string_53   0x0052da    program     static C:\Documents and Settings\Administrator\My Documents\Alarm Controller\PIC Code\SecurityXPLSender.c
              __string_54   0x0046e9    program     static C:\Documents and Settings\Administrator\My Documents\Alarm Controller\PIC Code\SecuritySystem.c
              __string_54   0x005983    program     static C:\Documents and Settings\Administrator\My Documents\Alarm Controller\PIC Code\HTTPForms.c
              __string_54   0x003f92    program     static C:\Documents and Settings\Administrator\My Documents\Alarm Controller\PIC Code\xPL.c
              __string_54   0x0052cd    program     static C:\Documents and Settings\Administrator\My Documents\Alarm Controller\PIC Code\SecurityXPLSender.c
              __string_55   0x0046df    program     static C:\Documents and Settings\Administrator\My Documents\Alarm Controller\PIC Code\SecuritySystem.c
              __string_55   0x005978    program     static C:\Documents and Settings\Administrator\My Documents\Alarm Controller\PIC Code\HTTPForms.c
              __string_55   0x003f67    program     static C:\Documents and Settings\Administrator\My Documents\Alarm Controller\PIC Code\xPL.c
              __string_55   0x0052c6    program     static C:\Documents and Settings\Administrator\My Documents\Alarm Controller\PIC Code\SecurityXPLSender.c
              __string_56   0x005974    program     static C:\Documents and Settings\Administrator\My Documents\Alarm Controller\PIC Code\HTTPForms.c
              __string_56   0x005299    program     static C:\Documents and Settings\Administrator\My Documents\Alarm Controller\PIC Code\SecurityXPLSender.c
              __string_56   0x0046d1    program     static C:\Documents and Settings\Administrator\My Documents\Alarm Controller\PIC Code\SecuritySystem.c
              __string_56   0x003f4f    program     static C:\Documents and Settings\Administrator\My Documents\Alarm Controller\PIC Code\xPL.c
              __string_57   0x005968    program     static C:\Documents and Settings\Administrator\My Documents\Alarm Controller\PIC Code\HTTPForms.c
              __string_57   0x003f1e    program     static C:\Documents and Settings\Administrator\My Documents\Alarm Controller\PIC Code\xPL.c
              __string_57   0x0046c9    program     static C:\Documents and Settings\Administrator\My Documents\Alarm Controller\PIC Code\SecuritySystem.c
              __string_57   0x005293    program     static C:\Documents and Settings\Administrator\My Documents\Alarm Controller\PIC Code\SecurityXPLSender.c
              __string_58   0x003ef3    program     static C:\Documents and Settings\Administrator\My Documents\Alarm Controller\PIC Code\xPL.c
              __string_58   0x005964    program     static C:\Documents and Settings\Administrator\My Documents\Alarm Controller\PIC Code\HTTPForms.c
              __string_58   0x005286    program     static C:\Documents and Settings\Administrator\My Documents\Alarm Controller\PIC Code\SecurityXPLSender.c
              __string_58   0x0046ac    program     static C:\Documents and Settings\Administrator\My Documents\Alarm Controller\PIC Code\SecuritySystem.c
              __string_59   0x005257    program     static C:\Documents and Settings\Administrator\My Documents\Alarm Controller\PIC Code\SecurityXPLSender.c
              __string_59   0x004688    program     static C:\Documents and Settings\Administrator\My Documents\Alarm Controller\PIC Code\SecuritySystem.c
              __string_59   0x005952    program     static C:\Documents and Settings\Administrator\My Documents\Alarm Controller\PIC Code\HTTPForms.c
              __string_59   0x003ed5    program     static C:\Documents and Settings\Administrator\My Documents\Alarm Controller\PIC Code\xPL.c
               __string_6   0x004a7e    program     static C:\Documents and Settings\Administrator\My Documents\Alarm Controller\PIC Code\SecuritySystem.c
               __string_6   0x0039c1    program     static C:\Documents and Settings\Administrator\My Documents\Alarm Controller\Microchip\TCPIP Stack\HTTP2.c
               __string_6   0x006268    program     static C:\Documents and Settings\Administrator\My Documents\Alarm Controller\PIC Code\HTTPDynVariables.c
               __string_6   0x003a29    program     static C:\Documents and Settings\Administrator\My Documents\Alarm Controller\Microchip\TCPIP Stack\SMTP.c
               __string_6   0x005759    program     static C:\Documents and Settings\Administrator\My Documents\Alarm Controller\PIC Code\SecurityXPLSender.c
               __string_6   0x004276    program     static C:\Documents and Settings\Administrator\My Documents\Alarm Controller\PIC Code\xPL.c
               __string_6   0x00620c    program     static C:\Documents and Settings\Administrator\My Documents\Alarm Controller\PIC Code\SNTP Customised.c
               __string_6   0x006123    program     static C:\Documents and Settings\Administrator\My Documents\Alarm Controller\PIC Code\EOL.c
               __string_6   0x005c2d    program     static C:\Documents and Settings\Administrator\My Documents\Alarm Controller\PIC Code\HTTPForms.c
               __string_6   0x005fba    program     static C:\Documents and Settings\Administrator\My Documents\Alarm Controller\PIC Code\SMTP.c
               __string_6   0x004de7    program     static C:\Documents and Settings\Administrator\My Documents\Alarm Controller\PIC Code\Authenticate.c
              __string_60   0x005247    program     static C:\Documents and Settings\Administrator\My Documents\Alarm Controller\PIC Code\SecurityXPLSender.c
              __string_60   0x00466b    program     static C:\Documents and Settings\Administrator\My Documents\Alarm Controller\PIC Code\SecuritySystem.c
              __string_60   0x003ea7    program     static C:\Documents and Settings\Administrator\My Documents\Alarm Controller\PIC Code\xPL.c
              __string_60   0x00594e    program     static C:\Documents and Settings\Administrator\My Documents\Alarm Controller\PIC Code\HTTPForms.c
              __string_61   0x005236    program     static C:\Documents and Settings\Administrator\My Documents\Alarm Controller\PIC Code\SecurityXPLSender.c
              __string_61   0x004641    program     static C:\Documents and Settings\Administrator\My Documents\Alarm Controller\PIC Code\SecuritySystem.c
              __string_61   0x003e79    program     static C:\Documents and Settings\Administrator\My Documents\Alarm Controller\PIC Code\xPL.c
              __string_61   0x005935    program     static C:\Documents and Settings\Administrator\My Documents\Alarm Controller\PIC Code\HTTPForms.c
              __string_62   0x00522b    program     static C:\Documents and Settings\Administrator\My Documents\Alarm Controller\PIC Code\SecurityXPLSender.c
              __string_62   0x00462a    program     static C:\Documents and Settings\Administrator\My Documents\Alarm Controller\PIC Code\SecuritySystem.c
              __string_62   0x003e49    program     static C:\Documents and Settings\Administrator\My Documents\Alarm Controller\PIC Code\xPL.c
              __string_62   0x005931    program     static C:\Documents and Settings\Administrator\My Documents\Alarm Controller\PIC Code\HTTPForms.c
              __string_63   0x00521c    program     static C:\Documents and Settings\Administrator\My Documents\Alarm Controller\PIC Code\SecurityXPLSender.c
              __string_63   0x00460a    program     static C:\Documents and Settings\Administrator\My Documents\Alarm Controller\PIC Code\SecuritySystem.c
              __string_63   0x005921    program     static C:\Documents and Settings\Administrator\My Documents\Alarm Controller\PIC Code\HTTPForms.c
              __string_63   0x003e2f    program     static C:\Documents and Settings\Administrator\My Documents\Alarm Controller\PIC Code\xPL.c
              __string_64   0x005208    program     static C:\Documents and Settings\Administrator\My Documents\Alarm Controller\PIC Code\SecurityXPLSender.c
              __string_64   0x00591d    program     static C:\Documents and Settings\Administrator\My Documents\Alarm Controller\PIC Code\HTTPForms.c
              __string_64   0x004606    program     static C:\Documents and Settings\Administrator\My Documents\Alarm Controller\PIC Code\SecuritySystem.c
              __string_64   0x003e26    program     static C:\Documents and Settings\Administrator\My Documents\Alarm Controller\PIC Code\xPL.c
              __string_65   0x0051d6    program     static C:\Documents and Settings\Administrator\My Documents\Alarm Controller\PIC Code\SecurityXPLSender.c
              __string_65   0x003e1b    program     static C:\Documents and Settings\Administrator\My Documents\Alarm Controller\PIC Code\xPL.c
              __string_65   0x005911    program     static C:\Documents and Settings\Administrator\My Documents\Alarm Controller\PIC Code\HTTPForms.c
              __string_65   0x004602    program     static C:\Documents and Settings\Administrator\My Documents\Alarm Controller\PIC Code\SecuritySystem.c
              __string_66   0x0051cd    program     static C:\Documents and Settings\Administrator\My Documents\Alarm Controller\PIC Code\SecurityXPLSender.c
              __string_66   0x0045fd    program     static C:\Documents and Settings\Administrator\My Documents\Alarm Controller\PIC Code\SecuritySystem.c
              __string_66   0x003dfd    program     static C:\Documents and Settings\Administrator\My Documents\Alarm Controller\PIC Code\xPL.c
              __string_66   0x00590d    program     static C:\Documents and Settings\Administrator\My Documents\Alarm Controller\PIC Code\HTTPForms.c
              __string_67   0x003dfb    program     static C:\Documents and Settings\Administrator\My Documents\Alarm Controller\PIC Code\xPL.c
              __string_67   0x0051c3    program     static C:\Documents and Settings\Administrator\My Documents\Alarm Controller\PIC Code\SecurityXPLSender.c
              __string_67   0x0058ff    program     static C:\Documents and Settings\Administrator\My Documents\Alarm Controller\PIC Code\HTTPForms.c
              __string_67   0x0045f3    program     static C:\Documents and Settings\Administrator\My Documents\Alarm Controller\PIC Code\SecuritySystem.c
              __string_68   0x0045e9    program     static C:\Documents and Settings\Administrator\My Documents\Alarm Controller\PIC Code\SecuritySystem.c
              __string_68   0x003ddd    program     static C:\Documents and Settings\Administrator\My Documents\Alarm Controller\PIC Code\xPL.c
              __string_68   0x0051bf    program     static C:\Documents and Settings\Administrator\My Documents\Alarm Controller\PIC Code\SecurityXPLSender.c
              __string_68   0x0058f8    program     static C:\Documents and Settings\Administrator\My Documents\Alarm Controller\PIC Code\HTTPForms.c
              __string_69   0x003db7    program     static C:\Documents and Settings\Administrator\My Documents\Alarm Controller\PIC Code\xPL.c
              __string_69   0x0045e3    program     static C:\Documents and Settings\Administrator\My Documents\Alarm Controller\PIC Code\SecuritySystem.c
              __string_69   0x0051b7    program     static C:\Documents and Settings\Administrator\My Documents\Alarm Controller\PIC Code\SecurityXPLSender.c
              __string_69   0x0058e1    program     static C:\Documents and Settings\Administrator\My Documents\Alarm Controller\PIC Code\HTTPForms.c
               __string_7   0x006112    program     static C:\Documents and Settings\Administrator\My Documents\Alarm Controller\PIC Code\EOL.c
               __string_7   0x005fa9    program     static C:\Documents and Settings\Administrator\My Documents\Alarm Controller\PIC Code\SMTP.c
               __string_7   0x00426f    program     static C:\Documents and Settings\Administrator\My Documents\Alarm Controller\PIC Code\xPL.c
               __string_7   0x004a7d    program     static C:\Documents and Settings\Administrator\My Documents\Alarm Controller\PIC Code\SecuritySystem.c
               __string_7   0x003a22    program     static C:\Documents and Settings\Administrator\My Documents\Alarm Controller\Microchip\TCPIP Stack\SMTP.c
               __string_7   0x004dd1    program     static C:\Documents and Settings\Administrator\My Documents\Alarm Controller\PIC Code\Authenticate.c
               __string_7   0x0061ed    program     static C:\Documents and Settings\Administrator\My Documents\Alarm Controller\PIC Code\SNTP Customised.c
               __string_7   0x0039bd    program     static C:\Documents and Settings\Administrator\My Documents\Alarm Controller\Microchip\TCPIP Stack\HTTP2.c
               __string_7   0x005c26    program     static C:\Documents and Settings\Administrator\My Documents\Alarm Controller\PIC Code\HTTPForms.c
               __string_7   0x006266    program     static C:\Documents and Settings\Administrator\My Documents\Alarm Controller\PIC Code\HTTPDynVariables.c
               __string_7   0x005728    program     static C:\Documents and Settings\Administrator\My Documents\Alarm Controller\PIC Code\SecurityXPLSender.c
              __string_70   0x003d8a    program     static C:\Documents and Settings\Administrator\My Documents\Alarm Controller\PIC Code\xPL.c
              __string_70   0x0058b3    program     static C:\Documents and Settings\Administrator\My Documents\Alarm Controller\PIC Code\HTTPForms.c
              __string_70   0x0045db    program     static C:\Documents and Settings\Administrator\My Documents\Alarm Controller\PIC Code\SecuritySystem.c
              __string_70   0x0051a0    program     static C:\Documents and Settings\Administrator\My Documents\Alarm Controller\PIC Code\SecurityXPLSender.c
              __string_71   0x00519e    program     static C:\Documents and Settings\Administrator\My Documents\Alarm Controller\PIC Code\SecurityXPLSender.c
              __string_71   0x0058a3    program     static C:\Documents and Settings\Administrator\My Documents\Alarm Controller\PIC Code\HTTPForms.c
              __string_71   0x003d5c    program     static C:\Documents and Settings\Administrator\My Documents\Alarm Controller\PIC Code\xPL.c
              __string_71   0x0045bb    program     static C:\Documents and Settings\Administrator\My Documents\Alarm Controller\PIC Code\SecuritySystem.c
              __string_72   0x00516b    program     static C:\Documents and Settings\Administrator\My Documents\Alarm Controller\PIC Code\SecurityXPLSender.c
              __string_72   0x005893    program     static C:\Documents and Settings\Administrator\My Documents\Alarm Controller\PIC Code\HTTPForms.c
              __string_72   0x003d43    program     static C:\Documents and Settings\Administrator\My Documents\Alarm Controller\PIC Code\xPL.c
              __string_72   0x0045b3    program     static C:\Documents and Settings\Administrator\My Documents\Alarm Controller\PIC Code\SecuritySystem.c
              __string_73   0x00515a    program     static C:\Documents and Settings\Administrator\My Documents\Alarm Controller\PIC Code\SecurityXPLSender.c
              __string_73   0x005883    program     static C:\Documents and Settings\Administrator\My Documents\Alarm Controller\PIC Code\HTTPForms.c
              __string_73   0x003d30    program     static C:\Documents and Settings\Administrator\My Documents\Alarm Controller\PIC Code\xPL.c
              __string_73   0x004593    program     static C:\Documents and Settings\Administrator\My Documents\Alarm Controller\PIC Code\SecuritySystem.c
              __string_74   0x004545    program     static C:\Documents and Settings\Administrator\My Documents\Alarm Controller\PIC Code\SecuritySystem.c
              __string_74   0x005142    program     static C:\Documents and Settings\Administrator\My Documents\Alarm Controller\PIC Code\SecurityXPLSender.c
              __string_74   0x003d1b    program     static C:\Documents and Settings\Administrator\My Documents\Alarm Controller\PIC Code\xPL.c
              __string_74   0x00587f    program     static C:\Documents and Settings\Administrator\My Documents\Alarm Controller\PIC Code\HTTPForms.c
              __string_75   0x00450f    program     static C:\Documents and Settings\Administrator\My Documents\Alarm Controller\PIC Code\SecuritySystem.c
              __string_75   0x005112    program     static C:\Documents and Settings\Administrator\My Documents\Alarm Controller\PIC Code\SecurityXPLSender.c
              __string_75   0x00587c    program     static C:\Documents and Settings\Administrator\My Documents\Alarm Controller\PIC Code\HTTPForms.c
              __string_75   0x003cd8    program     static C:\Documents and Settings\Administrator\My Documents\Alarm Controller\PIC Code\xPL.c
              __string_76   0x0044ed    program     static C:\Documents and Settings\Administrator\My Documents\Alarm Controller\PIC Code\SecuritySystem.c
              __string_76   0x00585e    program     static C:\Documents and Settings\Administrator\My Documents\Alarm Controller\PIC Code\HTTPForms.c
              __string_76   0x003cc9    program     static C:\Documents and Settings\Administrator\My Documents\Alarm Controller\PIC Code\xPL.c
              __string_76   0x0050fd    program     static C:\Documents and Settings\Administrator\My Documents\Alarm Controller\PIC Code\SecurityXPLSender.c
              __string_77   0x003cc5    program     static C:\Documents and Settings\Administrator\My Documents\Alarm Controller\PIC Code\xPL.c
              __string_77   0x0050e9    program     static C:\Documents and Settings\Administrator\My Documents\Alarm Controller\PIC Code\SecurityXPLSender.c
              __string_77   0x00584b    program     static C:\Documents and Settings\Administrator\My Documents\Alarm Controller\PIC Code\HTTPForms.c
              __string_77   0x0044e5    program     static C:\Documents and Settings\Administrator\My Documents\Alarm Controller\PIC Code\SecuritySystem.c
              __string_78   0x003ca1    program     static C:\Documents and Settings\Administrator\My Documents\Alarm Controller\PIC Code\xPL.c
              __string_78   0x005847    program     static C:\Documents and Settings\Administrator\My Documents\Alarm Controller\PIC Code\HTTPForms.c
              __string_78   0x0044db    program     static C:\Documents and Settings\Administrator\My Documents\Alarm Controller\PIC Code\SecuritySystem.c
              __string_78   0x0050d2    program     static C:\Documents and Settings\Administrator\My Documents\Alarm Controller\PIC Code\SecurityXPLSender.c
              __string_79   0x0044d2    program     static C:\Documents and Settings\Administrator\My Documents\Alarm Controller\PIC Code\SecuritySystem.c
              __string_79   0x0050a7    program     static C:\Documents and Settings\Administrator\My Documents\Alarm Controller\PIC Code\SecurityXPLSender.c
              __string_79   0x003c75    program     static C:\Documents and Settings\Administrator\My Documents\Alarm Controller\PIC Code\xPL.c
              __string_79   0x005843    program     static C:\Documents and Settings\Administrator\My Documents\Alarm Controller\PIC Code\HTTPForms.c
               __string_8   0x005716    program     static C:\Documents and Settings\Administrator\My Documents\Alarm Controller\PIC Code\SecurityXPLSender.c
               __string_8   0x0060fd    program     static C:\Documents and Settings\Administrator\My Documents\Alarm Controller\PIC Code\EOL.c
               __string_8   0x004a73    program     static C:\Documents and Settings\Administrator\My Documents\Alarm Controller\PIC Code\SecuritySystem.c
               __string_8   0x005c19    program     static C:\Documents and Settings\Administrator\My Documents\Alarm Controller\PIC Code\HTTPForms.c
               __string_8   0x003a1b    program     static C:\Documents and Settings\Administrator\My Documents\Alarm Controller\Microchip\TCPIP Stack\SMTP.c
               __string_8   0x005fa1    program     static C:\Documents and Settings\Administrator\My Documents\Alarm Controller\PIC Code\SMTP.c
               __string_8   0x006264    program     static C:\Documents and Settings\Administrator\My Documents\Alarm Controller\PIC Code\HTTPDynVariables.c
               __string_8   0x0061c9    program     static C:\Documents and Settings\Administrator\My Documents\Alarm Controller\PIC Code\SNTP Customised.c
               __string_8   0x004da8    program     static C:\Documents and Settings\Administrator\My Documents\Alarm Controller\PIC Code\Authenticate.c
               __string_8   0x0039b9    program     static C:\Documents and Settings\Administrator\My Documents\Alarm Controller\Microchip\TCPIP Stack\HTTP2.c
               __string_8   0x004268    program     static C:\Documents and Settings\Administrator\My Documents\Alarm Controller\PIC Code\xPL.c
              __string_80   0x0044c7    program     static C:\Documents and Settings\Administrator\My Documents\Alarm Controller\PIC Code\SecuritySystem.c
              __string_80   0x005096    program     static C:\Documents and Settings\Administrator\My Documents\Alarm Controller\PIC Code\SecurityXPLSender.c
              __string_80   0x00583b    program     static C:\Documents and Settings\Administrator\My Documents\Alarm Controller\PIC Code\HTTPForms.c
              __string_80   0x003c52    program     static C:\Documents and Settings\Administrator\My Documents\Alarm Controller\PIC Code\xPL.c
              __string_81   0x0044c4    program     static C:\Documents and Settings\Administrator\My Documents\Alarm Controller\PIC Code\SecuritySystem.c
              __string_81   0x005081    program     static C:\Documents and Settings\Administrator\My Documents\Alarm Controller\PIC Code\SecurityXPLSender.c
              __string_81   0x005835    program     static C:\Documents and Settings\Administrator\My Documents\Alarm Controller\PIC Code\HTTPForms.c
              __string_81   0x003c27    program     static C:\Documents and Settings\Administrator\My Documents\Alarm Controller\PIC Code\xPL.c
              __string_82   0x0044c0    program     static C:\Documents and Settings\Administrator\My Documents\Alarm Controller\PIC Code\SecuritySystem.c
              __string_82   0x005071    program     static C:\Documents and Settings\Administrator\My Documents\Alarm Controller\PIC Code\SecurityXPLSender.c
              __string_82   0x003bfc    program     static C:\Documents and Settings\Administrator\My Documents\Alarm Controller\PIC Code\xPL.c
              __string_82   0x00582f    program     static C:\Documents and Settings\Administrator\My Documents\Alarm Controller\PIC Code\HTTPForms.c
              __string_83   0x003bcf    program     static C:\Documents and Settings\Administrator\My Documents\Alarm Controller\PIC Code\xPL.c
              __string_83   0x0044b3    program     static C:\Documents and Settings\Administrator\My Documents\Alarm Controller\PIC Code\SecuritySystem.c
              __string_83   0x005044    program     static C:\Documents and Settings\Administrator\My Documents\Alarm Controller\PIC Code\SecurityXPLSender.c
              __string_83   0x00582a    program     static C:\Documents and Settings\Administrator\My Documents\Alarm Controller\PIC Code\HTTPForms.c
              __string_84   0x005824    program     static C:\Documents and Settings\Administrator\My Documents\Alarm Controller\PIC Code\HTTPForms.c
              __string_84   0x003bba    program     static C:\Documents and Settings\Administrator\My Documents\Alarm Controller\PIC Code\xPL.c
              __string_84   0x0044ac    program     static C:\Documents and Settings\Administrator\My Documents\Alarm Controller\PIC Code\SecuritySystem.c
              __string_84   0x00503b    program     static C:\Documents and Settings\Administrator\My Documents\Alarm Controller\PIC Code\SecurityXPLSender.c
              __string_85   0x0044a4    program     static C:\Documents and Settings\Administrator\My Documents\Alarm Controller\PIC Code\SecuritySystem.c
              __string_85   0x005811    program     static C:\Documents and Settings\Administrator\My Documents\Alarm Controller\PIC Code\HTTPForms.c
              __string_85   0x003ba4    program     static C:\Documents and Settings\Administrator\My Documents\Alarm Controller\PIC Code\xPL.c
              __string_85   0x005035    program     static C:\Documents and Settings\Administrator\My Documents\Alarm Controller\PIC Code\SecurityXPLSender.c
              __string_86   0x0057f9    program     static C:\Documents and Settings\Administrator\My Documents\Alarm Controller\PIC Code\HTTPForms.c
              __string_86   0x003b85    program     static C:\Documents and Settings\Administrator\My Documents\Alarm Controller\PIC Code\xPL.c
              __string_86   0x00502e    program     static C:\Documents and Settings\Administrator\My Documents\Alarm Controller\PIC Code\SecurityXPLSender.c
              __string_86   0x004493    program     static C:\Documents and Settings\Administrator\My Documents\Alarm Controller\PIC Code\SecuritySystem.c
              __string_87   0x003b70    program     static C:\Documents and Settings\Administrator\My Documents\Alarm Controller\PIC Code\xPL.c
              __string_87   0x005021    program     static C:\Documents and Settings\Administrator\My Documents\Alarm Controller\PIC Code\SecurityXPLSender.c
              __string_87   0x004477    program     static C:\Documents and Settings\Administrator\My Documents\Alarm Controller\PIC Code\SecuritySystem.c
              __string_88   0x003b5b    program     static C:\Documents and Settings\Administrator\My Documents\Alarm Controller\PIC Code\xPL.c
              __string_88   0x00445e    program     static C:\Documents and Settings\Administrator\My Documents\Alarm Controller\PIC Code\SecuritySystem.c
              __string_88   0x005019    program     static C:\Documents and Settings\Administrator\My Documents\Alarm Controller\PIC Code\SecurityXPLSender.c
              __string_89   0x003b37    program     static C:\Documents and Settings\Administrator\My Documents\Alarm Controller\PIC Code\xPL.c
              __string_89   0x00444d    program     static C:\Documents and Settings\Administrator\My Documents\Alarm Controller\PIC Code\SecuritySystem.c
              __string_89   0x005012    program     static C:\Documents and Settings\Administrator\My Documents\Alarm Controller\PIC Code\SecurityXPLSender.c
               __string_9   0x004d71    program     static C:\Documents and Settings\Administrator\My Documents\Alarm Controller\PIC Code\Authenticate.c
               __string_9   0x0061b7    program     static C:\Documents and Settings\Administrator\My Documents\Alarm Controller\PIC Code\SNTP Customised.c
               __string_9   0x005f9e    program     static C:\Documents and Settings\Administrator\My Documents\Alarm Controller\PIC Code\SMTP.c
               __string_9   0x003a14    program     static C:\Documents and Settings\Administrator\My Documents\Alarm Controller\Microchip\TCPIP Stack\SMTP.c
               __string_9   0x004266    program     static C:\Documents and Settings\Administrator\My Documents\Alarm Controller\PIC Code\xPL.c
               __string_9   0x005c16    program     static C:\Documents and Settings\Administrator\My Documents\Alarm Controller\PIC Code\HTTPForms.c
               __string_9   0x005703    program     static C:\Documents and Settings\Administrator\My Documents\Alarm Controller\PIC Code\SecurityXPLSender.c
               __string_9   0x0039b5    program     static C:\Documents and Settings\Administrator\My Documents\Alarm Controller\Microchip\TCPIP Stack\HTTP2.c
               __string_9   0x0060e4    program     static C:\Documents and Settings\Administrator\My Documents\Alarm Controller\PIC Code\EOL.c
               __string_9   0x004a6a    program     static C:\Documents and Settings\Administrator\My Documents\Alarm Controller\PIC Code\SecuritySystem.c
              __string_90   0x004421    program     static C:\Documents and Settings\Administrator\My Documents\Alarm Controller\PIC Code\SecuritySystem.c
              __string_90   0x003b29    program     static C:\Documents and Settings\Administrator\My Documents\Alarm Controller\PIC Code\xPL.c
              __string_90   0x005008    program     static C:\Documents and Settings\Administrator\My Documents\Alarm Controller\PIC Code\SecurityXPLSender.c
              __string_91   0x00440c    program     static C:\Documents and Settings\Administrator\My Documents\Alarm Controller\PIC Code\SecuritySystem.c
              __string_91   0x003af6    program     static C:\Documents and Settings\Administrator\My Documents\Alarm Controller\PIC Code\xPL.c
              __string_91   0x005001    program     static C:\Documents and Settings\Administrator\My Documents\Alarm Controller\PIC Code\SecurityXPLSender.c
              __string_92   0x003acb    program     static C:\Documents and Settings\Administrator\My Documents\Alarm Controller\PIC Code\xPL.c
              __string_92   0x004ff5    program     static C:\Documents and Settings\Administrator\My Documents\Alarm Controller\PIC Code\SecurityXPLSender.c
              __string_92   0x0043fd    program     static C:\Documents and Settings\Administrator\My Documents\Alarm Controller\PIC Code\SecuritySystem.c
              __string_93   0x0043ee    program     static C:\Documents and Settings\Administrator\My Documents\Alarm Controller\PIC Code\SecuritySystem.c
              __string_93   0x004fe3    program     static C:\Documents and Settings\Administrator\My Documents\Alarm Controller\PIC Code\SecurityXPLSender.c
              __string_93   0x003abc    program     static C:\Documents and Settings\Administrator\My Documents\Alarm Controller\PIC Code\xPL.c
              __string_94   0x0043c2    program     static C:\Documents and Settings\Administrator\My Documents\Alarm Controller\PIC Code\SecuritySystem.c
              __string_94   0x004fb6    program     static C:\Documents and Settings\Administrator\My Documents\Alarm Controller\PIC Code\SecurityXPLSender.c
              __string_94   0x003aa9    program     static C:\Documents and Settings\Administrator\My Documents\Alarm Controller\PIC Code\xPL.c
              __string_95   0x004fae    program     static C:\Documents and Settings\Administrator\My Documents\Alarm Controller\PIC Code\SecurityXPLSender.c
              __string_95   0x0043bc    program     static C:\Documents and Settings\Administrator\My Documents\Alarm Controller\PIC Code\SecuritySystem.c
              __string_95   0x003a8c    program     static C:\Documents and Settings\Administrator\My Documents\Alarm Controller\PIC Code\xPL.c
              __string_96   0x003a82    program     static C:\Documents and Settings\Administrator\My Documents\Alarm Controller\PIC Code\xPL.c
              __string_96   0x004fa9    program     static C:\Documents and Settings\Administrator\My Documents\Alarm Controller\PIC Code\SecurityXPLSender.c
              __string_96   0x0043ad    program     static C:\Documents and Settings\Administrator\My Documents\Alarm Controller\PIC Code\SecuritySystem.c
              __string_97   0x004fa3    program     static C:\Documents and Settings\Administrator\My Documents\Alarm Controller\PIC Code\SecurityXPLSender.c
              __string_97   0x003a75    program     static C:\Documents and Settings\Administrator\My Documents\Alarm Controller\PIC Code\xPL.c
              __string_97   0x00439f    program     static C:\Documents and Settings\Administrator\My Documents\Alarm Controller\PIC Code\SecuritySystem.c
              __string_98   0x004f9b    program     static C:\Documents and Settings\Administrator\My Documents\Alarm Controller\PIC Code\SecurityXPLSender.c
              __string_98   0x004374    program     static C:\Documents and Settings\Administrator\My Documents\Alarm Controller\PIC Code\SecuritySystem.c
              __string_99   0x004f93    program     static C:\Documents and Settings\Administrator\My Documents\Alarm Controller\PIC Code\SecurityXPLSender.c
              __string_99   0x00435f    program     static C:\Documents and Settings\Administrator\My Documents\Alarm Controller\PIC Code\SecuritySystem.c
               __tmplbl_0   0x012fc6    program     static                          
               __tmplbl_0   0x006850    program     static                          
               __tmplbl_0   0x00c9ea    program     static                          
               __tmplbl_1   0x012fc6    program     static                          
               __tmplbl_1   0x00c9ea    program     static                          
              __tmplbl_10   0x00db74    program     static                          
              __tmplbl_10   0x013d84    program     static                          
             __tmplbl_100   0x0029c8    program     static                          
             __tmplbl_101   0x00683e    program     static                          
             __tmplbl_102   0x006868    program     static                          
              __tmplbl_11   0x013d88    program     static                          
             __tmplbl_129   0x00865c    program     static                          
              __tmplbl_13   0x00db74    program     static                          
             __tmplbl_141   0x00862a    program     static                          
             __tmplbl_142   0x002de2    program     static                          
             __tmplbl_143   0x0029c8    program     static                          
             __tmplbl_146   0x00862a    program     static                          
             __tmplbl_146   0x0024c8    program     static                          
             __tmplbl_148   0x0024c8    program     static                          
             __tmplbl_149   0x0089c2    program     static                          
             __tmplbl_149   0x0024d6    program     static                          
             __tmplbl_152   0x0089c2    program     static                          
             __tmplbl_155   0x0024d6    program     static                          
             __tmplbl_155   0x008538    program     static                          
             __tmplbl_157   0x0024d6    program     static                          
             __tmplbl_158   0x0024d6    program     static                          
              __tmplbl_16   0x00dbbe    program     static                          
             __tmplbl_164   0x00862a    program     static                          
             __tmplbl_165   0x00862a    program     static                          
             __tmplbl_166   0x008538    program     static                          
             __tmplbl_174   0x008538    program     static                          
             __tmplbl_183   0x009914    program     static                          
             __tmplbl_184   0x00990e    program     static                          
             __tmplbl_185   0x009900    program     static                          
             __tmplbl_186   0x0098fc    program     static                          
             __tmplbl_187   0x0098f8    program     static                          
             __tmplbl_188   0x0098f4    program     static                          
             __tmplbl_189   0x0098f0    program     static                          
              __tmplbl_19   0x00dbbe    program     static                          
             __tmplbl_190   0x0098ec    program     static                          
             __tmplbl_191   0x0098e8    program     static                          
             __tmplbl_192   0x0098e4    program     static                          
             __tmplbl_193   0x0098e0    program     static                          
             __tmplbl_194   0x0098dc    program     static                          
             __tmplbl_195   0x0098d8    program     static                          
             __tmplbl_196   0x0098d4    program     static                          
             __tmplbl_197   0x0098d0    program     static                          
             __tmplbl_198   0x0098cc    program     static                          
             __tmplbl_199   0x0098c8    program     static                          
               __tmplbl_2   0x00c9ea    program     static                          
               __tmplbl_2   0x013d3c    program     static                          
             __tmplbl_200   0x0098c4    program     static                          
             __tmplbl_201   0x0098c0    program     static                          
             __tmplbl_202   0x0098bc    program     static                          
             __tmplbl_203   0x0098b8    program     static                          
             __tmplbl_204   0x0098b4    program     static                          
             __tmplbl_205   0x0098b0    program     static                          
             __tmplbl_206   0x0098ac    program     static                          
             __tmplbl_207   0x0098a8    program     static                          
             __tmplbl_208   0x0098a4    program     static                          
             __tmplbl_209   0x00989e    program     static                          
             __tmplbl_210   0x009898    program     static                          
             __tmplbl_211   0x009892    program     static                          
             __tmplbl_212   0x00988c    program     static                          
             __tmplbl_213   0x009880    program     static                          
             __tmplbl_214   0x00987c    program     static                          
             __tmplbl_215   0x009878    program     static                          
             __tmplbl_216   0x009874    program     static                          
             __tmplbl_217   0x009866    program     static                          
             __tmplbl_218   0x009862    program     static                          
             __tmplbl_219   0x00985e    program     static                          
              __tmplbl_22   0x00dbbe    program     static                          
             __tmplbl_220   0x00985a    program     static                          
             __tmplbl_221   0x009856    program     static                          
             __tmplbl_222   0x00984e    program     static                          
             __tmplbl_223   0x00984a    program     static                          
             __tmplbl_224   0x009846    program     static                          
             __tmplbl_225   0x009842    program     static                          
             __tmplbl_226   0x00983e    program     static                          
             __tmplbl_227   0x009836    program     static                          
             __tmplbl_228   0x009832    program     static                          
             __tmplbl_229   0x00982e    program     static                          
             __tmplbl_230   0x00982a    program     static                          
             __tmplbl_231   0x009826    program     static                          
             __tmplbl_232   0x00981e    program     static                          
             __tmplbl_233   0x00981a    program     static                          
             __tmplbl_234   0x009816    program     static                          
             __tmplbl_235   0x009812    program     static                          
             __tmplbl_236   0x00980e    program     static                          
             __tmplbl_237   0x00980a    program     static                          
             __tmplbl_238   0x009806    program     static                          
             __tmplbl_239   0x009802    program     static                          
             __tmplbl_240   0x0097fe    program     static                          
             __tmplbl_241   0x0097fa    program     static                          
             __tmplbl_242   0x0097f6    program     static                          
             __tmplbl_243   0x0097f2    program     static                          
             __tmplbl_244   0x0097ee    program     static                          
             __tmplbl_245   0x0097ea    program     static                          
             __tmplbl_246   0x0097e4    program     static                          
             __tmplbl_247   0x0097de    program     static                          
             __tmplbl_248   0x0097d8    program     static                          
               __tmplbl_3   0x00c9ea    program     static                          
               __tmplbl_3   0x013d28    program     static                          
              __tmplbl_32   0x011ad2    program     static                          
             __tmplbl_323   0x00ad0c    program     static                          
             __tmplbl_324   0x00adb2    program     static                          
              __tmplbl_33   0x011b62    program     static                          
              __tmplbl_34   0x011ba4    program     static                          
             __tmplbl_344   0x00ad0c    program     static                          
              __tmplbl_35   0x011c1c    program     static                          
              __tmplbl_35   0x00fe2c    program     static                          
               __tmplbl_4   0x00ca20    program     static                          
               __tmplbl_4   0x013d1e    program     static                          
               __tmplbl_5   0x00ca20    program     static                          
               __tmplbl_5   0x013d0a    program     static                          
               __tmplbl_6   0x013a20    program     static                          
               __tmplbl_6   0x00ca20    program     static                          
               __tmplbl_6   0x013cf4    program     static                          
              __tmplbl_60   0x010d50    program     static                          
              __tmplbl_61   0x010d50    program     static                          
              __tmplbl_66   0x00790a    program     static                          
              __tmplbl_67   0x007900    program     static                          
              __tmplbl_68   0x007b62    program     static                          
              __tmplbl_69   0x007b6c    program     static                          
               __tmplbl_7   0x013a20    program     static                          
               __tmplbl_7   0x013ce4    program     static                          
              __tmplbl_70   0x007b76    program     static                          
              __tmplbl_71   0x007b80    program     static                          
              __tmplbl_72   0x007b8a    program     static                          
              __tmplbl_73   0x007b94    program     static                          
              __tmplbl_74   0x007b9e    program     static                          
              __tmplbl_75   0x007ba8    program     static                          
              __tmplbl_76   0x007bb0    program     static                          
              __tmplbl_76   0x0029c8    program     static                          
              __tmplbl_77   0x007c52    program     static                          
              __tmplbl_78   0x007c5c    program     static                          
              __tmplbl_79   0x007c66    program     static                          
               __tmplbl_8   0x013ce2    program     static                          
              __tmplbl_80   0x0029c8    program     static                          
              __tmplbl_80   0x007c70    program     static                          
              __tmplbl_81   0x0029c8    program     static                          
              __tmplbl_81   0x007c7a    program     static                          
              __tmplbl_82   0x0029c8    program     static                          
              __tmplbl_82   0x007c84    program     static                          
              __tmplbl_83   0x0029c8    program     static                          
              __tmplbl_83   0x007c8e    program     static                          
              __tmplbl_84   0x00ba6e    program     static                          
              __tmplbl_84   0x0029c8    program     static                          
              __tmplbl_84   0x007c96    program     static                          
              __tmplbl_85   0x007d1c    program     static                          
              __tmplbl_86   0x007d14    program     static                          
              __tmplbl_87   0x002de2    program     static                          
              __tmplbl_87   0x007e02    program     static                          
              __tmplbl_88   0x00ba72    program     static                          
              __tmplbl_88   0x007df6    program     static                          
              __tmplbl_89   0x00ba72    program     static                          
              __tmplbl_89   0x002de2    program     static                          
              __tmplbl_89   0x007e34    program     static                          
               __tmplbl_9   0x013d8e    program     static                          
              __tmplbl_90   0x0029c8    program     static                          
              __tmplbl_90   0x00ba72    program     static                          
              __tmplbl_90   0x007e1e    program     static                          
              __tmplbl_91   0x0029c8    program     static                          
              __tmplbl_91   0x007e82    program     static                          
              __tmplbl_92   0x007e66    program     static                          
              __tmplbl_92   0x002ac8    program     static                          
              __tmplbl_93   0x0029c8    program     static                          
              __tmplbl_93   0x00ba72    program     static                          
              __tmplbl_94   0x0029c8    program     static                          
              __tmplbl_94   0x00ba72    program     static                          
              __tmplbl_95   0x00ba72    program     static                          
              __tmplbl_96   0x00ba70    program     static                          
              __tmplbl_97   0x002ac8    program     static                          
              __tmplbl_97   0x00865c    program     static                          
              __tmplbl_97   0x00ba72    program     static                          
              __tmplbl_99   0x00ba66    program     static                          
            __zero_memory   0x018e14    program     extern C:\MCC18\src\extended\proc\p18F97J60.asm
                   _addBI   0x015fb0    program     extern C:\Documents and Settings\Administrator\My Documents\Alarm Controller\Microchip\TCPIP Stack\BigInt_helper.asm
                _addBIROM   0x016034    program     extern C:\Documents and Settings\Administrator\My Documents\Alarm Controller\Microchip\TCPIP Stack\BigInt_helper.asm
                  _copyBI   0x016512    program     extern C:\Documents and Settings\Administrator\My Documents\Alarm Controller\Microchip\TCPIP Stack\BigInt_helper.asm
                _do_cinit   0x01ff30    program     extern C:\MCC18\src\extended\startup\c018i_e.c
            _early16uexit   0x017d58    program     extern C:\MCC18\src\extended\math\div16u.asm
            _early32uexit   0x017dd0    program     extern C:\MCC18\src\extended\math\div32u.asm
                   _entry   0x000000    program     extern C:\MCC18\src\extended\startup\c018i_e.c
                   _false   0x017e14    program     static C:\MCC18\src\extended\math\div32u.asm
                   _masBI   0x0163ac    program     extern C:\Documents and Settings\Administrator\My Documents\Alarm Controller\Microchip\TCPIP Stack\BigInt_helper.asm
                _masBIROM   0x016464    program     extern C:\Documents and Settings\Administrator\My Documents\Alarm Controller\Microchip\TCPIP Stack\BigInt_helper.asm
                   _msbBI   0x0161d8    program     extern C:\Documents and Settings\Administrator\My Documents\Alarm Controller\Microchip\TCPIP Stack\BigInt_helper.asm
                   _mulBI   0x0161f8    program     extern C:\Documents and Settings\Administrator\My Documents\Alarm Controller\Microchip\TCPIP Stack\BigInt_helper.asm
                _mulBIROM   0x01626c    program     extern C:\Documents and Settings\Administrator\My Documents\Alarm Controller\Microchip\TCPIP Stack\BigInt_helper.asm
                   _sqrBI   0x0162e0    program     extern C:\Documents and Settings\Administrator\My Documents\Alarm Controller\Microchip\TCPIP Stack\BigInt_helper.asm
                 _startup   0x018dc0    program     extern C:\MCC18\src\extended\startup\c018i_e.c
                   _subBI   0x0160b6    program     extern C:\Documents and Settings\Administrator\My Documents\Alarm Controller\Microchip\TCPIP Stack\BigInt_helper.asm
                _subBIROM   0x01613a    program     extern C:\Documents and Settings\Administrator\My Documents\Alarm Controller\Microchip\TCPIP Stack\BigInt_helper.asm
                  _zeroBI   0x0161bc    program     extern C:\Documents and Settings\Administrator\My Documents\Alarm Controller\Microchip\TCPIP Stack\BigInt_helper.asm
                  aDo8Add   0x015fe0    program     static C:\Documents and Settings\Administrator\My Documents\Alarm Controller\Microchip\TCPIP Stack\BigInt_helper.asm
            aDoFinalCarry   0x016018    program     static C:\Documents and Settings\Administrator\My Documents\Alarm Controller\Microchip\TCPIP Stack\BigInt_helper.asm
           aDoResidualAdd   0x01600c    program     static C:\Documents and Settings\Administrator\My Documents\Alarm Controller\Microchip\TCPIP Stack\BigInt_helper.asm
                    aDone   0x016022    program     static C:\Documents and Settings\Administrator\My Documents\Alarm Controller\Microchip\TCPIP Stack\BigInt_helper.asm
                 aRDo8Add   0x016060    program     static C:\Documents and Settings\Administrator\My Documents\Alarm Controller\Microchip\TCPIP Stack\BigInt_helper.asm
           aRDoFinalCarry   0x0160aa    program     static C:\Documents and Settings\Administrator\My Documents\Alarm Controller\Microchip\TCPIP Stack\BigInt_helper.asm
          aRDoResidualAdd   0x01609c    program     static C:\Documents and Settings\Administrator\My Documents\Alarm Controller\Microchip\TCPIP Stack\BigInt_helper.asm
                   aRDone   0x0160b4    program     static C:\Documents and Settings\Administrator\My Documents\Alarm Controller\Microchip\TCPIP Stack\BigInt_helper.asm
               aRTest8Add   0x016094    program     static C:\Documents and Settings\Administrator\My Documents\Alarm Controller\Microchip\TCPIP Stack\BigInt_helper.asm
        aRTestResidualAdd   0x0160a2    program     static C:\Documents and Settings\Administrator\My Documents\Alarm Controller\Microchip\TCPIP Stack\BigInt_helper.asm
                aTest8Add   0x016004    program     static C:\Documents and Settings\Administrator\My Documents\Alarm Controller\Microchip\TCPIP Stack\BigInt_helper.asm
         aTestResidualAdd   0x016010    program     static C:\Documents and Settings\Administrator\My Documents\Alarm Controller\Microchip\TCPIP Stack\BigInt_helper.asm
            addxPLMessage   0x00ca44    program     extern C:\Documents and Settings\Administrator\My Documents\Alarm Controller\PIC Code\SecurityXPLSender.c
                     atoi   0x016568    program     extern C:\MCC18\src\extended\stdclib\atoi.asm
                     atol   0x016652    program     extern C:\MCC18\src\extended\stdclib\atol.asm
             btohexa_high   0x0121f8    program     extern C:\Documents and Settings\Administrator\My Documents\Alarm Controller\Microchip\TCPIP Stack\Helpers.c
              btohexa_low   0x012216    program     extern C:\Documents and Settings\Administrator\My Documents\Alarm Controller\Microchip\TCPIP Stack\Helpers.c
               bypassArea   0x00824a    program     extern C:\Documents and Settings\Administrator\My Documents\Alarm Controller\PIC Code\SecuritySystem.c
               bypassZone   0x008228    program     extern C:\Documents and Settings\Administrator\My Documents\Alarm Controller\PIC Code\SecuritySystem.c
                    cLoop   0x016530    program     static C:\Documents and Settings\Administrator\My Documents\Alarm Controller\Microchip\TCPIP Stack\BigInt_helper.asm
                    cZero   0x016548    program     static C:\Documents and Settings\Administrator\My Documents\Alarm Controller\Microchip\TCPIP Stack\BigInt_helper.asm
                cZeroTest   0x01654a    program     static C:\Documents and Settings\Administrator\My Documents\Alarm Controller\Microchip\TCPIP Stack\BigInt_helper.asm
               clear_loop   0x018e1a    program     static C:\MCC18\src\extended\proc\p18F97J60.asm
                copy_loop   0x01ffa2    program     static                          
            copy_one_byte   0x01ffa8    program     static                          
                divmod16u   0x017d5a    program     static C:\MCC18\src\extended\math\div16u.asm
                divmod32u   0x017dd2    program     static C:\MCC18\src\extended\math\div32u.asm
                     done   0x01ffcc    program     static                          
             done_copying   0x01ffb6    program     static                          
                  endloop   0x017d80    program     static C:\MCC18\src\extended\math\div16u.asm
                getsUSART   0x018ac8    program     extern C:\Documents and Settings\Administrator\My Documents\Alarm Controller\Microchip\TCPIP Stack\UART.c
                  hexatob   0x0121bc    program     extern C:\Documents and Settings\Administrator\My Documents\Alarm Controller\Microchip\TCPIP Stack\Helpers.c
       isZoneMemberOfArea   0x00763e    program     extern C:\Documents and Settings\Administrator\My Documents\Alarm Controller\PIC Code\SecuritySystem.c
                  isdigit   0x01ffce    program     extern C:\MCC18\src\extended\stdclib\isdigit.asm
                   itoBCD   0x016888    program     extern C:\MCC18\src\extended\stdclib\itobcd.asm
                     itoa   0x0167a8    program     extern C:\MCC18\src\extended\stdclib\itoa.asm
                     jDo1   0x0169ca    program     static C:\MCC18\src\extended\stdclib\ultoa.asm
                     jDo1   0x01682e    program     static C:\MCC18\src\extended\stdclib\itoa.asm
                    jDo10   0x0169a6    program     static C:\MCC18\src\extended\stdclib\ultoa.asm
                     jDo2   0x01682a    program     static C:\MCC18\src\extended\stdclib\itoa.asm
                     jDo2   0x0169c6    program     static C:\MCC18\src\extended\stdclib\ultoa.asm
                     jDo3   0x016826    program     static C:\MCC18\src\extended\stdclib\itoa.asm
                     jDo3   0x0169c2    program     static C:\MCC18\src\extended\stdclib\ultoa.asm
                     jDo4   0x016822    program     static C:\MCC18\src\extended\stdclib\itoa.asm
                     jDo4   0x0169be    program     static C:\MCC18\src\extended\stdclib\ultoa.asm
                     jDo5   0x0169ba    program     static C:\MCC18\src\extended\stdclib\ultoa.asm
                     jDo5   0x01681e    program     static C:\MCC18\src\extended\stdclib\itoa.asm
                     jDo6   0x0169b6    program     static C:\MCC18\src\extended\stdclib\ultoa.asm
                     jDo7   0x0169b2    program     static C:\MCC18\src\extended\stdclib\ultoa.asm
                     jDo8   0x0169ae    program     static C:\MCC18\src\extended\stdclib\ultoa.asm
                     jDo9   0x0169aa    program     static C:\MCC18\src\extended\stdclib\ultoa.asm
                     jEnd   0x017068    program     static C:\MCC18\src\extended\stdclib\memcpy.asm
                     jEnd   0x017022    program     static C:\MCC18\src\extended\stdclib\mcmpp2r.asm
                     jEnd   0x016fd0    program     static C:\MCC18\src\extended\stdclib\memcmp.asm
                     jEnd   0x0168c6    program     static C:\MCC18\src\extended\stdclib\itobcd.asm
                     jEnd   0x016770    program     static C:\MCC18\src\extended\stdclib\atol.asm
                     jEnd   0x016626    program     static C:\MCC18\src\extended\stdclib\atoi.asm
                     jEnd   0x0170be    program     static C:\MCC18\src\extended\stdclib\mcpyp2r.asm
                     jEnd   0x0170f2    program     static C:\MCC18\src\extended\stdclib\memset.asm
                     jEnd   0x017172    program     static C:\MCC18\src\extended\stdclib\scatp2r.asm
                     jEnd   0x01719a    program     static C:\MCC18\src\extended\stdclib\strchr.asm
                     jEnd   0x0171de    program     static C:\MCC18\src\extended\stdclib\schrpgm.asm
                     jEnd   0x01721c    program     static C:\MCC18\src\extended\stdclib\strcmp.asm
                     jEnd   0x01725c    program     static C:\MCC18\src\extended\stdclib\scmpp2r.asm
                     jEnd   0x0172d0    program     static C:\MCC18\src\extended\stdclib\scpyp2r.asm
                     jEnd   0x0172ec    program     static C:\MCC18\src\extended\stdclib\strlen.asm
                     jEnd   0x017324    program     static C:\MCC18\src\extended\stdclib\slenpgm.asm
                     jEnd   0x017388    program     static C:\MCC18\src\extended\stdclib\strncat.asm
                     jEnd   0x0173da    program     static C:\MCC18\src\extended\stdclib\sncmpp2r.asm
                     jEnd   0x01744a    program     static C:\MCC18\src\extended\stdclib\strupr.asm
                     jEnd   0x016a7e    program     static C:\MCC18\src\extended\stdclib\ltobcd.asm
                 jEndLoop   0x016740    program     static C:\MCC18\src\extended\stdclib\atol.asm
                 jEndLoop   0x01660e    program     static C:\MCC18\src\extended\stdclib\atoi.asm
               jInnerLoop   0x017402    program     static C:\MCC18\src\extended\stdclib\sstrrp.asm
                    jLoop   0x0170d4    program     static C:\MCC18\src\extended\stdclib\memset.asm
                    jLoop   0x0173b8    program     static C:\MCC18\src\extended\stdclib\sncmpp2r.asm
                    jLoop   0x016a40    program     static C:\MCC18\src\extended\stdclib\ltobcd.asm
                    jLoop   0x017122    program     static C:\MCC18\src\extended\stdclib\strcat.asm
                    jLoop   0x017366    program     static C:\MCC18\src\extended\stdclib\strncat.asm
                    jLoop   0x0168a0    program     static C:\MCC18\src\extended\stdclib\itobcd.asm
                    jLoop   0x01730c    program     static C:\MCC18\src\extended\stdclib\slenpgm.asm
                    jLoop   0x016fb4    program     static C:\MCC18\src\extended\stdclib\memcmp.asm
                    jLoop   0x0172e2    program     static C:\MCC18\src\extended\stdclib\strlen.asm
                    jLoop   0x0172c6    program     static C:\MCC18\src\extended\stdclib\scpyp2r.asm
                    jLoop   0x017004    program     static C:\MCC18\src\extended\stdclib\mcmpp2r.asm
                    jLoop   0x017286    program     static C:\MCC18\src\extended\stdclib\strcpy.asm
                    jLoop   0x017250    program     static C:\MCC18\src\extended\stdclib\scmpp2r.asm
                    jLoop   0x0170a0    program     static C:\MCC18\src\extended\stdclib\mcpyp2r.asm
                    jLoop   0x017212    program     static C:\MCC18\src\extended\stdclib\strcmp.asm
                    jLoop   0x01704c    program     static C:\MCC18\src\extended\stdclib\memcpy.asm
                    jLoop   0x0171ae    program     static C:\MCC18\src\extended\stdclib\schrpgm.asm
                    jLoop   0x017180    program     static C:\MCC18\src\extended\stdclib\strchr.asm
                    jLoop   0x017168    program     static C:\MCC18\src\extended\stdclib\scatp2r.asm
                    jLoop   0x0166b2    program     static C:\MCC18\src\extended\stdclib\atol.asm
                    jLoop   0x0165c0    program     static C:\MCC18\src\extended\stdclib\atoi.asm
                    jLoop   0x017436    program     static C:\MCC18\src\extended\stdclib\strupr.asm
                   jMatch   0x01ffee    program     static C:\MCC18\src\extended\stdclib\isdigit.asm
                   jMatch   0x017192    program     static C:\MCC18\src\extended\stdclib\strchr.asm
                   jMatch   0x0171cc    program     static C:\MCC18\src\extended\stdclib\schrpgm.asm
                 jNoMatch   0x01fff0    program     static C:\MCC18\src\extended\stdclib\isdigit.asm
                 jNoMatch   0x017412    program     static C:\MCC18\src\extended\stdclib\sstrrp.asm
                    jNull   0x01741c    program     static C:\MCC18\src\extended\stdclib\sstrrp.asm
                jNullLoop   0x01711c    program     static C:\MCC18\src\extended\stdclib\strcat.asm
                jNullLoop   0x017162    program     static C:\MCC18\src\extended\stdclib\scatp2r.asm
                jNullLoop   0x017360    program     static C:\MCC18\src\extended\stdclib\strncat.asm
               jOuterLoop   0x0173e8    program     static C:\MCC18\src\extended\stdclib\sstrrp.asm
                    jSkip   0x017446    program     static C:\MCC18\src\extended\stdclib\strupr.asm
                  jSkipWS   0x016596    program     static C:\MCC18\src\extended\stdclib\atoi.asm
                  jSkipWS   0x016688    program     static C:\MCC18\src\extended\stdclib\atol.asm
                 jSkipWS1   0x0165a8    program     static C:\MCC18\src\extended\stdclib\atoi.asm
                 jSkipWS1   0x01669a    program     static C:\MCC18\src\extended\stdclib\atol.asm
                jStrMatch   0x017420    program     static C:\MCC18\src\extended\stdclib\sstrrp.asm
                    jTerm   0x017386    program     static C:\MCC18\src\extended\stdclib\strncat.asm
                jTstLowZ1   0x016a0e    program     static C:\MCC18\src\extended\stdclib\ultoa.asm
                jTstLowZ1   0x016872    program     static C:\MCC18\src\extended\stdclib\itoa.asm
                 jTstSign   0x0165ac    program     static C:\MCC18\src\extended\stdclib\atoi.asm
                 jTstSign   0x01669e    program     static C:\MCC18\src\extended\stdclib\atol.asm
                jTstSign1   0x0165b8    program     static C:\MCC18\src\extended\stdclib\atoi.asm
                jTstSign1   0x0166aa    program     static C:\MCC18\src\extended\stdclib\atol.asm
                jTstSign1   0x0167d4    program     static C:\MCC18\src\extended\stdclib\itoa.asm
                jTstSign2   0x0166b0    program     static C:\MCC18\src\extended\stdclib\atol.asm
                jTstSign2   0x0165be    program     static C:\MCC18\src\extended\stdclib\atoi.asm
                jTstSign3   0x0165c0    program     static C:\MCC18\src\extended\stdclib\atoi.asm
                jTstSign3   0x0166b2    program     static C:\MCC18\src\extended\stdclib\atol.asm
          leftRotateDWORD   0x0123da    program     extern C:\Documents and Settings\Administrator\My Documents\Alarm Controller\Microchip\TCPIP Stack\Helpers.c
                     loop   0x017d64    program     static C:\MCC18\src\extended\math\div16u.asm
                     loop   0x018dce    program     static                          
                     loop   0x017de0    program     static C:\MCC18\src\extended\math\div32u.asm
                   ltoBCD   0x016a24    program     extern C:\MCC18\src\extended\stdclib\ltobcd.asm
                    mDone   0x01625a    program     static C:\Documents and Settings\Administrator\My Documents\Alarm Controller\Microchip\TCPIP Stack\BigInt_helper.asm
                   mLoadB   0x01620c    program     static C:\Documents and Settings\Administrator\My Documents\Alarm Controller\Microchip\TCPIP Stack\BigInt_helper.asm
              mLoadBAgain   0x016216    program     static C:\Documents and Settings\Administrator\My Documents\Alarm Controller\Microchip\TCPIP Stack\BigInt_helper.asm
                   mLoopA   0x016236    program     static C:\Documents and Settings\Administrator\My Documents\Alarm Controller\Microchip\TCPIP Stack\BigInt_helper.asm
                   mRDone   0x0162ce    program     static C:\Documents and Settings\Administrator\My Documents\Alarm Controller\Microchip\TCPIP Stack\BigInt_helper.asm
                  mRLoadB   0x01628a    program     static C:\Documents and Settings\Administrator\My Documents\Alarm Controller\Microchip\TCPIP Stack\BigInt_helper.asm
             mRLoadBAgain   0x01628c    program     static C:\Documents and Settings\Administrator\My Documents\Alarm Controller\Microchip\TCPIP Stack\BigInt_helper.asm
                  mRLoopA   0x0162aa    program     static C:\Documents and Settings\Administrator\My Documents\Alarm Controller\Microchip\TCPIP Stack\BigInt_helper.asm
                     main   0x017504    program     extern C:\Documents and Settings\Administrator\My Documents\Alarm Controller\PIC Code\MainDemo.c
           masFinalBorrow   0x016450    program     static C:\Documents and Settings\Administrator\My Documents\Alarm Controller\Microchip\TCPIP Stack\BigInt_helper.asm
                  masLoop   0x016438    program     static C:\Documents and Settings\Administrator\My Documents\Alarm Controller\Microchip\TCPIP Stack\BigInt_helper.asm
                 masLoop4   0x0163e0    program     static C:\Documents and Settings\Administrator\My Documents\Alarm Controller\Microchip\TCPIP Stack\BigInt_helper.asm
             masLoop4Init   0x0163c8    program     static C:\Documents and Settings\Administrator\My Documents\Alarm Controller\Microchip\TCPIP Stack\BigInt_helper.asm
              masLoopInit   0x016434    program     static C:\Documents and Settings\Administrator\My Documents\Alarm Controller\Microchip\TCPIP Stack\BigInt_helper.asm
          masRFinalBorrow   0x01650e    program     static C:\Documents and Settings\Administrator\My Documents\Alarm Controller\Microchip\TCPIP Stack\BigInt_helper.asm
                 masRLoop   0x0164f4    program     static C:\Documents and Settings\Administrator\My Documents\Alarm Controller\Microchip\TCPIP Stack\BigInt_helper.asm
                masRLoop4   0x016494    program     static C:\Documents and Settings\Administrator\My Documents\Alarm Controller\Microchip\TCPIP Stack\BigInt_helper.asm
            masRLoop4Init   0x01647c    program     static C:\Documents and Settings\Administrator\My Documents\Alarm Controller\Microchip\TCPIP Stack\BigInt_helper.asm
             masRLoopInit   0x0164f0    program     static C:\Documents and Settings\Administrator\My Documents\Alarm Controller\Microchip\TCPIP Stack\BigInt_helper.asm
                   memcmp   0x016f94    program     extern C:\MCC18\src\extended\stdclib\memcmp.asm
            memcmppgm2ram   0x016fe6    program     extern C:\MCC18\src\extended\stdclib\mcmpp2r.asm
                   memcpy   0x017024    program     extern C:\MCC18\src\extended\stdclib\memcpy.asm
            memcpypgm2ram   0x01707a    program     extern C:\MCC18\src\extended\stdclib\mcpyp2r.asm
                   memset   0x0170c0    program     extern C:\MCC18\src\extended\stdclib\memset.asm
                 msbFound   0x0161ee    program     static C:\Documents and Settings\Administrator\My Documents\Alarm Controller\Microchip\TCPIP Stack\BigInt_helper.asm
                  msbLoop   0x0161e2    program     static C:\Documents and Settings\Administrator\My Documents\Alarm Controller\Microchip\TCPIP Stack\BigInt_helper.asm
               putrsUSART   0x018b26    program     extern C:\Documents and Settings\Administrator\My Documents\Alarm Controller\Microchip\TCPIP Stack\UART.c
                putsUSART   0x018af8    program     extern C:\Documents and Settings\Administrator\My Documents\Alarm Controller\Microchip\TCPIP Stack\UART.c
                    qDone   0x01639a    program     static C:\Documents and Settings\Administrator\My Documents\Alarm Controller\Microchip\TCPIP Stack\BigInt_helper.asm
               qInnerByte   0x016366    program     static C:\Documents and Settings\Administrator\My Documents\Alarm Controller\Microchip\TCPIP Stack\BigInt_helper.asm
               qInnerDone   0x016390    program     static C:\Documents and Settings\Administrator\My Documents\Alarm Controller\Microchip\TCPIP Stack\BigInt_helper.asm
               qInnerLoop   0x01635a    program     static C:\Documents and Settings\Administrator\My Documents\Alarm Controller\Microchip\TCPIP Stack\BigInt_helper.asm
                 qNextOut   0x01632c    program     static C:\Documents and Settings\Administrator\My Documents\Alarm Controller\Microchip\TCPIP Stack\BigInt_helper.asm
               qOuterLoop   0x016300    program     static C:\Documents and Settings\Administrator\My Documents\Alarm Controller\Microchip\TCPIP Stack\BigInt_helper.asm
                     rand   0x0168ea    program     extern C:\MCC18\src\extended\stdclib\rand.asm
             sDo8Subtract   0x0160e6    program     static C:\Documents and Settings\Administrator\My Documents\Alarm Controller\Microchip\TCPIP Stack\BigInt_helper.asm
            sDoFinalCarry   0x01611e    program     static C:\Documents and Settings\Administrator\My Documents\Alarm Controller\Microchip\TCPIP Stack\BigInt_helper.asm
      sDoResidualSubtract   0x016112    program     static C:\Documents and Settings\Administrator\My Documents\Alarm Controller\Microchip\TCPIP Stack\BigInt_helper.asm
                    sDone   0x016128    program     static C:\Documents and Settings\Administrator\My Documents\Alarm Controller\Microchip\TCPIP Stack\BigInt_helper.asm
            sRDo8Subtract   0x016166    program     static C:\Documents and Settings\Administrator\My Documents\Alarm Controller\Microchip\TCPIP Stack\BigInt_helper.asm
           sRDoFinalCarry   0x0161b0    program     static C:\Documents and Settings\Administrator\My Documents\Alarm Controller\Microchip\TCPIP Stack\BigInt_helper.asm
     sRDoResidualSubtract   0x0161a2    program     static C:\Documents and Settings\Administrator\My Documents\Alarm Controller\Microchip\TCPIP Stack\BigInt_helper.asm
                   sRDone   0x0161ba    program     static C:\Documents and Settings\Administrator\My Documents\Alarm Controller\Microchip\TCPIP Stack\BigInt_helper.asm
          sRTest8Subtract   0x01619a    program     static C:\Documents and Settings\Administrator\My Documents\Alarm Controller\Microchip\TCPIP Stack\BigInt_helper.asm
   sRTestResidualSubtract   0x0161a8    program     static C:\Documents and Settings\Administrator\My Documents\Alarm Controller\Microchip\TCPIP Stack\BigInt_helper.asm
           sTest8Subtract   0x01610a    program     static C:\Documents and Settings\Administrator\My Documents\Alarm Controller\Microchip\TCPIP Stack\BigInt_helper.asm
    sTestResidualSubtract   0x016116    program     static C:\Documents and Settings\Administrator\My Documents\Alarm Controller\Microchip\TCPIP Stack\BigInt_helper.asm
                    srand   0x0168dc    program     extern C:\MCC18\src\extended\stdclib\rand.asm
                   strcat   0x0170f4    program     extern C:\MCC18\src\extended\stdclib\strcat.asm
            strcatpgm2ram   0x01713c    program     extern C:\MCC18\src\extended\stdclib\scatp2r.asm
                   strchr   0x017174    program     extern C:\MCC18\src\extended\stdclib\strchr.asm
                strchrpgm   0x01719c    program     extern C:\MCC18\src\extended\stdclib\schrpgm.asm
                   strcmp   0x0171f2    program     extern C:\MCC18\src\extended\stdclib\strcmp.asm
            strcmppgm2ram   0x017232    program     extern C:\MCC18\src\extended\stdclib\scmpp2r.asm
                   strcpy   0x01725e    program     extern C:\MCC18\src\extended\stdclib\strcpy.asm
            strcpypgm2ram   0x0172a0    program     extern C:\MCC18\src\extended\stdclib\scpyp2r.asm
           stricmppgm2ram   0x012232    program     extern C:\Documents and Settings\Administrator\My Documents\Alarm Controller\Microchip\TCPIP Stack\Helpers.c
                   strlen   0x0172d2    program     extern C:\MCC18\src\extended\stdclib\strlen.asm
                strlenpgm   0x0172ee    program     extern C:\MCC18\src\extended\stdclib\slenpgm.asm
                  strncat   0x017338    program     extern C:\MCC18\src\extended\stdclib\strncat.asm
           strncmppgm2ram   0x01739a    program     extern C:\MCC18\src\extended\stdclib\sncmpp2r.asm
             strstrrampgm   0x0173dc    program     extern C:\MCC18\src\extended\stdclib\sstrrp.asm
                   strupr   0x017422    program     extern C:\MCC18\src\extended\stdclib\strupr.asm
                    swapl   0x0122e8    program     extern C:\Documents and Settings\Administrator\My Documents\Alarm Controller\Microchip\TCPIP Stack\Helpers.c
                    swaps   0x0122be    program     extern C:\Documents and Settings\Administrator\My Documents\Alarm Controller\Microchip\TCPIP Stack\Helpers.c
                     test   0x01ff4a    program     static                          
                    uitoa   0x01211a    program     extern C:\Documents and Settings\Administrator\My Documents\Alarm Controller\Microchip\TCPIP Stack\Helpers.c
                    ultoa   0x01691a    program     extern C:\MCC18\src\extended\stdclib\ultoa.asm
                       x1   0x016c94    program     extern C:\Documents and Settings\Administrator\My Documents\Alarm Controller\PIC Code\AES.c
                       x2   0x016d94    program     extern C:\Documents and Settings\Administrator\My Documents\Alarm Controller\PIC Code\AES.c
                       x3   0x016e94    program     extern C:\Documents and Settings\Administrator\My Documents\Alarm Controller\PIC Code\AES.c
          xPLAuthenticate   0x010e80    program     extern C:\Documents and Settings\Administrator\My Documents\Alarm Controller\PIC Code\Authenticate.c
        xPLFactoryRestart   0x006722    program     extern C:\Documents and Settings\Administrator\My Documents\Alarm Controller\PIC Code\SecuritySystem.c
        xPLFindArrayInKVP   0x00fbac    program     extern C:\Documents and Settings\Administrator\My Documents\Alarm Controller\PIC Code\xPL.c
                  xPLInit   0x00ef58    program     extern C:\Documents and Settings\Administrator\My Documents\Alarm Controller\PIC Code\xPL.c
          xPLLoadEEConfig   0x00efe6    program     extern C:\Documents and Settings\Administrator\My Documents\Alarm Controller\PIC Code\xPL.c
        xPLProcessMsgChar   0x00fa04    program     static C:\Documents and Settings\Administrator\My Documents\Alarm Controller\PIC Code\xPL.c
     xPLProcessMsgCompair   0x00fb06    program     static C:\Documents and Settings\Administrator\My Documents\Alarm Controller\PIC Code\xPL.c
      xPLProcessSaveValue   0x00f950    program     static C:\Documents and Settings\Administrator\My Documents\Alarm Controller\PIC Code\xPL.c
      xPLProcess_MsgField   0x00fa2e    program     static C:\Documents and Settings\Administrator\My Documents\Alarm Controller\PIC Code\xPL.c
          xPLSaveEEConfig   0x00f06e    program     extern C:\Documents and Settings\Administrator\My Documents\Alarm Controller\PIC Code\xPL.c
         xPL_My_Device_ID   0x018df5    program     static C:\Documents and Settings\Administrator\My Documents\Alarm Controller\PIC Code\xPL.c
         xPL_My_Vendor_ID   0x018df0    program     static C:\Documents and Settings\Administrator\My Documents\Alarm Controller\PIC Code\xPL.c
                    zLoop   0x0161c8    program     static C:\Documents and Settings\Administrator\My Documents\Alarm Controller\Microchip\TCPIP Stack\BigInt_helper.asm
                   ADCON0   0x000fc2       data     extern C:\MCC18\src\extended\proc\p18F97J60.asm
               ADCON0bits   0x000fc2       data     extern C:\MCC18\src\extended\proc\p18F97J60.asm
                   ADCON1   0x000fc1       data     extern C:\MCC18\src\extended\proc\p18F97J60.asm
               ADCON1bits   0x000fc1       data     extern C:\MCC18\src\extended\proc\p18F97J60.asm
                   ADCON2   0x000fc0       data     extern C:\MCC18\src\extended\proc\p18F97J60.asm
               ADCON2bits   0x000fc0       data     extern C:\MCC18\src\extended\proc\p18F97J60.asm
                    ADRES   0x000fc3       data     extern C:\MCC18\src\extended\proc\p18F97J60.asm
                   ADRESH   0x000fc4       data     extern C:\MCC18\src\extended\proc\p18F97J60.asm
                   ADRESL   0x000fc3       data     extern C:\MCC18\src\extended\proc\p18F97J60.asm
                AN0String   0x000533       data     extern C:\Documents and Settings\Administrator\My Documents\Alarm Controller\PIC Code\MainDemo.c
               AlarmState   0x00053b       data     extern C:\Documents and Settings\Administrator\My Documents\Alarm Controller\PIC Code\SecuritySystem.c
          AlarmStatesText   0x000604       data     extern C:\Documents and Settings\Administrator\My Documents\Alarm Controller\PIC Code\HTTPDynVariables.c
           AlarmTypesText   0x000f04       data     extern C:\Documents and Settings\Administrator\My Documents\Alarm Controller\PIC Code\SecuritySystem.c
            AlarmingTimer   0x00054d       data     extern C:\Documents and Settings\Administrator\My Documents\Alarm Controller\PIC Code\SecuritySystem.c
                AppConfig   0x000500       data     extern C:\Documents and Settings\Administrator\My Documents\Alarm Controller\PIC Code\MainDemo.c
               AreaConfig   0x0002e4       data     extern C:\Documents and Settings\Administrator\My Documents\Alarm Controller\PIC Code\SecuritySystem.c
                  BAUDCON   0x000f7e       data     extern C:\MCC18\src\extended\proc\p18F97J60.asm
                 BAUDCON1   0x000f7e       data     extern C:\MCC18\src\extended\proc\p18F97J60.asm
             BAUDCON1bits   0x000f7e       data     extern C:\MCC18\src\extended\proc\p18F97J60.asm
                 BAUDCON2   0x000f7c       data     extern C:\MCC18\src\extended\proc\p18F97J60.asm
             BAUDCON2bits   0x000f7c       data     extern C:\MCC18\src\extended\proc\p18F97J60.asm
              BAUDCONbits   0x000f7e       data     extern C:\MCC18\src\extended\proc\p18F97J60.asm
                  BAUDCTL   0x000f7e       data     extern C:\MCC18\src\extended\proc\p18F97J60.asm
                 BAUDCTL1   0x000f7e       data     extern C:\MCC18\src\extended\proc\p18F97J60.asm
             BAUDCTL1bits   0x000f7e       data     extern C:\MCC18\src\extended\proc\p18F97J60.asm
                 BAUDCTL2   0x000f7c       data     extern C:\MCC18\src\extended\proc\p18F97J60.asm
             BAUDCTL2bits   0x000f7c       data     extern C:\MCC18\src\extended\proc\p18F97J60.asm
              BAUDCTLbits   0x000f7e       data     extern C:\MCC18\src\extended\proc\p18F97J60.asm
                      BSR   0x000fe0       data     extern C:\MCC18\src\extended\proc\p18F97J60.asm
        BatteryCheckTimer   0x000f00       data     extern C:\Documents and Settings\Administrator\My Documents\Alarm Controller\PIC Code\SecuritySystem.c
             BatteryState   0x00005b       data     extern C:\Documents and Settings\Administrator\My Documents\Alarm Controller\PIC Code\Battery.c
        BatteryStatesText   0x0004f3       data     extern C:\Documents and Settings\Administrator\My Documents\Alarm Controller\PIC Code\Battery.c
                  CCP1CON   0x000fbd       data     extern C:\MCC18\src\extended\proc\p18F97J60.asm
              CCP1CONbits   0x000fbd       data     extern C:\MCC18\src\extended\proc\p18F97J60.asm
                  CCP2CON   0x000fba       data     extern C:\MCC18\src\extended\proc\p18F97J60.asm
              CCP2CONbits   0x000fba       data     extern C:\MCC18\src\extended\proc\p18F97J60.asm
                  CCP3CON   0x000fb7       data     extern C:\MCC18\src\extended\proc\p18F97J60.asm
              CCP3CONbits   0x000fb7       data     extern C:\MCC18\src\extended\proc\p18F97J60.asm
                  CCP4CON   0x000f73       data     extern C:\MCC18\src\extended\proc\p18F97J60.asm
              CCP4CONbits   0x000f73       data     extern C:\MCC18\src\extended\proc\p18F97J60.asm
                  CCP5CON   0x000f70       data     extern C:\MCC18\src\extended\proc\p18F97J60.asm
              CCP5CONbits   0x000f70       data     extern C:\MCC18\src\extended\proc\p18F97J60.asm
                    CCPR1   0x000fbe       data     extern C:\MCC18\src\extended\proc\p18F97J60.asm
                   CCPR1H   0x000fbf       data     extern C:\MCC18\src\extended\proc\p18F97J60.asm
                   CCPR1L   0x000fbe       data     extern C:\MCC18\src\extended\proc\p18F97J60.asm
                    CCPR2   0x000fbb       data     extern C:\MCC18\src\extended\proc\p18F97J60.asm
                   CCPR2H   0x000fbc       data     extern C:\MCC18\src\extended\proc\p18F97J60.asm
                   CCPR2L   0x000fbb       data     extern C:\MCC18\src\extended\proc\p18F97J60.asm
                    CCPR3   0x000fb8       data     extern C:\MCC18\src\extended\proc\p18F97J60.asm
                   CCPR3H   0x000fb9       data     extern C:\MCC18\src\extended\proc\p18F97J60.asm
                   CCPR3L   0x000fb8       data     extern C:\MCC18\src\extended\proc\p18F97J60.asm
                    CCPR4   0x000f74       data     extern C:\MCC18\src\extended\proc\p18F97J60.asm
                   CCPR4H   0x000f75       data     extern C:\MCC18\src\extended\proc\p18F97J60.asm
                   CCPR4L   0x000f74       data     extern C:\MCC18\src\extended\proc\p18F97J60.asm
                    CCPR5   0x000f71       data     extern C:\MCC18\src\extended\proc\p18F97J60.asm
                   CCPR5H   0x000f72       data     extern C:\MCC18\src\extended\proc\p18F97J60.asm
                   CCPR5L   0x000f71       data     extern C:\MCC18\src\extended\proc\p18F97J60.asm
                    CMCON   0x000fb4       data     extern C:\MCC18\src\extended\proc\p18F97J60.asm
                CMCONbits   0x000fb4       data     extern C:\MCC18\src\extended\proc\p18F97J60.asm
                 CRPeriod   0x000e26       data     static C:\Documents and Settings\Administrator\My Documents\Alarm Controller\Microchip\TCPIP Stack\SMTP.c
                   CVRCON   0x000fb5       data     extern C:\MCC18\src\extended\proc\p18F97J60.asm
               CVRCONbits   0x000fb5       data     extern C:\MCC18\src\extended\proc\p18F97J60.asm
                    Cache   0x000645       data     static C:\Documents and Settings\Administrator\My Documents\Alarm Controller\Microchip\TCPIP Stack\ARP.c
                CarryByte   0x00066a       data     static C:\Documents and Settings\Administrator\My Documents\Alarm Controller\Microchip\TCPIP Stack\BigInt_helper.asm
                   CarryH   0x00066b       data     static C:\Documents and Settings\Administrator\My Documents\Alarm Controller\Microchip\TCPIP Stack\BigInt_helper.asm
    CurrentPacketLocation   0x0000fa       data     static C:\Documents and Settings\Administrator\My Documents\Alarm Controller\Microchip\TCPIP Stack\ETH97J60.c
                     DDRA   0x000f92       data     extern C:\MCC18\src\extended\proc\p18F97J60.asm
                 DDRAbits   0x000f92       data     extern C:\MCC18\src\extended\proc\p18F97J60.asm
                     DDRB   0x000f93       data     extern C:\MCC18\src\extended\proc\p18F97J60.asm
                 DDRBbits   0x000f93       data     extern C:\MCC18\src\extended\proc\p18F97J60.asm
                     DDRC   0x000f94       data     extern C:\MCC18\src\extended\proc\p18F97J60.asm
                 DDRCbits   0x000f94       data     extern C:\MCC18\src\extended\proc\p18F97J60.asm
                     DDRD   0x000f95       data     extern C:\MCC18\src\extended\proc\p18F97J60.asm
                 DDRDbits   0x000f95       data     extern C:\MCC18\src\extended\proc\p18F97J60.asm
                     DDRE   0x000f96       data     extern C:\MCC18\src\extended\proc\p18F97J60.asm
                 DDREbits   0x000f96       data     extern C:\MCC18\src\extended\proc\p18F97J60.asm
                     DDRF   0x000f97       data     extern C:\MCC18\src\extended\proc\p18F97J60.asm
                 DDRFbits   0x000f97       data     extern C:\MCC18\src\extended\proc\p18F97J60.asm
                     DDRG   0x000f98       data     extern C:\MCC18\src\extended\proc\p18F97J60.asm
                 DDRGbits   0x000f98       data     extern C:\MCC18\src\extended\proc\p18F97J60.asm
                     DDRH   0x000f99       data     extern C:\MCC18\src\extended\proc\p18F97J60.asm
                 DDRHbits   0x000f99       data     extern C:\MCC18\src\extended\proc\p18F97J60.asm
                     DDRJ   0x000f9a       data     extern C:\MCC18\src\extended\proc\p18F97J60.asm
                 DDRJbits   0x000f9a       data     extern C:\MCC18\src\extended\proc\p18F97J60.asm
              DNSHostName   0x00062f       data     static C:\Documents and Settings\Administrator\My Documents\Alarm Controller\Microchip\TCPIP Stack\DNS.c
           DNSHostNameROM   0x000631       data     static C:\Documents and Settings\Administrator\My Documents\Alarm Controller\Microchip\TCPIP Stack\DNS.c
               DebugTimer   0x0002fc       data     static C:\Documents and Settings\Administrator\My Documents\Alarm Controller\PIC Code\SecuritySystem.c
            DelayCounter1   0x0000ff       data     extern C:\MCC18\src\extended\delays\delayd1.asm
                  ECCP1AS   0x000fb6       data     extern C:\MCC18\src\extended\proc\p18F97J60.asm
              ECCP1ASbits   0x000fb6       data     extern C:\MCC18\src\extended\proc\p18F97J60.asm
                 ECCP1CON   0x000fbd       data     extern C:\MCC18\src\extended\proc\p18F97J60.asm
             ECCP1CONbits   0x000fbd       data     extern C:\MCC18\src\extended\proc\p18F97J60.asm
                 ECCP1DEL   0x000f79       data     extern C:\MCC18\src\extended\proc\p18F97J60.asm
             ECCP1DELbits   0x000f79       data     extern C:\MCC18\src\extended\proc\p18F97J60.asm
                  ECCP2AS   0x000f68       data     extern C:\MCC18\src\extended\proc\p18F97J60.asm
              ECCP2ASbits   0x000f68       data     extern C:\MCC18\src\extended\proc\p18F97J60.asm
                 ECCP2CON   0x000fba       data     extern C:\MCC18\src\extended\proc\p18F97J60.asm
             ECCP2CONbits   0x000fba       data     extern C:\MCC18\src\extended\proc\p18F97J60.asm
                 ECCP2DEL   0x000f67       data     extern C:\MCC18\src\extended\proc\p18F97J60.asm
             ECCP2DELbits   0x000f67       data     extern C:\MCC18\src\extended\proc\p18F97J60.asm
                  ECCP3AS   0x000f6a       data     extern C:\MCC18\src\extended\proc\p18F97J60.asm
              ECCP3ASbits   0x000f6a       data     extern C:\MCC18\src\extended\proc\p18F97J60.asm
                 ECCP3CON   0x000fb7       data     extern C:\MCC18\src\extended\proc\p18F97J60.asm
             ECCP3CONbits   0x000fb7       data     extern C:\MCC18\src\extended\proc\p18F97J60.asm
                 ECCP3DEL   0x000f69       data     extern C:\MCC18\src\extended\proc\p18F97J60.asm
             ECCP3DELbits   0x000f69       data     extern C:\MCC18\src\extended\proc\p18F97J60.asm
                    ECON1   0x000fd2       data     extern C:\MCC18\src\extended\proc\p18F97J60.asm
                ECON1bits   0x000fd2       data     extern C:\MCC18\src\extended\proc\p18F97J60.asm
                    ECON2   0x000efe       data     extern C:\MCC18\src\extended\proc\p18F97J60.asm
                ECON2bits   0x000efe       data     extern C:\MCC18\src\extended\proc\p18F97J60.asm
                    EDATA   0x000f61       data     extern C:\MCC18\src\extended\proc\p18F97J60.asm
                EDATAbits   0x000f61       data     extern C:\MCC18\src\extended\proc\p18F97J60.asm
                   EDMACS   0x000ef6       data     extern C:\MCC18\src\extended\proc\p18F97J60.asm
                  EDMACSH   0x000ef7       data     extern C:\MCC18\src\extended\proc\p18F97J60.asm
                  EDMACSL   0x000ef6       data     extern C:\MCC18\src\extended\proc\p18F97J60.asm
                  EDMADST   0x000ef4       data     extern C:\MCC18\src\extended\proc\p18F97J60.asm
                 EDMADSTH   0x000ef5       data     extern C:\MCC18\src\extended\proc\p18F97J60.asm
                 EDMADSTL   0x000ef4       data     extern C:\MCC18\src\extended\proc\p18F97J60.asm
                   EDMAND   0x000ef2       data     extern C:\MCC18\src\extended\proc\p18F97J60.asm
                  EDMANDH   0x000ef3       data     extern C:\MCC18\src\extended\proc\p18F97J60.asm
                  EDMANDL   0x000ef2       data     extern C:\MCC18\src\extended\proc\p18F97J60.asm
                   EDMAST   0x000ef0       data     extern C:\MCC18\src\extended\proc\p18F97J60.asm
                  EDMASTH   0x000ef1       data     extern C:\MCC18\src\extended\proc\p18F97J60.asm
                  EDMASTL   0x000ef0       data     extern C:\MCC18\src\extended\proc\p18F97J60.asm
                   EECON1   0x000fa6       data     extern C:\MCC18\src\extended\proc\p18F97J60.asm
               EECON1bits   0x000fa6       data     extern C:\MCC18\src\extended\proc\p18F97J60.asm
                   EECON2   0x000fa7       data     extern C:\MCC18\src\extended\proc\p18F97J60.asm
            EEPROMAddress   0x00058d       data     static C:\Documents and Settings\Administrator\My Documents\Alarm Controller\Microchip\TCPIP Stack\SPIEEPROM.c
             EEPROMBuffer   0x000591       data     static C:\Documents and Settings\Administrator\My Documents\Alarm Controller\Microchip\TCPIP Stack\SPIEEPROM.c
          EEPROMBufferPtr   0x0005b1       data     static C:\Documents and Settings\Administrator\My Documents\Alarm Controller\Microchip\TCPIP Stack\SPIEEPROM.c
                  EFLOCON   0x000e97       data     extern C:\MCC18\src\extended\proc\p18F97J60.asm
              EFLOCONbits   0x000e97       data     extern C:\MCC18\src\extended\proc\p18F97J60.asm
                     EHT0   0x000ec0       data     extern C:\MCC18\src\extended\proc\p18F97J60.asm
                     EHT1   0x000ec1       data     extern C:\MCC18\src\extended\proc\p18F97J60.asm
                     EHT2   0x000ec2       data     extern C:\MCC18\src\extended\proc\p18F97J60.asm
                     EHT3   0x000ec3       data     extern C:\MCC18\src\extended\proc\p18F97J60.asm
                     EHT4   0x000ec4       data     extern C:\MCC18\src\extended\proc\p18F97J60.asm
                     EHT5   0x000ec5       data     extern C:\MCC18\src\extended\proc\p18F97J60.asm
                     EHT6   0x000ec6       data     extern C:\MCC18\src\extended\proc\p18F97J60.asm
                     EHT7   0x000ec7       data     extern C:\MCC18\src\extended\proc\p18F97J60.asm
                      EIE   0x000efb       data     extern C:\MCC18\src\extended\proc\p18F97J60.asm
                  EIEbits   0x000efb       data     extern C:\MCC18\src\extended\proc\p18F97J60.asm
                      EIR   0x000f60       data     extern C:\MCC18\src\extended\proc\p18F97J60.asm
                  EIRbits   0x000f60       data     extern C:\MCC18\src\extended\proc\p18F97J60.asm
                    EPAUS   0x000e98       data     extern C:\MCC18\src\extended\proc\p18F97J60.asm
                   EPAUSH   0x000e99       data     extern C:\MCC18\src\extended\proc\p18F97J60.asm
                   EPAUSL   0x000e98       data     extern C:\MCC18\src\extended\proc\p18F97J60.asm
                  EPKTCNT   0x000ed9       data     extern C:\MCC18\src\extended\proc\p18F97J60.asm
                    EPMCS   0x000ed0       data     extern C:\MCC18\src\extended\proc\p18F97J60.asm
                   EPMCSH   0x000ed1       data     extern C:\MCC18\src\extended\proc\p18F97J60.asm
                   EPMCSL   0x000ed0       data     extern C:\MCC18\src\extended\proc\p18F97J60.asm
                    EPMM0   0x000ec8       data     extern C:\MCC18\src\extended\proc\p18F97J60.asm
                    EPMM1   0x000ec9       data     extern C:\MCC18\src\extended\proc\p18F97J60.asm
                    EPMM2   0x000eca       data     extern C:\MCC18\src\extended\proc\p18F97J60.asm
                    EPMM3   0x000ecb       data     extern C:\MCC18\src\extended\proc\p18F97J60.asm
                    EPMM4   0x000ecc       data     extern C:\MCC18\src\extended\proc\p18F97J60.asm
                    EPMM5   0x000ecd       data     extern C:\MCC18\src\extended\proc\p18F97J60.asm
                    EPMM6   0x000ece       data     extern C:\MCC18\src\extended\proc\p18F97J60.asm
                    EPMM7   0x000ecf       data     extern C:\MCC18\src\extended\proc\p18F97J60.asm
                     EPMO   0x000ed4       data     extern C:\MCC18\src\extended\proc\p18F97J60.asm
                    EPMOH   0x000ed5       data     extern C:\MCC18\src\extended\proc\p18F97J60.asm
                    EPMOL   0x000ed4       data     extern C:\MCC18\src\extended\proc\p18F97J60.asm
                    ERDPT   0x000f7a       data     extern C:\MCC18\src\extended\proc\p18F97J60.asm
                   ERDPTH   0x000f7b       data     extern C:\MCC18\src\extended\proc\p18F97J60.asm
                   ERDPTL   0x000f7a       data     extern C:\MCC18\src\extended\proc\p18F97J60.asm
                  ERXFCON   0x000ed8       data     extern C:\MCC18\src\extended\proc\p18F97J60.asm
              ERXFCONbits   0x000ed8       data     extern C:\MCC18\src\extended\proc\p18F97J60.asm
                    ERXND   0x000eea       data     extern C:\MCC18\src\extended\proc\p18F97J60.asm
                   ERXNDH   0x000eeb       data     extern C:\MCC18\src\extended\proc\p18F97J60.asm
                   ERXNDL   0x000eea       data     extern C:\MCC18\src\extended\proc\p18F97J60.asm
                  ERXRDPT   0x000eec       data     extern C:\MCC18\src\extended\proc\p18F97J60.asm
                 ERXRDPTH   0x000eed       data     extern C:\MCC18\src\extended\proc\p18F97J60.asm
                 ERXRDPTL   0x000eec       data     extern C:\MCC18\src\extended\proc\p18F97J60.asm
                    ERXST   0x000ee8       data     extern C:\MCC18\src\extended\proc\p18F97J60.asm
                   ERXSTH   0x000ee9       data     extern C:\MCC18\src\extended\proc\p18F97J60.asm
                   ERXSTL   0x000ee8       data     extern C:\MCC18\src\extended\proc\p18F97J60.asm
                  ERXWRPT   0x000eee       data     extern C:\MCC18\src\extended\proc\p18F97J60.asm
                 ERXWRPTH   0x000eef       data     extern C:\MCC18\src\extended\proc\p18F97J60.asm
                 ERXWRPTL   0x000eee       data     extern C:\MCC18\src\extended\proc\p18F97J60.asm
                    ESTAT   0x000efd       data     extern C:\MCC18\src\extended\proc\p18F97J60.asm
                ESTATbits   0x000efd       data     extern C:\MCC18\src\extended\proc\p18F97J60.asm
                    ETXND   0x000ee6       data     extern C:\MCC18\src\extended\proc\p18F97J60.asm
                   ETXNDH   0x000ee7       data     extern C:\MCC18\src\extended\proc\p18F97J60.asm
                   ETXNDL   0x000ee6       data     extern C:\MCC18\src\extended\proc\p18F97J60.asm
                    ETXST   0x000ee4       data     extern C:\MCC18\src\extended\proc\p18F97J60.asm
                   ETXSTH   0x000ee5       data     extern C:\MCC18\src\extended\proc\p18F97J60.asm
                   ETXSTL   0x000ee4       data     extern C:\MCC18\src\extended\proc\p18F97J60.asm
                    EWRPT   0x000ee2       data     extern C:\MCC18\src\extended\proc\p18F97J60.asm
                   EWRPTH   0x000ee3       data     extern C:\MCC18\src\extended\proc\p18F97J60.asm
                   EWRPTL   0x000ee2       data     extern C:\MCC18\src\extended\proc\p18F97J60.asm
               EntryTimer   0x00053d       data     extern C:\Documents and Settings\Administrator\My Documents\Alarm Controller\PIC Code\SecuritySystem.c
                ExitTimer   0x000545       data     extern C:\Documents and Settings\Administrator\My Documents\Alarm Controller\PIC Code\SecuritySystem.c
                     FSR0   0x000fe9       data     extern C:\MCC18\src\extended\proc\p18F97J60.asm
                    FSR0H   0x000fea       data     extern C:\MCC18\src\extended\proc\p18F97J60.asm
                    FSR0L   0x000fe9       data     extern C:\MCC18\src\extended\proc\p18F97J60.asm
                     FSR1   0x000fe1       data     extern C:\MCC18\src\extended\proc\p18F97J60.asm
                    FSR1H   0x000fe2       data     extern C:\MCC18\src\extended\proc\p18F97J60.asm
                    FSR1L   0x000fe1       data     extern C:\MCC18\src\extended\proc\p18F97J60.asm
                     FSR2   0x000fd9       data     extern C:\MCC18\src\extended\proc\p18F97J60.asm
                    FSR2H   0x000fda       data     extern C:\MCC18\src\extended\proc\p18F97J60.asm
                    FSR2L   0x000fd9       data     extern C:\MCC18\src\extended\proc\p18F97J60.asm
                    Flags   0x0001fe       data     static C:\Documents and Settings\Administrator\My Documents\Alarm Controller\Microchip\TCPIP Stack\DNS.c
                    Flags   0x00044f       data     static C:\Documents and Settings\Administrator\My Documents\Alarm Controller\Microchip\TCPIP Stack\UDP.c
       HTTPRequestHeaders   0x0003f3       data     static C:\Documents and Settings\Administrator\My Documents\Alarm Controller\Microchip\TCPIP Stack\HTTP2.c
      HTTPResponseHeaders   0x0003cc       data     static C:\Documents and Settings\Administrator\My Documents\Alarm Controller\Microchip\TCPIP Stack\HTTP2.c
                    INDF0   0x000fef       data     extern C:\MCC18\src\extended\proc\p18F97J60.asm
                    INDF1   0x000fe7       data     extern C:\MCC18\src\extended\proc\p18F97J60.asm
                    INDF2   0x000fdf       data     extern C:\MCC18\src\extended\proc\p18F97J60.asm
                   INTCON   0x000ff2       data     extern C:\MCC18\src\extended\proc\p18F97J60.asm
                  INTCON2   0x000ff1       data     extern C:\MCC18\src\extended\proc\p18F97J60.asm
              INTCON2bits   0x000ff1       data     extern C:\MCC18\src\extended\proc\p18F97J60.asm
                  INTCON3   0x000ff0       data     extern C:\MCC18\src\extended\proc\p18F97J60.asm
              INTCON3bits   0x000ff0       data     extern C:\MCC18\src\extended\proc\p18F97J60.asm
               INTCONbits   0x000ff2       data     extern C:\MCC18\src\extended\proc\p18F97J60.asm
              IPHeaderLen   0x000e7f       data     static C:\Documents and Settings\Administrator\My Documents\Alarm Controller\Microchip\TCPIP Stack\IP.c
                     IPR1   0x000f9f       data     extern C:\MCC18\src\extended\proc\p18F97J60.asm
                 IPR1bits   0x000f9f       data     extern C:\MCC18\src\extended\proc\p18F97J60.asm
                     IPR2   0x000fa2       data     extern C:\MCC18\src\extended\proc\p18F97J60.asm
                 IPR2bits   0x000fa2       data     extern C:\MCC18\src\extended\proc\p18F97J60.asm
                     IPR3   0x000fa5       data     extern C:\MCC18\src\extended\proc\p18F97J60.asm
                 IPR3bits   0x000fa5       data     extern C:\MCC18\src\extended\proc\p18F97J60.asm
                     LATA   0x000f89       data     extern C:\MCC18\src\extended\proc\p18F97J60.asm
                 LATAbits   0x000f89       data     extern C:\MCC18\src\extended\proc\p18F97J60.asm
                     LATB   0x000f8a       data     extern C:\MCC18\src\extended\proc\p18F97J60.asm
                 LATBbits   0x000f8a       data     extern C:\MCC18\src\extended\proc\p18F97J60.asm
                     LATC   0x000f8b       data     extern C:\MCC18\src\extended\proc\p18F97J60.asm
                 LATCbits   0x000f8b       data     extern C:\MCC18\src\extended\proc\p18F97J60.asm
                     LATD   0x000f8c       data     extern C:\MCC18\src\extended\proc\p18F97J60.asm
                 LATDbits   0x000f8c       data     extern C:\MCC18\src\extended\proc\p18F97J60.asm
                     LATE   0x000f8d       data     extern C:\MCC18\src\extended\proc\p18F97J60.asm
                 LATEbits   0x000f8d       data     extern C:\MCC18\src\extended\proc\p18F97J60.asm
                     LATF   0x000f8e       data     extern C:\MCC18\src\extended\proc\p18F97J60.asm
                 LATFbits   0x000f8e       data     extern C:\MCC18\src\extended\proc\p18F97J60.asm
                     LATG   0x000f8f       data     extern C:\MCC18\src\extended\proc\p18F97J60.asm
                 LATGbits   0x000f8f       data     extern C:\MCC18\src\extended\proc\p18F97J60.asm
                     LATH   0x000f90       data     extern C:\MCC18\src\extended\proc\p18F97J60.asm
                 LATHbits   0x000f90       data     extern C:\MCC18\src\extended\proc\p18F97J60.asm
                     LATJ   0x000f91       data     extern C:\MCC18\src\extended\proc\p18F97J60.asm
                 LATJbits   0x000f91       data     extern C:\MCC18\src\extended\proc\p18F97J60.asm
                  LCDText   0x0005b3       data     extern C:\Documents and Settings\Administrator\My Documents\Alarm Controller\Microchip\TCPIP Stack\LCDBlocking.c
            LastPutSocket   0x000690       data     static C:\Documents and Settings\Administrator\My Documents\Alarm Controller\Microchip\TCPIP Stack\UDP.c
          LastZoneAlarmed   0x000563       data     extern C:\Documents and Settings\Administrator\My Documents\Alarm Controller\PIC Code\SecuritySystem.c
                   MAADR1   0x000e84       data     extern C:\MCC18\src\extended\proc\p18F97J60.asm
                   MAADR2   0x000e85       data     extern C:\MCC18\src\extended\proc\p18F97J60.asm
                   MAADR3   0x000e82       data     extern C:\MCC18\src\extended\proc\p18F97J60.asm
                   MAADR4   0x000e83       data     extern C:\MCC18\src\extended\proc\p18F97J60.asm
                   MAADR5   0x000e80       data     extern C:\MCC18\src\extended\proc\p18F97J60.asm
                   MAADR6   0x000e81       data     extern C:\MCC18\src\extended\proc\p18F97J60.asm
                  MABBIPG   0x000ea4       data     extern C:\MCC18\src\extended\proc\p18F97J60.asm
                   MACON1   0x000ea0       data     extern C:\MCC18\src\extended\proc\p18F97J60.asm
               MACON1bits   0x000ea0       data     extern C:\MCC18\src\extended\proc\p18F97J60.asm
                   MACON3   0x000ea2       data     extern C:\MCC18\src\extended\proc\p18F97J60.asm
               MACON3bits   0x000ea2       data     extern C:\MCC18\src\extended\proc\p18F97J60.asm
                   MACON4   0x000ea3       data     extern C:\MCC18\src\extended\proc\p18F97J60.asm
               MACON4bits   0x000ea3       data     extern C:\MCC18\src\extended\proc\p18F97J60.asm
                    MAIPG   0x000ea6       data     extern C:\MCC18\src\extended\proc\p18F97J60.asm
                   MAIPGH   0x000ea7       data     extern C:\MCC18\src\extended\proc\p18F97J60.asm
                   MAIPGL   0x000ea6       data     extern C:\MCC18\src\extended\proc\p18F97J60.asm
                   MAMXFL   0x000eaa       data     extern C:\MCC18\src\extended\proc\p18F97J60.asm
                  MAMXFLH   0x000eab       data     extern C:\MCC18\src\extended\proc\p18F97J60.asm
                  MAMXFLL   0x000eaa       data     extern C:\MCC18\src\extended\proc\p18F97J60.asm
                   MEMCON   0x000f9c       data     extern C:\MCC18\src\extended\proc\p18F97J60.asm
               MEMCONbits   0x000f9c       data     extern C:\MCC18\src\extended\proc\p18F97J60.asm
                    MICMD   0x000eb2       data     extern C:\MCC18\src\extended\proc\p18F97J60.asm
                MICMDbits   0x000eb2       data     extern C:\MCC18\src\extended\proc\p18F97J60.asm
                     MIRD   0x000eb8       data     extern C:\MCC18\src\extended\proc\p18F97J60.asm
                    MIRDH   0x000eb9       data     extern C:\MCC18\src\extended\proc\p18F97J60.asm
                    MIRDL   0x000eb8       data     extern C:\MCC18\src\extended\proc\p18F97J60.asm
                 MIREGADR   0x000eb4       data     extern C:\MCC18\src\extended\proc\p18F97J60.asm
                   MISTAT   0x000e8a       data     extern C:\MCC18\src\extended\proc\p18F97J60.asm
               MISTATbits   0x000e8a       data     extern C:\MCC18\src\extended\proc\p18F97J60.asm
                     MIWR   0x000eb6       data     extern C:\MCC18\src\extended\proc\p18F97J60.asm
                    MIWRH   0x000eb7       data     extern C:\MCC18\src\extended\proc\p18F97J60.asm
                    MIWRL   0x000eb6       data     extern C:\MCC18\src\extended\proc\p18F97J60.asm
                MPFSStubs   0x000000       data     static C:\Documents and Settings\Administrator\My Documents\Alarm Controller\Microchip\TCPIP Stack\MPFS2.c
                 MySocket   0x0001fd       data     static C:\Documents and Settings\Administrator\My Documents\Alarm Controller\Microchip\TCPIP Stack\DNS.c
                 MySocket   0x00066c       data     static C:\Documents and Settings\Administrator\My Documents\Alarm Controller\Microchip\TCPIP Stack\SMTP.c
                 MySocket   0x00062e       data     static C:\Documents and Settings\Administrator\My Documents\Alarm Controller\PIC Code\SNTP Customised.c
                 MySocket   0x0004ff       data     static C:\Documents and Settings\Administrator\My Documents\Alarm Controller\Microchip\TCPIP Stack\NBNS.c
                    MyTCB   0x0004a6       data     static C:\Documents and Settings\Administrator\My Documents\Alarm Controller\Microchip\TCPIP Stack\TCP.c
                MyTCBStub   0x0004cb       data     static C:\Documents and Settings\Administrator\My Documents\Alarm Controller\Microchip\TCPIP Stack\TCP.c
          NTPTestResponse   0x00061d       data     extern C:\Documents and Settings\Administrator\My Documents\Alarm Controller\PIC Code\SNTP Customised.c
               NTPdwTimer   0x00062a       data     static C:\Documents and Settings\Administrator\My Documents\Alarm Controller\PIC Code\SNTP Customised.c
       NextPacketLocation   0x0000f8       data     static C:\Documents and Settings\Administrator\My Documents\Alarm Controller\Microchip\TCPIP Stack\ETH97J60.c
                 NextPort   0x000450       data     static C:\Documents and Settings\Administrator\My Documents\Alarm Controller\Microchip\TCPIP Stack\UDP.c
                 NextPort   0x0004a4       data     static C:\Documents and Settings\Administrator\My Documents\Alarm Controller\Microchip\TCPIP Stack\TCP.c
       NextZoneCheckDelay   0x000549       data     extern C:\Documents and Settings\Administrator\My Documents\Alarm Controller\PIC Code\SecuritySystem.c
                   OSCCON   0x000fd3       data     extern C:\MCC18\src\extended\proc\p18F97J60.asm
               OSCCONbits   0x000fd3       data     extern C:\MCC18\src\extended\proc\p18F97J60.asm
                  OSCTUNE   0x000f9b       data     extern C:\MCC18\src\extended\proc\p18F97J60.asm
              OSCTUNEbits   0x000f9b       data     extern C:\MCC18\src\extended\proc\p18F97J60.asm
                       PC   0x000ff9       data     extern C:\MCC18\src\extended\proc\p18F97J60.asm
                      PCL   0x000ff9       data     extern C:\MCC18\src\extended\proc\p18F97J60.asm
                   PCLATH   0x000ffa       data     extern C:\MCC18\src\extended\proc\p18F97J60.asm
                   PCLATU   0x000ffb       data     extern C:\MCC18\src\extended\proc\p18F97J60.asm
                     PIE1   0x000f9d       data     extern C:\MCC18\src\extended\proc\p18F97J60.asm
                 PIE1bits   0x000f9d       data     extern C:\MCC18\src\extended\proc\p18F97J60.asm
                     PIE2   0x000fa0       data     extern C:\MCC18\src\extended\proc\p18F97J60.asm
                 PIE2bits   0x000fa0       data     extern C:\MCC18\src\extended\proc\p18F97J60.asm
                     PIE3   0x000fa3       data     extern C:\MCC18\src\extended\proc\p18F97J60.asm
                 PIE3bits   0x000fa3       data     extern C:\MCC18\src\extended\proc\p18F97J60.asm
                     PIR1   0x000f9e       data     extern C:\MCC18\src\extended\proc\p18F97J60.asm
                 PIR1bits   0x000f9e       data     extern C:\MCC18\src\extended\proc\p18F97J60.asm
                     PIR2   0x000fa1       data     extern C:\MCC18\src\extended\proc\p18F97J60.asm
                 PIR2bits   0x000fa1       data     extern C:\MCC18\src\extended\proc\p18F97J60.asm
                     PIR3   0x000fa4       data     extern C:\MCC18\src\extended\proc\p18F97J60.asm
                 PIR3bits   0x000fa4       data     extern C:\MCC18\src\extended\proc\p18F97J60.asm
                   PLUSW0   0x000feb       data     extern C:\MCC18\src\extended\proc\p18F97J60.asm
                   PLUSW1   0x000fe3       data     extern C:\MCC18\src\extended\proc\p18F97J60.asm
                   PLUSW2   0x000fdb       data     extern C:\MCC18\src\extended\proc\p18F97J60.asm
                    PORTA   0x000f80       data     extern C:\MCC18\src\extended\proc\p18F97J60.asm
                PORTAbits   0x000f80       data     extern C:\MCC18\src\extended\proc\p18F97J60.asm
                    PORTB   0x000f81       data     extern C:\MCC18\src\extended\proc\p18F97J60.asm
                PORTBbits   0x000f81       data     extern C:\MCC18\src\extended\proc\p18F97J60.asm
                    PORTC   0x000f82       data     extern C:\MCC18\src\extended\proc\p18F97J60.asm
                PORTCbits   0x000f82       data     extern C:\MCC18\src\extended\proc\p18F97J60.asm
                    PORTD   0x000f83       data     extern C:\MCC18\src\extended\proc\p18F97J60.asm
                PORTDbits   0x000f83       data     extern C:\MCC18\src\extended\proc\p18F97J60.asm
                    PORTE   0x000f84       data     extern C:\MCC18\src\extended\proc\p18F97J60.asm
                PORTEbits   0x000f84       data     extern C:\MCC18\src\extended\proc\p18F97J60.asm
                    PORTF   0x000f85       data     extern C:\MCC18\src\extended\proc\p18F97J60.asm
                PORTFbits   0x000f85       data     extern C:\MCC18\src\extended\proc\p18F97J60.asm
                    PORTG   0x000f86       data     extern C:\MCC18\src\extended\proc\p18F97J60.asm
                PORTGbits   0x000f86       data     extern C:\MCC18\src\extended\proc\p18F97J60.asm
                    PORTH   0x000f87       data     extern C:\MCC18\src\extended\proc\p18F97J60.asm
                PORTHbits   0x000f87       data     extern C:\MCC18\src\extended\proc\p18F97J60.asm
                    PORTJ   0x000f88       data     extern C:\MCC18\src\extended\proc\p18F97J60.asm
                PORTJbits   0x000f88       data     extern C:\MCC18\src\extended\proc\p18F97J60.asm
                 POSTDEC0   0x000fed       data     extern C:\MCC18\src\extended\proc\p18F97J60.asm
                 POSTDEC1   0x000fe5       data     extern C:\MCC18\src\extended\proc\p18F97J60.asm
                 POSTDEC2   0x000fdd       data     extern C:\MCC18\src\extended\proc\p18F97J60.asm
                 POSTINC0   0x000fee       data     extern C:\MCC18\src\extended\proc\p18F97J60.asm
                 POSTINC1   0x000fe6       data     extern C:\MCC18\src\extended\proc\p18F97J60.asm
                 POSTINC2   0x000fde       data     extern C:\MCC18\src\extended\proc\p18F97J60.asm
                      PR2   0x000fcb       data     extern C:\MCC18\src\extended\proc\p18F97J60.asm
                      PR4   0x000f77       data     extern C:\MCC18\src\extended\proc\p18F97J60.asm
                  PREINC0   0x000fec       data     extern C:\MCC18\src\extended\proc\p18F97J60.asm
                  PREINC1   0x000fe4       data     extern C:\MCC18\src\extended\proc\p18F97J60.asm
                  PREINC2   0x000fdc       data     extern C:\MCC18\src\extended\proc\p18F97J60.asm
                     PROD   0x000ff3       data     extern C:\MCC18\src\extended\proc\p18F97J60.asm
                    PRODH   0x000ff4       data     extern C:\MCC18\src\extended\proc\p18F97J60.asm
                    PRODL   0x000ff3       data     extern C:\MCC18\src\extended\proc\p18F97J60.asm
                   PSPCON   0x000fb0       data     extern C:\MCC18\src\extended\proc\p18F97J60.asm
               PSPCONbits   0x000fb0       data     extern C:\MCC18\src\extended\proc\p18F97J60.asm
       PreviousAlarmState   0x00053c       data     extern C:\Documents and Settings\Administrator\My Documents\Alarm Controller\PIC Code\SecuritySystem.c
          PutHeadersState   0x000e29       data     static C:\Documents and Settings\Administrator\My Documents\Alarm Controller\Microchip\TCPIP Stack\SMTP.c
                RAMStrPtr   0x000e3b       data     static C:\Documents and Settings\Administrator\My Documents\Alarm Controller\Microchip\TCPIP Stack\SMTP.c
            RAMStringBody   0x000e4d       data     static C:\Documents and Settings\Administrator\My Documents\Alarm Controller\PIC Code\SMTP.c
                     RCON   0x000fd0       data     extern C:\MCC18\src\extended\proc\p18F97J60.asm
                 RCONbits   0x000fd0       data     extern C:\MCC18\src\extended\proc\p18F97J60.asm
                    RCREG   0x000fae       data     extern C:\MCC18\src\extended\proc\p18F97J60.asm
                   RCREG1   0x000fae       data     extern C:\MCC18\src\extended\proc\p18F97J60.asm
                   RCREG2   0x000f6e       data     extern C:\MCC18\src\extended\proc\p18F97J60.asm
                    RCSTA   0x000fab       data     extern C:\MCC18\src\extended\proc\p18F97J60.asm
                   RCSTA1   0x000fab       data     extern C:\MCC18\src\extended\proc\p18F97J60.asm
               RCSTA1bits   0x000fab       data     extern C:\MCC18\src\extended\proc\p18F97J60.asm
                   RCSTA2   0x000f6b       data     extern C:\MCC18\src\extended\proc\p18F97J60.asm
               RCSTA2bits   0x000f6b       data     extern C:\MCC18\src\extended\proc\p18F97J60.asm
                RCSTAbits   0x000fab       data     extern C:\MCC18\src\extended\proc\p18F97J60.asm
                ROMStrPtr   0x000e35       data     static C:\Documents and Settings\Administrator\My Documents\Alarm Controller\Microchip\TCPIP Stack\SMTP.c
               ROMStrPtr2   0x000e38       data     static C:\Documents and Settings\Administrator\My Documents\Alarm Controller\Microchip\TCPIP Stack\SMTP.c
                 RXBuffer   0x000e31       data     static C:\Documents and Settings\Administrator\My Documents\Alarm Controller\Microchip\TCPIP Stack\SMTP.c
            RXParserState   0x000e2a       data     static C:\Documents and Settings\Administrator\My Documents\Alarm Controller\Microchip\TCPIP Stack\SMTP.c
               RecordType   0x000634       data     static C:\Documents and Settings\Administrator\My Documents\Alarm Controller\Microchip\TCPIP Stack\DNS.c
         RejectedPassword   0x000565       data     extern C:\Documents and Settings\Administrator\My Documents\Alarm Controller\PIC Code\Authenticate.c
               RemoteInfo   0x0004e7       data     static C:\Documents and Settings\Administrator\My Documents\Alarm Controller\Microchip\TCPIP Stack\TCP.c
             ResolvedInfo   0x000635       data     static C:\Documents and Settings\Administrator\My Documents\Alarm Controller\Microchip\TCPIP Stack\DNS.c
             ResponseCode   0x000e2b       data     static C:\Documents and Settings\Administrator\My Documents\Alarm Controller\Microchip\TCPIP Stack\SMTP.c
           SMPTTestResult   0x000e4b       data     extern C:\Documents and Settings\Administrator\My Documents\Alarm Controller\PIC Code\SMTP.c
               SMTPClient   0x000e00       data     extern C:\Documents and Settings\Administrator\My Documents\Alarm Controller\Microchip\TCPIP Stack\SMTP.c
                SMTPFlags   0x00066e       data     static C:\Documents and Settings\Administrator\My Documents\Alarm Controller\Microchip\TCPIP Stack\SMTP.c
               SMTPServer   0x000e22       data     static C:\Documents and Settings\Administrator\My Documents\Alarm Controller\Microchip\TCPIP Stack\SMTP.c
                SMTPState   0x000e28       data     static C:\Documents and Settings\Administrator\My Documents\Alarm Controller\Microchip\TCPIP Stack\SMTP.c
             SMTPTaskList   0x000e3f       data     extern C:\Documents and Settings\Administrator\My Documents\Alarm Controller\PIC Code\SMTP.c
                SNTPState   0x00061f       data     extern C:\Documents and Settings\Administrator\My Documents\Alarm Controller\PIC Code\SNTP Customised.c
                    SPBRG   0x000faf       data     extern C:\MCC18\src\extended\proc\p18F97J60.asm
                   SPBRG1   0x000faf       data     extern C:\MCC18\src\extended\proc\p18F97J60.asm
                   SPBRG2   0x000f6f       data     extern C:\MCC18\src\extended\proc\p18F97J60.asm
                   SPBRGH   0x000f7f       data     extern C:\MCC18\src\extended\proc\p18F97J60.asm
                  SPBRGH1   0x000f7f       data     extern C:\MCC18\src\extended\proc\p18F97J60.asm
                  SPBRGH2   0x000f7d       data     extern C:\MCC18\src\extended\proc\p18F97J60.asm
                  SSP1ADD   0x000fc8       data     extern C:\MCC18\src\extended\proc\p18F97J60.asm
                  SSP1BUF   0x000fc9       data     extern C:\MCC18\src\extended\proc\p18F97J60.asm
                 SSP1CON1   0x000fc6       data     extern C:\MCC18\src\extended\proc\p18F97J60.asm
             SSP1CON1bits   0x000fc6       data     extern C:\MCC18\src\extended\proc\p18F97J60.asm
                 SSP1CON2   0x000fc5       data     extern C:\MCC18\src\extended\proc\p18F97J60.asm
             SSP1CON2bits   0x000fc5       data     extern C:\MCC18\src\extended\proc\p18F97J60.asm
                 SSP1STAT   0x000fc7       data     extern C:\MCC18\src\extended\proc\p18F97J60.asm
             SSP1STATbits   0x000fc7       data     extern C:\MCC18\src\extended\proc\p18F97J60.asm
                  SSP2ADD   0x000f65       data     extern C:\MCC18\src\extended\proc\p18F97J60.asm
                  SSP2BUF   0x000f66       data     extern C:\MCC18\src\extended\proc\p18F97J60.asm
                 SSP2CON1   0x000f63       data     extern C:\MCC18\src\extended\proc\p18F97J60.asm
             SSP2CON1bits   0x000f63       data     extern C:\MCC18\src\extended\proc\p18F97J60.asm
                 SSP2CON2   0x000f62       data     extern C:\MCC18\src\extended\proc\p18F97J60.asm
             SSP2CON2bits   0x000f62       data     extern C:\MCC18\src\extended\proc\p18F97J60.asm
                 SSP2STAT   0x000f64       data     extern C:\MCC18\src\extended\proc\p18F97J60.asm
             SSP2STATbits   0x000f64       data     extern C:\MCC18\src\extended\proc\p18F97J60.asm
                   SSPADD   0x000fc8       data     extern C:\MCC18\src\extended\proc\p18F97J60.asm
                   SSPBUF   0x000fc9       data     extern C:\MCC18\src\extended\proc\p18F97J60.asm
                  SSPCON1   0x000fc6       data     extern C:\MCC18\src\extended\proc\p18F97J60.asm
              SSPCON1bits   0x000fc6       data     extern C:\MCC18\src\extended\proc\p18F97J60.asm
                  SSPCON2   0x000fc5       data     extern C:\MCC18\src\extended\proc\p18F97J60.asm
              SSPCON2bits   0x000fc5       data     extern C:\MCC18\src\extended\proc\p18F97J60.asm
                  SSPSTAT   0x000fc7       data     extern C:\MCC18\src\extended\proc\p18F97J60.asm
              SSPSTATbits   0x000fc7       data     extern C:\MCC18\src\extended\proc\p18F97J60.asm
                   STATUS   0x000fd8       data     extern C:\MCC18\src\extended\proc\p18F97J60.asm
               STATUSbits   0x000fd8       data     extern C:\MCC18\src\extended\proc\p18F97J60.asm
                   STKPTR   0x000ffc       data     extern C:\MCC18\src\extended\proc\p18F97J60.asm
               STKPTRbits   0x000ffc       data     extern C:\MCC18\src\extended\proc\p18F97J60.asm
                 SYNQueue   0x0001c1       data     static C:\Documents and Settings\Administrator\My Documents\Alarm Controller\Microchip\TCPIP Stack\TCP.c
      SecurityCommandText   0x000f28       data     static C:\Documents and Settings\Administrator\My Documents\Alarm Controller\PIC Code\SecuritySystem.c
     SecurityRequestsText   0x000f43       data     static C:\Documents and Settings\Administrator\My Documents\Alarm Controller\PIC Code\SecuritySystem.c
                     Seed   0x0002fe       data     static C:\MCC18\src\extended\stdclib\rand.asm
        SentTransactionID   0x000643       data     static C:\Documents and Settings\Administrator\My Documents\Alarm Controller\Microchip\TCPIP Stack\DNS.c
                   Server   0x000620       data     static C:\Documents and Settings\Administrator\My Documents\Alarm Controller\PIC Code\SNTP Customised.c
               SirenTimer   0x000551       data     extern C:\Documents and Settings\Administrator\My Documents\Alarm Controller\PIC Code\SecuritySystem.c
         SocketWithRxData   0x000691       data     static C:\Documents and Settings\Administrator\My Documents\Alarm Controller\Microchip\TCPIP Stack\UDP.c
                StartTime   0x00063f       data     static C:\Documents and Settings\Administrator\My Documents\Alarm Controller\Microchip\TCPIP Stack\DNS.c
                    T0CON   0x000fd5       data     extern C:\MCC18\src\extended\proc\p18F97J60.asm
                T0CONbits   0x000fd5       data     extern C:\MCC18\src\extended\proc\p18F97J60.asm
                    T1CON   0x000fcd       data     extern C:\MCC18\src\extended\proc\p18F97J60.asm
                T1CONbits   0x000fcd       data     extern C:\MCC18\src\extended\proc\p18F97J60.asm
                    T2CON   0x000fca       data     extern C:\MCC18\src\extended\proc\p18F97J60.asm
                T2CONbits   0x000fca       data     extern C:\MCC18\src\extended\proc\p18F97J60.asm
                    T3CON   0x000fb1       data     extern C:\MCC18\src\extended\proc\p18F97J60.asm
                T3CONbits   0x000fb1       data     extern C:\MCC18\src\extended\proc\p18F97J60.asm
                    T4CON   0x000f76       data     extern C:\MCC18\src\extended\proc\p18F97J60.asm
                T4CONbits   0x000f76       data     extern C:\MCC18\src\extended\proc\p18F97J60.asm
                   TABLAT   0x000ff5       data     extern C:\MCC18\src\extended\proc\p18F97J60.asm
                   TBLPTR   0x000ff6       data     extern C:\MCC18\src\extended\proc\p18F97J60.asm
                  TBLPTRH   0x000ff7       data     extern C:\MCC18\src\extended\proc\p18F97J60.asm
                  TBLPTRL   0x000ff6       data     extern C:\MCC18\src\extended\proc\p18F97J60.asm
                  TBLPTRU   0x000ff8       data     extern C:\MCC18\src\extended\proc\p18F97J60.asm
                 TCBStubs   0x000290       data     static C:\Documents and Settings\Administrator\My Documents\Alarm Controller\Microchip\TCPIP Stack\TCP.c
                    TMR0H   0x000fd7       data     extern C:\MCC18\src\extended\proc\p18F97J60.asm
                    TMR0L   0x000fd6       data     extern C:\MCC18\src\extended\proc\p18F97J60.asm
                    TMR1H   0x000fcf       data     extern C:\MCC18\src\extended\proc\p18F97J60.asm
                    TMR1L   0x000fce       data     extern C:\MCC18\src\extended\proc\p18F97J60.asm
                     TMR2   0x000fcc       data     extern C:\MCC18\src\extended\proc\p18F97J60.asm
                    TMR3H   0x000fb3       data     extern C:\MCC18\src\extended\proc\p18F97J60.asm
                    TMR3L   0x000fb2       data     extern C:\MCC18\src\extended\proc\p18F97J60.asm
                     TMR4   0x000f78       data     extern C:\MCC18\src\extended\proc\p18F97J60.asm
                      TOS   0x000ffd       data     extern C:\MCC18\src\extended\proc\p18F97J60.asm
                     TOSH   0x000ffe       data     extern C:\MCC18\src\extended\proc\p18F97J60.asm
                     TOSL   0x000ffd       data     extern C:\MCC18\src\extended\proc\p18F97J60.asm
                     TOSU   0x000fff       data     extern C:\MCC18\src\extended\proc\p18F97J60.asm
                    TRISA   0x000f92       data     extern C:\MCC18\src\extended\proc\p18F97J60.asm
                TRISAbits   0x000f92       data     extern C:\MCC18\src\extended\proc\p18F97J60.asm
                    TRISB   0x000f93       data     extern C:\MCC18\src\extended\proc\p18F97J60.asm
                TRISBbits   0x000f93       data     extern C:\MCC18\src\extended\proc\p18F97J60.asm
                    TRISC   0x000f94       data     extern C:\MCC18\src\extended\proc\p18F97J60.asm
                TRISCbits   0x000f94       data     extern C:\MCC18\src\extended\proc\p18F97J60.asm
                    TRISD   0x000f95       data     extern C:\MCC18\src\extended\proc\p18F97J60.asm
                TRISDbits   0x000f95       data     extern C:\MCC18\src\extended\proc\p18F97J60.asm
                    TRISE   0x000f96       data     extern C:\MCC18\src\extended\proc\p18F97J60.asm
                TRISEbits   0x000f96       data     extern C:\MCC18\src\extended\proc\p18F97J60.asm
                    TRISF   0x000f97       data     extern C:\MCC18\src\extended\proc\p18F97J60.asm
                TRISFbits   0x000f97       data     extern C:\MCC18\src\extended\proc\p18F97J60.asm
                    TRISG   0x000f98       data     extern C:\MCC18\src\extended\proc\p18F97J60.asm
                TRISGbits   0x000f98       data     extern C:\MCC18\src\extended\proc\p18F97J60.asm
                    TRISH   0x000f99       data     extern C:\MCC18\src\extended\proc\p18F97J60.asm
                TRISHbits   0x000f99       data     extern C:\MCC18\src\extended\proc\p18F97J60.asm
                    TRISJ   0x000f9a       data     extern C:\MCC18\src\extended\proc\p18F97J60.asm
                TRISJbits   0x000f9a       data     extern C:\MCC18\src\extended\proc\p18F97J60.asm
                    TXREG   0x000fad       data     extern C:\MCC18\src\extended\proc\p18F97J60.asm
                   TXREG1   0x000fad       data     extern C:\MCC18\src\extended\proc\p18F97J60.asm
                   TXREG2   0x000f6d       data     extern C:\MCC18\src\extended\proc\p18F97J60.asm
                    TXSTA   0x000fac       data     extern C:\MCC18\src\extended\proc\p18F97J60.asm
                   TXSTA1   0x000fac       data     extern C:\MCC18\src\extended\proc\p18F97J60.asm
               TXSTA1bits   0x000fac       data     extern C:\MCC18\src\extended\proc\p18F97J60.asm
                   TXSTA2   0x000f6c       data     extern C:\MCC18\src\extended\proc\p18F97J60.asm
               TXSTA2bits   0x000f6c       data     extern C:\MCC18\src\extended\proc\p18F97J60.asm
                TXSTAbits   0x000fac       data     extern C:\MCC18\src\extended\proc\p18F97J60.asm
                   Target   0x00064f       data     static C:\Documents and Settings\Administrator\My Documents\Alarm Controller\Microchip\TCPIP Stack\ARP.c
               Tempdigits   0x000684       data     static C:\Documents and Settings\Administrator\My Documents\Alarm Controller\PIC Code\HTTPDynVariables.c
                    Timer   0x000e2d       data     static C:\Documents and Settings\Administrator\My Documents\Alarm Controller\Microchip\TCPIP Stack\SMTP.c
           TransportState   0x00066d       data     static C:\Documents and Settings\Administrator\My Documents\Alarm Controller\Microchip\TCPIP Stack\SMTP.c
       TriggeredEntryZone   0x000541       data     extern C:\Documents and Settings\Administrator\My Documents\Alarm Controller\PIC Code\SecuritySystem.c
               UDPRxCount   0x000449       data     extern C:\Documents and Settings\Administrator\My Documents\Alarm Controller\Microchip\TCPIP Stack\UDP.c
            UDPSocketInfo   0x000400       data     extern C:\Documents and Settings\Administrator\My Documents\Alarm Controller\Microchip\TCPIP Stack\UDP.c
               UDPTxCount   0x000447       data     extern C:\Documents and Settings\Administrator\My Documents\Alarm Controller\Microchip\TCPIP Stack\UDP.c
                   UserID   0x000559       data     extern C:\Documents and Settings\Administrator\My Documents\Alarm Controller\PIC Code\SecuritySystem.c
           VoltageBattery   0x00005c       data     extern C:\Documents and Settings\Administrator\My Documents\Alarm Controller\PIC Code\Battery.c
            VoltageSupply   0x00005e       data     extern C:\Documents and Settings\Administrator\My Documents\Alarm Controller\PIC Code\Battery.c
                   WDTCON   0x000fd1       data     extern C:\MCC18\src\extended\proc\p18F97J60.asm
               WDTCONbits   0x000fd1       data     extern C:\MCC18\src\extended\proc\p18F97J60.asm
                     WREG   0x000fe8       data     extern C:\MCC18\src\extended\proc\p18F97J60.asm
             WasDiscarded   0x0000fc       data     static C:\Documents and Settings\Administrator\My Documents\Alarm Controller\Microchip\TCPIP Stack\ETH97J60.c
      WhenToSendEmailText   0x00066f       data     static C:\Documents and Settings\Administrator\My Documents\Alarm Controller\PIC Code\SMTP.c
                XPLSocket   0x0004a3       data     extern C:\Documents and Settings\Administrator\My Documents\Alarm Controller\PIC Code\xPL.c
               ZoneConfig   0x000200       data     extern C:\Documents and Settings\Administrator\My Documents\Alarm Controller\PIC Code\SecuritySystem.c
            ZoneTypesText   0x000f1c       data     extern C:\Documents and Settings\Administrator\My Documents\Alarm Controller\PIC Code\SecuritySystem.c
              _Identifier   0x000694       data     static C:\Documents and Settings\Administrator\My Documents\Alarm Controller\Microchip\TCPIP Stack\IP.c
                __RETVAL0   0x0003fc       data     extern C:\MCC18\src\extended\math\cmath18.asm
                __RETVAL1   0x0003fd       data     extern C:\MCC18\src\extended\math\cmath18.asm
                __RETVAL2   0x0003fe       data     extern C:\MCC18\src\extended\math\cmath18.asm
                __RETVAL3   0x0003ff       data     extern C:\MCC18\src\extended\math\cmath18.asm
                  __tmp_0   0x0005d4       data     static C:\Documents and Settings\Administrator\My Documents\Alarm Controller\PIC Code\AES.c
                  __tmp_0   0x0005d4       data     static C:\Documents and Settings\Administrator\My Documents\Alarm Controller\PIC Code\SNTP Customised.c
                  __tmp_0   0x0005d4       data     static C:\Documents and Settings\Administrator\My Documents\Alarm Controller\Microchip\TCPIP Stack\DNS.c
                  __tmp_0   0x0005d4       data     static C:\Documents and Settings\Administrator\My Documents\Alarm Controller\Microchip\TCPIP Stack\UDP.c
                  __tmp_0   0x0005d4       data     static C:\Documents and Settings\Administrator\My Documents\Alarm Controller\Microchip\TCPIP Stack\ARP.c
                  __tmp_0   0x0005d4       data     static C:\Documents and Settings\Administrator\My Documents\Alarm Controller\Microchip\TCPIP Stack\Tick.c
                  __tmp_0   0x0005d4       data     static C:\Documents and Settings\Administrator\My Documents\Alarm Controller\PIC Code\MainDemo.c
                  __tmp_0   0x0005d4       data     static C:\Documents and Settings\Administrator\My Documents\Alarm Controller\Microchip\TCPIP Stack\ETH97J60.c
                  __tmp_0   0x0005d4       data     static C:\Documents and Settings\Administrator\My Documents\Alarm Controller\Microchip\TCPIP Stack\TCP.c
                  __tmp_0   0x0005d4       data     static C:\Documents and Settings\Administrator\My Documents\Alarm Controller\Microchip\TCPIP Stack\StackTsk.c
                  __tmp_0   0x0005d4       data     static C:\Documents and Settings\Administrator\My Documents\Alarm Controller\Microchip\TCPIP Stack\Helpers.c
                  __tmp_0   0x0005d4       data     static C:\Documents and Settings\Administrator\My Documents\Alarm Controller\Microchip\TCPIP Stack\SPIEEPROM.c
                  __tmp_0   0x0005d4       data     static C:\Documents and Settings\Administrator\My Documents\Alarm Controller\PIC Code\EOL.c
                  __tmp_0   0x0005d4       data     static C:\Documents and Settings\Administrator\My Documents\Alarm Controller\PIC Code\Battery.c
                  __tmp_0   0x0005d4       data     static C:\Documents and Settings\Administrator\My Documents\Alarm Controller\Microchip\TCPIP Stack\SMTP.c
                  __tmp_0   0x0005d4       data     static C:\Documents and Settings\Administrator\My Documents\Alarm Controller\PIC Code\xPL.c
                  __tmp_0   0x0005d4       data     static C:\Documents and Settings\Administrator\My Documents\Alarm Controller\Microchip\TCPIP Stack\NBNS.c
                  __tmp_0   0x0005d4       data     static C:\Documents and Settings\Administrator\My Documents\Alarm Controller\Microchip\TCPIP Stack\MPFS2.c
                  __tmp_0   0x0005d4       data     static C:\Documents and Settings\Administrator\My Documents\Alarm Controller\Microchip\TCPIP Stack\LCDBlocking.c
                  __tmp_0   0x0005d4       data     static C:\Documents and Settings\Administrator\My Documents\Alarm Controller\Microchip\TCPIP Stack\IP.c
                  __tmp_0   0x0005d4       data     static C:\Documents and Settings\Administrator\My Documents\Alarm Controller\PIC Code\HTTPDynVariables.c
                  __tmp_0   0x0005d4       data     static C:\Documents and Settings\Administrator\My Documents\Alarm Controller\PIC Code\SecuritySystem.c
                  __tmp_0   0x0005d4       data     static C:\Documents and Settings\Administrator\My Documents\Alarm Controller\PIC Code\Authenticate.c
                  __tmp_0   0x0005d4       data     static C:\Documents and Settings\Administrator\My Documents\Alarm Controller\PIC Code\SecurityXPLSender.c
                  __tmp_0   0x0005d4       data     static C:\Documents and Settings\Administrator\My Documents\Alarm Controller\PIC Code\HTTPForms.c
                  __tmp_0   0x0005d4       data     static C:\Documents and Settings\Administrator\My Documents\Alarm Controller\Microchip\TCPIP Stack\HTTP2.c
                  __tmp_0   0x0005d4       data     static C:\Documents and Settings\Administrator\My Documents\Alarm Controller\PIC Code\SMTP.c
                      _iA   0x000659       data     extern C:\Documents and Settings\Administrator\My Documents\Alarm Controller\Microchip\TCPIP Stack\BigInt_helper.asm
                      _iB   0x00065d       data     extern C:\Documents and Settings\Administrator\My Documents\Alarm Controller\Microchip\TCPIP Stack\BigInt_helper.asm
                     _iBr   0x000661       data     extern C:\Documents and Settings\Administrator\My Documents\Alarm Controller\Microchip\TCPIP Stack\BigInt_helper.asm
                      _iR   0x000667       data     extern C:\Documents and Settings\Administrator\My Documents\Alarm Controller\Microchip\TCPIP Stack\BigInt_helper.asm
                    _rcon   0x0005ff       data     static C:\Documents and Settings\Administrator\My Documents\Alarm Controller\PIC Code\AES.c
            _roundCounter   0x0005fe       data     static C:\Documents and Settings\Administrator\My Documents\Alarm Controller\PIC Code\AES.c
                      _wC   0x000669       data     extern C:\Documents and Settings\Administrator\My Documents\Alarm Controller\Microchip\TCPIP Stack\BigInt_helper.asm
                      _xA   0x00065b       data     extern C:\Documents and Settings\Administrator\My Documents\Alarm Controller\Microchip\TCPIP Stack\BigInt_helper.asm
                      _xB   0x00065f       data     extern C:\Documents and Settings\Administrator\My Documents\Alarm Controller\Microchip\TCPIP Stack\BigInt_helper.asm
                     _xBr   0x000664       data     extern C:\Documents and Settings\Administrator\My Documents\Alarm Controller\Microchip\TCPIP Stack\BigInt_helper.asm
          activeUDPSocket   0x000446       data     extern C:\Documents and Settings\Administrator\My Documents\Alarm Controller\Microchip\TCPIP Stack\UDP.c
                  curHTTP   0x000300       data     extern C:\Documents and Settings\Administrator\My Documents\Alarm Controller\Microchip\TCPIP Stack\HTTP2.c
                curHTTPID   0x000383       data     extern C:\Documents and Settings\Administrator\My Documents\Alarm Controller\Microchip\TCPIP Stack\HTTP2.c
                curr_byte   0x000de9       data     static C:\MCC18\src\extended\startup\c018i_e.c
               curr_entry   0x000deb       data     static C:\MCC18\src\extended\startup\c018i_e.c
                 data_ptr   0x000ded       data     static C:\MCC18\src\extended\startup\c018i_e.c
          dwInternalTicks   0x000688       data     static C:\Documents and Settings\Administrator\My Documents\Alarm Controller\Microchip\TCPIP Stack\Tick.c
         dwLastUpdateTick   0x000619       data     extern C:\Documents and Settings\Administrator\My Documents\Alarm Controller\PIC Code\SNTP Customised.c
            dwSNTPSeconds   0x00068c       data     extern C:\Documents and Settings\Administrator\My Documents\Alarm Controller\PIC Code\SNTP Customised.c
                 fatCache   0x00003d       data     static C:\Documents and Settings\Administrator\My Documents\Alarm Controller\Microchip\TCPIP Stack\MPFS2.c
               fatCacheID   0x000053       data     static C:\Documents and Settings\Administrator\My Documents\Alarm Controller\Microchip\TCPIP Stack\MPFS2.c
              hCurrentTCP   0x000692       data     static C:\Documents and Settings\Administrator\My Documents\Alarm Controller\Microchip\TCPIP Stack\TCP.c
                 hLastTCB   0x000693       data     static C:\Documents and Settings\Administrator\My Documents\Alarm Controller\Microchip\TCPIP Stack\TCP.c
         httpContentTypes   0x0003a8       data     static C:\Documents and Settings\Administrator\My Documents\Alarm Controller\Microchip\TCPIP Stack\HTTP2.c
       httpFileExtensions   0x000384       data     static C:\Documents and Settings\Administrator\My Documents\Alarm Controller\Microchip\TCPIP Stack\HTTP2.c
                httpStubs   0x00037f       data     extern C:\Documents and Settings\Administrator\My Documents\Alarm Controller\Microchip\TCPIP Stack\HTTP2.c
                  i2Count   0x000557       data     extern C:\Documents and Settings\Administrator\My Documents\Alarm Controller\PIC Code\SecuritySystem.c
                   iCount   0x000555       data     extern C:\Documents and Settings\Administrator\My Documents\Alarm Controller\PIC Code\SecuritySystem.c
             isMPFSLocked   0x00003c       data     static C:\Documents and Settings\Administrator\My Documents\Alarm Controller\Microchip\TCPIP Stack\MPFS2.c
              lastFailure   0x000602       data     extern C:\Documents and Settings\Administrator\My Documents\Alarm Controller\PIC Code\HTTPDynVariables.c
                 lastRead   0x000057       data     extern C:\Documents and Settings\Administrator\My Documents\Alarm Controller\Microchip\TCPIP Stack\MPFS2.c
              lastSuccess   0x000600       data     extern C:\Documents and Settings\Administrator\My Documents\Alarm Controller\PIC Code\HTTPDynVariables.c
          myDHCPBindCount   0x000f5b       data     extern C:\Documents and Settings\Administrator\My Documents\Alarm Controller\PIC Code\MainDemo.c
                 numFiles   0x000055       data     static C:\Documents and Settings\Administrator\My Documents\Alarm Controller\Microchip\TCPIP Stack\MPFS2.c
                     prom   0x000de6       data     static C:\MCC18\src\extended\startup\c018i_e.c
               remoteNode   0x0005f4       data     extern C:\Documents and Settings\Administrator\My Documents\Alarm Controller\Microchip\TCPIP Stack\StackTsk.c
                    smARP   0x000697       data     static C:\Documents and Settings\Administrator\My Documents\Alarm Controller\Microchip\TCPIP Stack\ARP.c
                    smDNS   0x0001ff       data     static C:\Documents and Settings\Administrator\My Documents\Alarm Controller\Microchip\TCPIP Stack\DNS.c
                   smNBNS   0x000696       data     static C:\Documents and Settings\Administrator\My Documents\Alarm Controller\Microchip\TCPIP Stack\NBNS.c
                  smStack   0x0005f3       data     static C:\Documents and Settings\Administrator\My Documents\Alarm Controller\Microchip\TCPIP Stack\StackTsk.c
                        t   0x000f5c       data     static C:\Documents and Settings\Administrator\My Documents\Alarm Controller\PIC Code\MainDemo.c
                 toRotate   0x000df0       data     extern C:\Documents and Settings\Administrator\My Documents\Alarm Controller\Microchip\TCPIP Stack\Helpers.c
             vTickReading   0x00067e       data     static C:\Documents and Settings\Administrator\My Documents\Alarm Controller\Microchip\TCPIP Stack\Tick.c
           wAddressLength   0x000e3d       data     static C:\Documents and Settings\Administrator\My Documents\Alarm Controller\Microchip\TCPIP Stack\SMTP.c
               wGetOffset   0x00044d       data     static C:\Documents and Settings\Administrator\My Documents\Alarm Controller\Microchip\TCPIP Stack\UDP.c
               wPutOffset   0x00044b       data     static C:\Documents and Settings\Administrator\My Documents\Alarm Controller\Microchip\TCPIP Stack\UDP.c
              wTXWatchdog   0x0000fd       data     static C:\Documents and Settings\Administrator\My Documents\Alarm Controller\Microchip\TCPIP Stack\ETH97J60.c
                xPLConfig   0x000d00       data     extern C:\Documents and Settings\Administrator\My Documents\Alarm Controller\PIC Code\SecuritySystem.c
            xPLConfiguerd   0x000190       data     extern C:\Documents and Settings\Administrator\My Documents\Alarm Controller\PIC Code\xPL.c
         xPLHeaderKeyText   0x00045b       data     static C:\Documents and Settings\Administrator\My Documents\Alarm Controller\PIC Code\xPL.c
xPLHeartbeatIntervalCount   0x000192       data     extern C:\Documents and Settings\Administrator\My Documents\Alarm Controller\PIC Code\xPL.c
                xPLMsgKey   0x000100       data     extern C:\Documents and Settings\Administrator\My Documents\Alarm Controller\PIC Code\xPL.c
              xPLMsgValue   0x000110       data     extern C:\Documents and Settings\Administrator\My Documents\Alarm Controller\PIC Code\xPL.c
    xPLNotConfiguredTimer   0x000196       data     extern C:\Documents and Settings\Administrator\My Documents\Alarm Controller\PIC Code\xPL.c
       xPLReceivedMessage   0x00019a       data     extern C:\Documents and Settings\Administrator\My Documents\Alarm Controller\PIC Code\xPL.c
              xPLTaskList   0x000060       data     extern C:\Documents and Settings\Administrator\My Documents\Alarm Controller\PIC Code\SecuritySystem.c
       xPLmessageTypeText   0x000452       data     static C:\Documents and Settings\Administrator\My Documents\Alarm Controller\PIC Code\xPL.c
       xPLschemaClassText   0x000467       data     static C:\Documents and Settings\Administrator\My Documents\Alarm Controller\PIC Code\xPL.c
        xPLschemaTypeText   0x000470       data     static C:\Documents and Settings\Administrator\My Documents\Alarm Controller\PIC Code\xPL.c



                              Symbols - Sorted by Address
                     Name    Address   Location    Storage File                     
                ---------  ---------  ---------  --------- ---------                
                   _entry   0x000000    program     extern C:\MCC18\src\extended\startup\c018i_e.c
       ___return_lbl00000   0x000004    program     static                          
               HighVector   0x000008    program     extern C:\Documents and Settings\Administrator\My Documents\Alarm Controller\PIC Code\MainDemo.c
       ___return_lbl00003   0x00000c    program     static                          
                LowVector   0x000018    program     extern C:\Documents and Settings\Administrator\My Documents\Alarm Controller\PIC Code\MainDemo.c
       ___return_lbl00002   0x00001c    program     static                          
              SyncTCBStub   0x00002a    program     static C:\Documents and Settings\Administrator\My Documents\Alarm Controller\Microchip\TCPIP Stack\TCP.c
                  SyncTCB   0x00007e    program     static C:\Documents and Settings\Administrator\My Documents\Alarm Controller\Microchip\TCPIP Stack\TCP.c
                  TCPInit   0x0000c6    program     extern C:\Documents and Settings\Administrator\My Documents\Alarm Controller\Microchip\TCPIP Stack\TCP.c
                  TCPOpen   0x0001f4    program     extern C:\Documents and Settings\Administrator\My Documents\Alarm Controller\Microchip\TCPIP Stack\TCP.c
              TCPWasReset   0x00030a    program     extern C:\Documents and Settings\Administrator\My Documents\Alarm Controller\Microchip\TCPIP Stack\TCP.c
           TCPIsConnected   0x000320    program     extern C:\Documents and Settings\Administrator\My Documents\Alarm Controller\Microchip\TCPIP Stack\TCP.c
            TCPDisconnect   0x000336    program     extern C:\Documents and Settings\Administrator\My Documents\Alarm Controller\Microchip\TCPIP Stack\TCP.c
         TCPGetRemoteInfo   0x000392    program     extern C:\Documents and Settings\Administrator\My Documents\Alarm Controller\Microchip\TCPIP Stack\TCP.c
                 TCPFlush   0x0003c4    program     extern C:\Documents and Settings\Administrator\My Documents\Alarm Controller\Microchip\TCPIP Stack\TCP.c
            TCPIsPutReady   0x0003e0    program     extern C:\Documents and Settings\Administrator\My Documents\Alarm Controller\Microchip\TCPIP Stack\TCP.c
                   TCPPut   0x00045c    program     extern C:\Documents and Settings\Administrator\My Documents\Alarm Controller\Microchip\TCPIP Stack\TCP.c
              TCPPutArray   0x000504    program     extern C:\Documents and Settings\Administrator\My Documents\Alarm Controller\Microchip\TCPIP Stack\TCP.c
           TCPPutROMArray   0x0005f4    program     extern C:\Documents and Settings\Administrator\My Documents\Alarm Controller\Microchip\TCPIP Stack\TCP.c
             TCPPutString   0x0006e8    program     extern C:\Documents and Settings\Administrator\My Documents\Alarm Controller\Microchip\TCPIP Stack\TCP.c
          TCPPutROMString   0x000720    program     extern C:\Documents and Settings\Administrator\My Documents\Alarm Controller\Microchip\TCPIP Stack\TCP.c
         TCPGetTxFIFOFull   0x00078a    program     extern C:\Documents and Settings\Administrator\My Documents\Alarm Controller\Microchip\TCPIP Stack\TCP.c
               TCPDiscard   0x0007a8    program     extern C:\Documents and Settings\Administrator\My Documents\Alarm Controller\Microchip\TCPIP Stack\TCP.c
            TCPIsGetReady   0x0007d0    program     extern C:\Documents and Settings\Administrator\My Documents\Alarm Controller\Microchip\TCPIP Stack\TCP.c
                   TCPGet   0x00082c    program     extern C:\Documents and Settings\Administrator\My Documents\Alarm Controller\Microchip\TCPIP Stack\TCP.c
              TCPGetArray   0x0008a8    program     extern C:\Documents and Settings\Administrator\My Documents\Alarm Controller\Microchip\TCPIP Stack\TCP.c
         TCPGetRxFIFOFree   0x000998    program     extern C:\Documents and Settings\Administrator\My Documents\Alarm Controller\Microchip\TCPIP Stack\TCP.c
           TCPFindArrayEx   0x0009b4    program     extern C:\Documents and Settings\Administrator\My Documents\Alarm Controller\Microchip\TCPIP Stack\TCP.c
        TCPFindROMArrayEx   0x000bf0    program     extern C:\Documents and Settings\Administrator\My Documents\Alarm Controller\Microchip\TCPIP Stack\TCP.c
                TCPFindEx   0x000e24    program     extern C:\Documents and Settings\Administrator\My Documents\Alarm Controller\Microchip\TCPIP Stack\TCP.c
                  TCPTick   0x000e4a    program     extern C:\Documents and Settings\Administrator\My Documents\Alarm Controller\Microchip\TCPIP Stack\TCP.c
               TCPProcess   0x00128a    program     extern C:\Documents and Settings\Administrator\My Documents\Alarm Controller\Microchip\TCPIP Stack\TCP.c
                  SendTCP   0x00139a    program     static C:\Documents and Settings\Administrator\My Documents\Alarm Controller\Microchip\TCPIP Stack\TCP.c
       FindMatchingSocket   0x0017f6    program     static C:\Documents and Settings\Administrator\My Documents\Alarm Controller\Microchip\TCPIP Stack\TCP.c
            SwapTCPHeader   0x001a78    program     static C:\Documents and Settings\Administrator\My Documents\Alarm Controller\Microchip\TCPIP Stack\TCP.c
              CloseSocket   0x001afa    program     static C:\Documents and Settings\Administrator\My Documents\Alarm Controller\Microchip\TCPIP Stack\TCP.c
             HandleTCPSeg   0x001b78    program     static C:\Documents and Settings\Administrator\My Documents\Alarm Controller\Microchip\TCPIP Stack\TCP.c
             __tmplbl_146   0x0024c8    program     static                          
             __tmplbl_148   0x0024c8    program     static                          
             __tmplbl_158   0x0024d6    program     static                          
             __tmplbl_157   0x0024d6    program     static                          
             __tmplbl_155   0x0024d6    program     static                          
             __tmplbl_149   0x0024d6    program     static                          
        TCPAdjustFIFOSize   0x0024de    program     extern C:\Documents and Settings\Administrator\My Documents\Alarm Controller\Microchip\TCPIP Stack\TCP.c
               TCPRAMCopy   0x002672    program     static C:\Documents and Settings\Administrator\My Documents\Alarm Controller\Microchip\TCPIP Stack\TCP.c
            TCPRAMCopyROM   0x0026ea    program     static C:\Documents and Settings\Administrator\My Documents\Alarm Controller\Microchip\TCPIP Stack\TCP.c
                   __pa_0   0x00277a    program     static C:\Documents and Settings\Administrator\My Documents\Alarm Controller\Microchip\TCPIP Stack\TCP.c
                   __pa_1   0x002796    program     static C:\Documents and Settings\Administrator\My Documents\Alarm Controller\Microchip\TCPIP Stack\TCP.c
                   __pa_2   0x0027e2    program     static C:\Documents and Settings\Administrator\My Documents\Alarm Controller\Microchip\TCPIP Stack\TCP.c
                   __pa_3   0x00280a    program     static C:\Documents and Settings\Administrator\My Documents\Alarm Controller\Microchip\TCPIP Stack\TCP.c
                   __pa_4   0x00281e    program     static C:\Documents and Settings\Administrator\My Documents\Alarm Controller\Microchip\TCPIP Stack\TCP.c
                   __pa_5   0x002840    program     static C:\Documents and Settings\Administrator\My Documents\Alarm Controller\Microchip\TCPIP Stack\TCP.c
                   __pa_6   0x0028ba    program     static C:\Documents and Settings\Administrator\My Documents\Alarm Controller\Microchip\TCPIP Stack\TCP.c
                   __pa_7   0x0028c4    program     static C:\Documents and Settings\Administrator\My Documents\Alarm Controller\Microchip\TCPIP Stack\TCP.c
                   __pa_8   0x0028da    program     static C:\Documents and Settings\Administrator\My Documents\Alarm Controller\Microchip\TCPIP Stack\TCP.c
                   __pa_9   0x0028e4    program     static C:\Documents and Settings\Administrator\My Documents\Alarm Controller\Microchip\TCPIP Stack\TCP.c
                  __pa_10   0x0028ec    program     static C:\Documents and Settings\Administrator\My Documents\Alarm Controller\Microchip\TCPIP Stack\TCP.c
                  __pa_11   0x0028f6    program     static C:\Documents and Settings\Administrator\My Documents\Alarm Controller\Microchip\TCPIP Stack\TCP.c
                  __pa_12   0x00290a    program     static C:\Documents and Settings\Administrator\My Documents\Alarm Controller\Microchip\TCPIP Stack\TCP.c
                  __pa_13   0x002920    program     static C:\Documents and Settings\Administrator\My Documents\Alarm Controller\Microchip\TCPIP Stack\TCP.c
                  __pa_14   0x002958    program     static C:\Documents and Settings\Administrator\My Documents\Alarm Controller\Microchip\TCPIP Stack\TCP.c
                  __pa_15   0x002960    program     static C:\Documents and Settings\Administrator\My Documents\Alarm Controller\Microchip\TCPIP Stack\TCP.c
                  __pa_16   0x00296a    program     static C:\Documents and Settings\Administrator\My Documents\Alarm Controller\Microchip\TCPIP Stack\TCP.c
                  __pa_17   0x002984    program     static C:\Documents and Settings\Administrator\My Documents\Alarm Controller\Microchip\TCPIP Stack\TCP.c
                  __pa_18   0x0029aa    program     static C:\Documents and Settings\Administrator\My Documents\Alarm Controller\Microchip\TCPIP Stack\TCP.c
                  __pa_19   0x0029c0    program     static C:\Documents and Settings\Administrator\My Documents\Alarm Controller\Microchip\TCPIP Stack\TCP.c
              __tmplbl_82   0x0029c8    program     static                          
              __tmplbl_83   0x0029c8    program     static                          
              __tmplbl_84   0x0029c8    program     static                          
              __tmplbl_81   0x0029c8    program     static                          
              __tmplbl_80   0x0029c8    program     static                          
              __tmplbl_76   0x0029c8    program     static                          
             __tmplbl_143   0x0029c8    program     static                          
                  __pa_20   0x0029c8    program     static C:\Documents and Settings\Administrator\My Documents\Alarm Controller\Microchip\TCPIP Stack\TCP.c
             __tmplbl_100   0x0029c8    program     static                          
              __tmplbl_90   0x0029c8    program     static                          
              __tmplbl_93   0x0029c8    program     static                          
              __tmplbl_94   0x0029c8    program     static                          
              __tmplbl_91   0x0029c8    program     static                          
                  __pa_21   0x0029d0    program     static C:\Documents and Settings\Administrator\My Documents\Alarm Controller\Microchip\TCPIP Stack\TCP.c
                  __pa_22   0x0029ea    program     static C:\Documents and Settings\Administrator\My Documents\Alarm Controller\Microchip\TCPIP Stack\TCP.c
                  __pa_23   0x002a06    program     static C:\Documents and Settings\Administrator\My Documents\Alarm Controller\Microchip\TCPIP Stack\TCP.c
                  __pa_24   0x002a1a    program     static C:\Documents and Settings\Administrator\My Documents\Alarm Controller\Microchip\TCPIP Stack\TCP.c
                  __pa_25   0x002a2e    program     static C:\Documents and Settings\Administrator\My Documents\Alarm Controller\Microchip\TCPIP Stack\TCP.c
                  __pa_26   0x002a42    program     static C:\Documents and Settings\Administrator\My Documents\Alarm Controller\Microchip\TCPIP Stack\TCP.c
                  __pa_27   0x002a52    program     static C:\Documents and Settings\Administrator\My Documents\Alarm Controller\Microchip\TCPIP Stack\TCP.c
                  __pa_28   0x002a7e    program     static C:\Documents and Settings\Administrator\My Documents\Alarm Controller\Microchip\TCPIP Stack\TCP.c
                  __pa_29   0x002a96    program     static C:\Documents and Settings\Administrator\My Documents\Alarm Controller\Microchip\TCPIP Stack\TCP.c
                  __pa_30   0x002aa8    program     static C:\Documents and Settings\Administrator\My Documents\Alarm Controller\Microchip\TCPIP Stack\TCP.c
                  __pa_31   0x002ab4    program     static C:\Documents and Settings\Administrator\My Documents\Alarm Controller\Microchip\TCPIP Stack\TCP.c
                  __pa_32   0x002abe    program     static C:\Documents and Settings\Administrator\My Documents\Alarm Controller\Microchip\TCPIP Stack\TCP.c
              __tmplbl_92   0x002ac8    program     static                          
                  __pa_33   0x002ac8    program     static C:\Documents and Settings\Administrator\My Documents\Alarm Controller\Microchip\TCPIP Stack\TCP.c
              __tmplbl_97   0x002ac8    program     static                          
                  __pa_34   0x002ae8    program     static C:\Documents and Settings\Administrator\My Documents\Alarm Controller\Microchip\TCPIP Stack\TCP.c
                  __pa_35   0x002afe    program     static C:\Documents and Settings\Administrator\My Documents\Alarm Controller\Microchip\TCPIP Stack\TCP.c
                  __pa_36   0x002b0c    program     static C:\Documents and Settings\Administrator\My Documents\Alarm Controller\Microchip\TCPIP Stack\TCP.c
                  __pa_37   0x002b18    program     static C:\Documents and Settings\Administrator\My Documents\Alarm Controller\Microchip\TCPIP Stack\TCP.c
                  __pa_38   0x002b20    program     static C:\Documents and Settings\Administrator\My Documents\Alarm Controller\Microchip\TCPIP Stack\TCP.c
                  __pa_39   0x002b2e    program     static C:\Documents and Settings\Administrator\My Documents\Alarm Controller\Microchip\TCPIP Stack\TCP.c
                  __pa_40   0x002b3a    program     static C:\Documents and Settings\Administrator\My Documents\Alarm Controller\Microchip\TCPIP Stack\TCP.c
                  __pa_41   0x002b4e    program     static C:\Documents and Settings\Administrator\My Documents\Alarm Controller\Microchip\TCPIP Stack\TCP.c
                  __pa_42   0x002b60    program     static C:\Documents and Settings\Administrator\My Documents\Alarm Controller\Microchip\TCPIP Stack\TCP.c
                  __pa_43   0x002b72    program     static C:\Documents and Settings\Administrator\My Documents\Alarm Controller\Microchip\TCPIP Stack\TCP.c
                  __pa_44   0x002b8c    program     static C:\Documents and Settings\Administrator\My Documents\Alarm Controller\Microchip\TCPIP Stack\TCP.c
                  __pa_45   0x002b94    program     static C:\Documents and Settings\Administrator\My Documents\Alarm Controller\Microchip\TCPIP Stack\TCP.c
                  __pa_46   0x002ba6    program     static C:\Documents and Settings\Administrator\My Documents\Alarm Controller\Microchip\TCPIP Stack\TCP.c
                  __pa_47   0x002bb8    program     static C:\Documents and Settings\Administrator\My Documents\Alarm Controller\Microchip\TCPIP Stack\TCP.c
                  __pa_48   0x002bc2    program     static C:\Documents and Settings\Administrator\My Documents\Alarm Controller\Microchip\TCPIP Stack\TCP.c
                  __pa_49   0x002bcc    program     static C:\Documents and Settings\Administrator\My Documents\Alarm Controller\Microchip\TCPIP Stack\TCP.c
                  __pa_50   0x002be4    program     static C:\Documents and Settings\Administrator\My Documents\Alarm Controller\Microchip\TCPIP Stack\TCP.c
                  __pa_51   0x002c00    program     static C:\Documents and Settings\Administrator\My Documents\Alarm Controller\Microchip\TCPIP Stack\TCP.c
                  __pa_52   0x002c1a    program     static C:\Documents and Settings\Administrator\My Documents\Alarm Controller\Microchip\TCPIP Stack\TCP.c
                  __pa_53   0x002c34    program     static C:\Documents and Settings\Administrator\My Documents\Alarm Controller\Microchip\TCPIP Stack\TCP.c
                  __pa_54   0x002c4e    program     static C:\Documents and Settings\Administrator\My Documents\Alarm Controller\Microchip\TCPIP Stack\TCP.c
                  __pa_55   0x002c58    program     static C:\Documents and Settings\Administrator\My Documents\Alarm Controller\Microchip\TCPIP Stack\TCP.c
                  __pa_56   0x002c62    program     static C:\Documents and Settings\Administrator\My Documents\Alarm Controller\Microchip\TCPIP Stack\TCP.c
                  __pa_57   0x002c7a    program     static C:\Documents and Settings\Administrator\My Documents\Alarm Controller\Microchip\TCPIP Stack\TCP.c
                  __pa_58   0x002c82    program     static C:\Documents and Settings\Administrator\My Documents\Alarm Controller\Microchip\TCPIP Stack\TCP.c
                  __pa_59   0x002c8a    program     static C:\Documents and Settings\Administrator\My Documents\Alarm Controller\Microchip\TCPIP Stack\TCP.c
                  __pa_60   0x002ca0    program     static C:\Documents and Settings\Administrator\My Documents\Alarm Controller\Microchip\TCPIP Stack\TCP.c
                  __pa_61   0x002cb2    program     static C:\Documents and Settings\Administrator\My Documents\Alarm Controller\Microchip\TCPIP Stack\TCP.c
                  __pa_62   0x002cc8    program     static C:\Documents and Settings\Administrator\My Documents\Alarm Controller\Microchip\TCPIP Stack\TCP.c
                  __pa_63   0x002cde    program     static C:\Documents and Settings\Administrator\My Documents\Alarm Controller\Microchip\TCPIP Stack\TCP.c
                  __pa_64   0x002cec    program     static C:\Documents and Settings\Administrator\My Documents\Alarm Controller\Microchip\TCPIP Stack\TCP.c
                  __pa_65   0x002cfa    program     static C:\Documents and Settings\Administrator\My Documents\Alarm Controller\Microchip\TCPIP Stack\TCP.c
                  __pa_66   0x002d04    program     static C:\Documents and Settings\Administrator\My Documents\Alarm Controller\Microchip\TCPIP Stack\TCP.c
                  __pa_67   0x002d0e    program     static C:\Documents and Settings\Administrator\My Documents\Alarm Controller\Microchip\TCPIP Stack\TCP.c
                  __pa_68   0x002d18    program     static C:\Documents and Settings\Administrator\My Documents\Alarm Controller\Microchip\TCPIP Stack\TCP.c
                  __pa_69   0x002d22    program     static C:\Documents and Settings\Administrator\My Documents\Alarm Controller\Microchip\TCPIP Stack\TCP.c
                  __pa_70   0x002d2c    program     static C:\Documents and Settings\Administrator\My Documents\Alarm Controller\Microchip\TCPIP Stack\TCP.c
                  __pa_71   0x002d3a    program     static C:\Documents and Settings\Administrator\My Documents\Alarm Controller\Microchip\TCPIP Stack\TCP.c
                  __pa_72   0x002d4e    program     static C:\Documents and Settings\Administrator\My Documents\Alarm Controller\Microchip\TCPIP Stack\TCP.c
                  __pa_73   0x002d62    program     static C:\Documents and Settings\Administrator\My Documents\Alarm Controller\Microchip\TCPIP Stack\TCP.c
                  __pa_74   0x002d76    program     static C:\Documents and Settings\Administrator\My Documents\Alarm Controller\Microchip\TCPIP Stack\TCP.c
                  __pa_75   0x002d8a    program     static C:\Documents and Settings\Administrator\My Documents\Alarm Controller\Microchip\TCPIP Stack\TCP.c
                  __pa_76   0x002d92    program     static C:\Documents and Settings\Administrator\My Documents\Alarm Controller\Microchip\TCPIP Stack\TCP.c
                  __pa_77   0x002da4    program     static C:\Documents and Settings\Administrator\My Documents\Alarm Controller\Microchip\TCPIP Stack\TCP.c
                  __pa_78   0x002db6    program     static C:\Documents and Settings\Administrator\My Documents\Alarm Controller\Microchip\TCPIP Stack\TCP.c
                  __pa_79   0x002dc8    program     static C:\Documents and Settings\Administrator\My Documents\Alarm Controller\Microchip\TCPIP Stack\TCP.c
                  __pa_80   0x002dda    program     static C:\Documents and Settings\Administrator\My Documents\Alarm Controller\Microchip\TCPIP Stack\TCP.c
             __tmplbl_142   0x002de2    program     static                          
                  __pa_81   0x002de2    program     static C:\Documents and Settings\Administrator\My Documents\Alarm Controller\Microchip\TCPIP Stack\TCP.c
              __tmplbl_89   0x002de2    program     static                          
              __tmplbl_87   0x002de2    program     static                          
                  __pa_82   0x002dea    program     static C:\Documents and Settings\Administrator\My Documents\Alarm Controller\Microchip\TCPIP Stack\TCP.c
                  __pa_83   0x002df4    program     static C:\Documents and Settings\Administrator\My Documents\Alarm Controller\Microchip\TCPIP Stack\TCP.c
                  __pa_84   0x002dfe    program     static C:\Documents and Settings\Administrator\My Documents\Alarm Controller\Microchip\TCPIP Stack\TCP.c
                  __pa_85   0x002e06    program     static C:\Documents and Settings\Administrator\My Documents\Alarm Controller\Microchip\TCPIP Stack\TCP.c
                  __pa_86   0x002e16    program     static C:\Documents and Settings\Administrator\My Documents\Alarm Controller\Microchip\TCPIP Stack\TCP.c
                  __pa_87   0x002e26    program     static C:\Documents and Settings\Administrator\My Documents\Alarm Controller\Microchip\TCPIP Stack\TCP.c
                  __pa_88   0x002e36    program     static C:\Documents and Settings\Administrator\My Documents\Alarm Controller\Microchip\TCPIP Stack\TCP.c
                  __pa_89   0x002e3e    program     static C:\Documents and Settings\Administrator\My Documents\Alarm Controller\Microchip\TCPIP Stack\TCP.c
                  __pa_90   0x002e46    program     static C:\Documents and Settings\Administrator\My Documents\Alarm Controller\Microchip\TCPIP Stack\TCP.c
                  __pa_91   0x002e54    program     static C:\Documents and Settings\Administrator\My Documents\Alarm Controller\Microchip\TCPIP Stack\TCP.c
                  __pa_92   0x002e62    program     static C:\Documents and Settings\Administrator\My Documents\Alarm Controller\Microchip\TCPIP Stack\TCP.c
                  __pa_93   0x002e70    program     static C:\Documents and Settings\Administrator\My Documents\Alarm Controller\Microchip\TCPIP Stack\TCP.c
                  __pa_94   0x002e7e    program     static C:\Documents and Settings\Administrator\My Documents\Alarm Controller\Microchip\TCPIP Stack\TCP.c
                  __pa_95   0x002e8c    program     static C:\Documents and Settings\Administrator\My Documents\Alarm Controller\Microchip\TCPIP Stack\TCP.c
                  __pa_96   0x002e9a    program     static C:\Documents and Settings\Administrator\My Documents\Alarm Controller\Microchip\TCPIP Stack\TCP.c
                  __pa_97   0x002ea8    program     static C:\Documents and Settings\Administrator\My Documents\Alarm Controller\Microchip\TCPIP Stack\TCP.c
                  __pa_98   0x002eb6    program     static C:\Documents and Settings\Administrator\My Documents\Alarm Controller\Microchip\TCPIP Stack\TCP.c
                  __pa_99   0x002ec0    program     static C:\Documents and Settings\Administrator\My Documents\Alarm Controller\Microchip\TCPIP Stack\TCP.c
                 __pa_100   0x002eca    program     static C:\Documents and Settings\Administrator\My Documents\Alarm Controller\Microchip\TCPIP Stack\TCP.c
                 __pa_101   0x002ed4    program     static C:\Documents and Settings\Administrator\My Documents\Alarm Controller\Microchip\TCPIP Stack\TCP.c
                 __pa_102   0x002ede    program     static C:\Documents and Settings\Administrator\My Documents\Alarm Controller\Microchip\TCPIP Stack\TCP.c
                 __pa_103   0x002ee8    program     static C:\Documents and Settings\Administrator\My Documents\Alarm Controller\Microchip\TCPIP Stack\TCP.c
                 __pa_104   0x002ef2    program     static C:\Documents and Settings\Administrator\My Documents\Alarm Controller\Microchip\TCPIP Stack\TCP.c
                 __pa_105   0x002efc    program     static C:\Documents and Settings\Administrator\My Documents\Alarm Controller\Microchip\TCPIP Stack\TCP.c
                 __pa_106   0x002f04    program     static C:\Documents and Settings\Administrator\My Documents\Alarm Controller\Microchip\TCPIP Stack\TCP.c
                 __pa_107   0x002f10    program     static C:\Documents and Settings\Administrator\My Documents\Alarm Controller\Microchip\TCPIP Stack\TCP.c
                 __pa_108   0x002f1c    program     static C:\Documents and Settings\Administrator\My Documents\Alarm Controller\Microchip\TCPIP Stack\TCP.c
                 __pa_109   0x002f24    program     static C:\Documents and Settings\Administrator\My Documents\Alarm Controller\Microchip\TCPIP Stack\TCP.c
                 __pa_110   0x002f3c    program     static C:\Documents and Settings\Administrator\My Documents\Alarm Controller\Microchip\TCPIP Stack\TCP.c
                 __pa_111   0x002f52    program     static C:\Documents and Settings\Administrator\My Documents\Alarm Controller\Microchip\TCPIP Stack\TCP.c
                 __pa_112   0x002f5c    program     static C:\Documents and Settings\Administrator\My Documents\Alarm Controller\Microchip\TCPIP Stack\TCP.c
                 __pa_113   0x002f64    program     static C:\Documents and Settings\Administrator\My Documents\Alarm Controller\Microchip\TCPIP Stack\TCP.c
                 __pa_114   0x002f76    program     static C:\Documents and Settings\Administrator\My Documents\Alarm Controller\Microchip\TCPIP Stack\TCP.c
                 __pa_115   0x002f82    program     static C:\Documents and Settings\Administrator\My Documents\Alarm Controller\Microchip\TCPIP Stack\TCP.c
                 __pa_116   0x002f88    program     static C:\Documents and Settings\Administrator\My Documents\Alarm Controller\Microchip\TCPIP Stack\TCP.c
                 __pa_117   0x002f92    program     static C:\Documents and Settings\Administrator\My Documents\Alarm Controller\Microchip\TCPIP Stack\TCP.c
                 __pa_118   0x002f9c    program     static C:\Documents and Settings\Administrator\My Documents\Alarm Controller\Microchip\TCPIP Stack\TCP.c
                 __pa_119   0x002fa4    program     static C:\Documents and Settings\Administrator\My Documents\Alarm Controller\Microchip\TCPIP Stack\TCP.c
                 __pa_120   0x002fae    program     static C:\Documents and Settings\Administrator\My Documents\Alarm Controller\Microchip\TCPIP Stack\TCP.c
                 __pa_121   0x002fc4    program     static C:\Documents and Settings\Administrator\My Documents\Alarm Controller\Microchip\TCPIP Stack\TCP.c
                 __pa_122   0x002fce    program     static C:\Documents and Settings\Administrator\My Documents\Alarm Controller\Microchip\TCPIP Stack\TCP.c
                 __pa_123   0x002fda    program     static C:\Documents and Settings\Administrator\My Documents\Alarm Controller\Microchip\TCPIP Stack\TCP.c
                 __pa_124   0x002fe2    program     static C:\Documents and Settings\Administrator\My Documents\Alarm Controller\Microchip\TCPIP Stack\TCP.c
                 __pa_125   0x002ff6    program     static C:\Documents and Settings\Administrator\My Documents\Alarm Controller\Microchip\TCPIP Stack\TCP.c
                 __pa_126   0x00300a    program     static C:\Documents and Settings\Administrator\My Documents\Alarm Controller\Microchip\TCPIP Stack\TCP.c
                 __pa_127   0x003016    program     static C:\Documents and Settings\Administrator\My Documents\Alarm Controller\Microchip\TCPIP Stack\TCP.c
                 __pa_128   0x00301e    program     static C:\Documents and Settings\Administrator\My Documents\Alarm Controller\Microchip\TCPIP Stack\TCP.c
                 __pa_129   0x003030    program     static C:\Documents and Settings\Administrator\My Documents\Alarm Controller\Microchip\TCPIP Stack\TCP.c
                 __pa_130   0x003044    program     static C:\Documents and Settings\Administrator\My Documents\Alarm Controller\Microchip\TCPIP Stack\TCP.c
                 __pa_131   0x003054    program     static C:\Documents and Settings\Administrator\My Documents\Alarm Controller\Microchip\TCPIP Stack\TCP.c
                 __pa_132   0x00305a    program     static C:\Documents and Settings\Administrator\My Documents\Alarm Controller\Microchip\TCPIP Stack\TCP.c
                 __pa_133   0x003068    program     static C:\Documents and Settings\Administrator\My Documents\Alarm Controller\Microchip\TCPIP Stack\TCP.c
                 __pa_134   0x003078    program     static C:\Documents and Settings\Administrator\My Documents\Alarm Controller\Microchip\TCPIP Stack\TCP.c
                 __pa_135   0x00308a    program     static C:\Documents and Settings\Administrator\My Documents\Alarm Controller\Microchip\TCPIP Stack\TCP.c
                 __pa_136   0x00309c    program     static C:\Documents and Settings\Administrator\My Documents\Alarm Controller\Microchip\TCPIP Stack\TCP.c
                 __pa_137   0x0030a8    program     static C:\Documents and Settings\Administrator\My Documents\Alarm Controller\Microchip\TCPIP Stack\TCP.c
                 __pa_138   0x0030b4    program     static C:\Documents and Settings\Administrator\My Documents\Alarm Controller\Microchip\TCPIP Stack\TCP.c
                 __pa_139   0x0030bc    program     static C:\Documents and Settings\Administrator\My Documents\Alarm Controller\Microchip\TCPIP Stack\TCP.c
                 __pa_140   0x0030c2    program     static C:\Documents and Settings\Administrator\My Documents\Alarm Controller\Microchip\TCPIP Stack\TCP.c
                 __pa_141   0x0030ca    program     static C:\Documents and Settings\Administrator\My Documents\Alarm Controller\Microchip\TCPIP Stack\TCP.c
                 __pa_142   0x0030d4    program     static C:\Documents and Settings\Administrator\My Documents\Alarm Controller\Microchip\TCPIP Stack\TCP.c
                 __pa_143   0x0030e2    program     static C:\Documents and Settings\Administrator\My Documents\Alarm Controller\Microchip\TCPIP Stack\TCP.c
                 __pa_144   0x0030f0    program     static C:\Documents and Settings\Administrator\My Documents\Alarm Controller\Microchip\TCPIP Stack\TCP.c
                 __pa_145   0x0030f8    program     static C:\Documents and Settings\Administrator\My Documents\Alarm Controller\Microchip\TCPIP Stack\TCP.c
                 __pa_146   0x003104    program     static C:\Documents and Settings\Administrator\My Documents\Alarm Controller\Microchip\TCPIP Stack\TCP.c
                 __pa_147   0x00310c    program     static C:\Documents and Settings\Administrator\My Documents\Alarm Controller\Microchip\TCPIP Stack\TCP.c
                 __pa_148   0x003118    program     static C:\Documents and Settings\Administrator\My Documents\Alarm Controller\Microchip\TCPIP Stack\TCP.c
                 __pa_149   0x003124    program     static C:\Documents and Settings\Administrator\My Documents\Alarm Controller\Microchip\TCPIP Stack\TCP.c
                 __pa_150   0x003132    program     static C:\Documents and Settings\Administrator\My Documents\Alarm Controller\Microchip\TCPIP Stack\TCP.c
                 __pa_151   0x003140    program     static C:\Documents and Settings\Administrator\My Documents\Alarm Controller\Microchip\TCPIP Stack\TCP.c
                 __pa_152   0x00314e    program     static C:\Documents and Settings\Administrator\My Documents\Alarm Controller\Microchip\TCPIP Stack\TCP.c
                 __pa_153   0x003154    program     static C:\Documents and Settings\Administrator\My Documents\Alarm Controller\Microchip\TCPIP Stack\TCP.c
                 __pa_154   0x00315e    program     static C:\Documents and Settings\Administrator\My Documents\Alarm Controller\Microchip\TCPIP Stack\TCP.c
                 __pa_155   0x003166    program     static C:\Documents and Settings\Administrator\My Documents\Alarm Controller\Microchip\TCPIP Stack\TCP.c
                 __pa_156   0x003170    program     static C:\Documents and Settings\Administrator\My Documents\Alarm Controller\Microchip\TCPIP Stack\TCP.c
                 __pa_157   0x00317a    program     static C:\Documents and Settings\Administrator\My Documents\Alarm Controller\Microchip\TCPIP Stack\TCP.c
                 __pa_158   0x003184    program     static C:\Documents and Settings\Administrator\My Documents\Alarm Controller\Microchip\TCPIP Stack\TCP.c
                 __pa_159   0x00318c    program     static C:\Documents and Settings\Administrator\My Documents\Alarm Controller\Microchip\TCPIP Stack\TCP.c
                 __pa_160   0x00319a    program     static C:\Documents and Settings\Administrator\My Documents\Alarm Controller\Microchip\TCPIP Stack\TCP.c
                 __pa_161   0x0031aa    program     static C:\Documents and Settings\Administrator\My Documents\Alarm Controller\Microchip\TCPIP Stack\TCP.c
                 __pa_162   0x0031b0    program     static C:\Documents and Settings\Administrator\My Documents\Alarm Controller\Microchip\TCPIP Stack\TCP.c
                 __pa_163   0x0031bc    program     static C:\Documents and Settings\Administrator\My Documents\Alarm Controller\Microchip\TCPIP Stack\TCP.c
                 __pa_164   0x0031c4    program     static C:\Documents and Settings\Administrator\My Documents\Alarm Controller\Microchip\TCPIP Stack\TCP.c
                 __pa_165   0x0031cc    program     static C:\Documents and Settings\Administrator\My Documents\Alarm Controller\Microchip\TCPIP Stack\TCP.c
                 __pa_166   0x0031d6    program     static C:\Documents and Settings\Administrator\My Documents\Alarm Controller\Microchip\TCPIP Stack\TCP.c
                 __pa_167   0x0031e2    program     static C:\Documents and Settings\Administrator\My Documents\Alarm Controller\Microchip\TCPIP Stack\TCP.c
                 __pa_168   0x0031e8    program     static C:\Documents and Settings\Administrator\My Documents\Alarm Controller\Microchip\TCPIP Stack\TCP.c
                 __pa_169   0x0031f0    program     static C:\Documents and Settings\Administrator\My Documents\Alarm Controller\Microchip\TCPIP Stack\TCP.c
               __string_3   0x0031fa    program     static C:\Documents and Settings\Administrator\My Documents\Alarm Controller\PIC Code\MainDemo.c
               __string_2   0x003205    program     static C:\Documents and Settings\Administrator\My Documents\Alarm Controller\PIC Code\MainDemo.c
               __string_1   0x003252    program     static C:\Documents and Settings\Administrator\My Documents\Alarm Controller\PIC Code\MainDemo.c
               __string_0   0x0032ae    program     static C:\Documents and Settings\Administrator\My Documents\Alarm Controller\PIC Code\MainDemo.c
              __string_52   0x0032cf    program     static C:\Documents and Settings\Administrator\My Documents\Alarm Controller\Microchip\TCPIP Stack\HTTP2.c
              __string_51   0x0032da    program     static C:\Documents and Settings\Administrator\My Documents\Alarm Controller\Microchip\TCPIP Stack\HTTP2.c
              __string_50   0x0032df    program     static C:\Documents and Settings\Administrator\My Documents\Alarm Controller\Microchip\TCPIP Stack\HTTP2.c
              __string_49   0x0032e3    program     static C:\Documents and Settings\Administrator\My Documents\Alarm Controller\Microchip\TCPIP Stack\HTTP2.c
              __string_48   0x0032ec    program     static C:\Documents and Settings\Administrator\My Documents\Alarm Controller\Microchip\TCPIP Stack\HTTP2.c
              __string_47   0x0032f5    program     static C:\Documents and Settings\Administrator\My Documents\Alarm Controller\Microchip\TCPIP Stack\HTTP2.c
              __string_46   0x003305    program     static C:\Documents and Settings\Administrator\My Documents\Alarm Controller\Microchip\TCPIP Stack\HTTP2.c
              __string_45   0x00331e    program     static C:\Documents and Settings\Administrator\My Documents\Alarm Controller\Microchip\TCPIP Stack\HTTP2.c
              __string_44   0x00332d    program     static C:\Documents and Settings\Administrator\My Documents\Alarm Controller\Microchip\TCPIP Stack\HTTP2.c
              __string_43   0x003340    program     static C:\Documents and Settings\Administrator\My Documents\Alarm Controller\Microchip\TCPIP Stack\HTTP2.c
              __string_42   0x00334a    program     static C:\Documents and Settings\Administrator\My Documents\Alarm Controller\Microchip\TCPIP Stack\HTTP2.c
              __string_41   0x003355    program     static C:\Documents and Settings\Administrator\My Documents\Alarm Controller\Microchip\TCPIP Stack\HTTP2.c
              __string_40   0x00335a    program     static C:\Documents and Settings\Administrator\My Documents\Alarm Controller\Microchip\TCPIP Stack\HTTP2.c
              __string_39   0x00335e    program     static C:\Documents and Settings\Administrator\My Documents\Alarm Controller\Microchip\TCPIP Stack\HTTP2.c
              __string_38   0x00336e    program     static C:\Documents and Settings\Administrator\My Documents\Alarm Controller\Microchip\TCPIP Stack\HTTP2.c
              __string_37   0x00337d    program     static C:\Documents and Settings\Administrator\My Documents\Alarm Controller\Microchip\TCPIP Stack\HTTP2.c
              __string_36   0x003385    program     static C:\Documents and Settings\Administrator\My Documents\Alarm Controller\Microchip\TCPIP Stack\HTTP2.c
              __string_35   0x0033dc    program     static C:\Documents and Settings\Administrator\My Documents\Alarm Controller\Microchip\TCPIP Stack\HTTP2.c
              __string_34   0x00340e    program     static C:\Documents and Settings\Administrator\My Documents\Alarm Controller\Microchip\TCPIP Stack\HTTP2.c
              __string_33   0x0034e1    program     static C:\Documents and Settings\Administrator\My Documents\Alarm Controller\Microchip\TCPIP Stack\HTTP2.c
              __string_32   0x00358e    program     static C:\Documents and Settings\Administrator\My Documents\Alarm Controller\Microchip\TCPIP Stack\HTTP2.c
              __string_31   0x0036ae    program     static C:\Documents and Settings\Administrator\My Documents\Alarm Controller\Microchip\TCPIP Stack\HTTP2.c
              __string_30   0x003714    program     static C:\Documents and Settings\Administrator\My Documents\Alarm Controller\Microchip\TCPIP Stack\HTTP2.c
              __string_29   0x003784    program     static C:\Documents and Settings\Administrator\My Documents\Alarm Controller\Microchip\TCPIP Stack\HTTP2.c
              __string_28   0x0037f1    program     static C:\Documents and Settings\Administrator\My Documents\Alarm Controller\Microchip\TCPIP Stack\HTTP2.c
              __string_27   0x00388f    program     static C:\Documents and Settings\Administrator\My Documents\Alarm Controller\Microchip\TCPIP Stack\HTTP2.c
              __string_26   0x003910    program     static C:\Documents and Settings\Administrator\My Documents\Alarm Controller\Microchip\TCPIP Stack\HTTP2.c
              __string_25   0x003935    program     static C:\Documents and Settings\Administrator\My Documents\Alarm Controller\Microchip\TCPIP Stack\HTTP2.c
              __string_24   0x003936    program     static C:\Documents and Settings\Administrator\My Documents\Alarm Controller\Microchip\TCPIP Stack\HTTP2.c
              __string_23   0x003943    program     static C:\Documents and Settings\Administrator\My Documents\Alarm Controller\Microchip\TCPIP Stack\HTTP2.c
              __string_22   0x003957    program     static C:\Documents and Settings\Administrator\My Documents\Alarm Controller\Microchip\TCPIP Stack\HTTP2.c
              __string_21   0x003962    program     static C:\Documents and Settings\Administrator\My Documents\Alarm Controller\Microchip\TCPIP Stack\HTTP2.c
              __string_20   0x00396c    program     static C:\Documents and Settings\Administrator\My Documents\Alarm Controller\Microchip\TCPIP Stack\HTTP2.c
              __string_19   0x003976    program     static C:\Documents and Settings\Administrator\My Documents\Alarm Controller\Microchip\TCPIP Stack\HTTP2.c
              __string_18   0x00397f    program     static C:\Documents and Settings\Administrator\My Documents\Alarm Controller\Microchip\TCPIP Stack\HTTP2.c
              __string_17   0x003988    program     static C:\Documents and Settings\Administrator\My Documents\Alarm Controller\Microchip\TCPIP Stack\HTTP2.c
              __string_16   0x003992    program     static C:\Documents and Settings\Administrator\My Documents\Alarm Controller\Microchip\TCPIP Stack\HTTP2.c
              __string_15   0x00399d    program     static C:\Documents and Settings\Administrator\My Documents\Alarm Controller\Microchip\TCPIP Stack\HTTP2.c
              __string_14   0x0039a1    program     static C:\Documents and Settings\Administrator\My Documents\Alarm Controller\Microchip\TCPIP Stack\HTTP2.c
              __string_13   0x0039a5    program     static C:\Documents and Settings\Administrator\My Documents\Alarm Controller\Microchip\TCPIP Stack\HTTP2.c
              __string_12   0x0039a9    program     static C:\Documents and Settings\Administrator\My Documents\Alarm Controller\Microchip\TCPIP Stack\HTTP2.c
              __string_11   0x0039ad    program     static C:\Documents and Settings\Administrator\My Documents\Alarm Controller\Microchip\TCPIP Stack\HTTP2.c
              __string_10   0x0039b1    program     static C:\Documents and Settings\Administrator\My Documents\Alarm Controller\Microchip\TCPIP Stack\HTTP2.c
               __string_9   0x0039b5    program     static C:\Documents and Settings\Administrator\My Documents\Alarm Controller\Microchip\TCPIP Stack\HTTP2.c
               __string_8   0x0039b9    program     static C:\Documents and Settings\Administrator\My Documents\Alarm Controller\Microchip\TCPIP Stack\HTTP2.c
               __string_7   0x0039bd    program     static C:\Documents and Settings\Administrator\My Documents\Alarm Controller\Microchip\TCPIP Stack\HTTP2.c
               __string_6   0x0039c1    program     static C:\Documents and Settings\Administrator\My Documents\Alarm Controller\Microchip\TCPIP Stack\HTTP2.c
               __string_5   0x0039c6    program     static C:\Documents and Settings\Administrator\My Documents\Alarm Controller\Microchip\TCPIP Stack\HTTP2.c
               __string_4   0x0039ca    program     static C:\Documents and Settings\Administrator\My Documents\Alarm Controller\Microchip\TCPIP Stack\HTTP2.c
               __string_2   0x0039ce    program     static C:\Documents and Settings\Administrator\My Documents\Alarm Controller\Microchip\TCPIP Stack\HTTP2.c
               __string_1   0x0039d3    program     static C:\Documents and Settings\Administrator\My Documents\Alarm Controller\Microchip\TCPIP Stack\HTTP2.c
               __string_0   0x0039de    program     static C:\Documents and Settings\Administrator\My Documents\Alarm Controller\Microchip\TCPIP Stack\HTTP2.c
               __string_0   0x0039e9    program     static C:\Documents and Settings\Administrator\My Documents\Alarm Controller\Microchip\TCPIP Stack\MPFS2.c
              __string_14   0x0039f0    program     static C:\Documents and Settings\Administrator\My Documents\Alarm Controller\Microchip\TCPIP Stack\SMTP.c
              __string_13   0x0039f7    program     static C:\Documents and Settings\Administrator\My Documents\Alarm Controller\Microchip\TCPIP Stack\SMTP.c
              __string_12   0x0039fb    program     static C:\Documents and Settings\Administrator\My Documents\Alarm Controller\Microchip\TCPIP Stack\SMTP.c
              __string_11   0x003a01    program     static C:\Documents and Settings\Administrator\My Documents\Alarm Controller\Microchip\TCPIP Stack\SMTP.c
              __string_10   0x003a0d    program     static C:\Documents and Settings\Administrator\My Documents\Alarm Controller\Microchip\TCPIP Stack\SMTP.c
               __string_9   0x003a14    program     static C:\Documents and Settings\Administrator\My Documents\Alarm Controller\Microchip\TCPIP Stack\SMTP.c
               __string_8   0x003a1b    program     static C:\Documents and Settings\Administrator\My Documents\Alarm Controller\Microchip\TCPIP Stack\SMTP.c
               __string_7   0x003a22    program     static C:\Documents and Settings\Administrator\My Documents\Alarm Controller\Microchip\TCPIP Stack\SMTP.c
               __string_6   0x003a29    program     static C:\Documents and Settings\Administrator\My Documents\Alarm Controller\Microchip\TCPIP Stack\SMTP.c
               __string_5   0x003a33    program     static C:\Documents and Settings\Administrator\My Documents\Alarm Controller\Microchip\TCPIP Stack\SMTP.c
               __string_4   0x003a37    program     static C:\Documents and Settings\Administrator\My Documents\Alarm Controller\Microchip\TCPIP Stack\SMTP.c
               __string_3   0x003a43    program     static C:\Documents and Settings\Administrator\My Documents\Alarm Controller\Microchip\TCPIP Stack\SMTP.c
               __string_2   0x003a46    program     static C:\Documents and Settings\Administrator\My Documents\Alarm Controller\Microchip\TCPIP Stack\SMTP.c
               __string_1   0x003a53    program     static C:\Documents and Settings\Administrator\My Documents\Alarm Controller\Microchip\TCPIP Stack\SMTP.c
               __string_0   0x003a64    program     static C:\Documents and Settings\Administrator\My Documents\Alarm Controller\Microchip\TCPIP Stack\SMTP.c
              __string_97   0x003a75    program     static C:\Documents and Settings\Administrator\My Documents\Alarm Controller\PIC Code\xPL.c
              __string_96   0x003a82    program     static C:\Documents and Settings\Administrator\My Documents\Alarm Controller\PIC Code\xPL.c
              __string_95   0x003a8c    program     static C:\Documents and Settings\Administrator\My Documents\Alarm Controller\PIC Code\xPL.c
              __string_94   0x003aa9    program     static C:\Documents and Settings\Administrator\My Documents\Alarm Controller\PIC Code\xPL.c
              __string_93   0x003abc    program     static C:\Documents and Settings\Administrator\My Documents\Alarm Controller\PIC Code\xPL.c
              __string_92   0x003acb    program     static C:\Documents and Settings\Administrator\My Documents\Alarm Controller\PIC Code\xPL.c
              __string_91   0x003af6    program     static C:\Documents and Settings\Administrator\My Documents\Alarm Controller\PIC Code\xPL.c
              __string_90   0x003b29    program     static C:\Documents and Settings\Administrator\My Documents\Alarm Controller\PIC Code\xPL.c
              __string_89   0x003b37    program     static C:\Documents and Settings\Administrator\My Documents\Alarm Controller\PIC Code\xPL.c
              __string_88   0x003b5b    program     static C:\Documents and Settings\Administrator\My Documents\Alarm Controller\PIC Code\xPL.c
              __string_87   0x003b70    program     static C:\Documents and Settings\Administrator\My Documents\Alarm Controller\PIC Code\xPL.c
              __string_86   0x003b85    program     static C:\Documents and Settings\Administrator\My Documents\Alarm Controller\PIC Code\xPL.c
              __string_85   0x003ba4    program     static C:\Documents and Settings\Administrator\My Documents\Alarm Controller\PIC Code\xPL.c
              __string_84   0x003bba    program     static C:\Documents and Settings\Administrator\My Documents\Alarm Controller\PIC Code\xPL.c
              __string_83   0x003bcf    program     static C:\Documents and Settings\Administrator\My Documents\Alarm Controller\PIC Code\xPL.c
              __string_82   0x003bfc    program     static C:\Documents and Settings\Administrator\My Documents\Alarm Controller\PIC Code\xPL.c
              __string_81   0x003c27    program     static C:\Documents and Settings\Administrator\My Documents\Alarm Controller\PIC Code\xPL.c
              __string_80   0x003c52    program     static C:\Documents and Settings\Administrator\My Documents\Alarm Controller\PIC Code\xPL.c
              __string_79   0x003c75    program     static C:\Documents and Settings\Administrator\My Documents\Alarm Controller\PIC Code\xPL.c
              __string_78   0x003ca1    program     static C:\Documents and Settings\Administrator\My Documents\Alarm Controller\PIC Code\xPL.c
              __string_77   0x003cc5    program     static C:\Documents and Settings\Administrator\My Documents\Alarm Controller\PIC Code\xPL.c
              __string_76   0x003cc9    program     static C:\Documents and Settings\Administrator\My Documents\Alarm Controller\PIC Code\xPL.c
              __string_75   0x003cd8    program     static C:\Documents and Settings\Administrator\My Documents\Alarm Controller\PIC Code\xPL.c
              __string_74   0x003d1b    program     static C:\Documents and Settings\Administrator\My Documents\Alarm Controller\PIC Code\xPL.c
              __string_73   0x003d30    program     static C:\Documents and Settings\Administrator\My Documents\Alarm Controller\PIC Code\xPL.c
              __string_72   0x003d43    program     static C:\Documents and Settings\Administrator\My Documents\Alarm Controller\PIC Code\xPL.c
              __string_71   0x003d5c    program     static C:\Documents and Settings\Administrator\My Documents\Alarm Controller\PIC Code\xPL.c
              __string_70   0x003d8a    program     static C:\Documents and Settings\Administrator\My Documents\Alarm Controller\PIC Code\xPL.c
              __string_69   0x003db7    program     static C:\Documents and Settings\Administrator\My Documents\Alarm Controller\PIC Code\xPL.c
              __string_68   0x003ddd    program     static C:\Documents and Settings\Administrator\My Documents\Alarm Controller\PIC Code\xPL.c
              __string_67   0x003dfb    program     static C:\Documents and Settings\Administrator\My Documents\Alarm Controller\PIC Code\xPL.c
              __string_66   0x003dfd    program     static C:\Documents and Settings\Administrator\My Documents\Alarm Controller\PIC Code\xPL.c
              __string_65   0x003e1b    program     static C:\Documents and Settings\Administrator\My Documents\Alarm Controller\PIC Code\xPL.c
              __string_64   0x003e26    program     static C:\Documents and Settings\Administrator\My Documents\Alarm Controller\PIC Code\xPL.c
              __string_63   0x003e2f    program     static C:\Documents and Settings\Administrator\My Documents\Alarm Controller\PIC Code\xPL.c
              __string_62   0x003e49    program     static C:\Documents and Settings\Administrator\My Documents\Alarm Controller\PIC Code\xPL.c
              __string_61   0x003e79    program     static C:\Documents and Settings\Administrator\My Documents\Alarm Controller\PIC Code\xPL.c
              __string_60   0x003ea7    program     static C:\Documents and Settings\Administrator\My Documents\Alarm Controller\PIC Code\xPL.c
              __string_59   0x003ed5    program     static C:\Documents and Settings\Administrator\My Documents\Alarm Controller\PIC Code\xPL.c
              __string_58   0x003ef3    program     static C:\Documents and Settings\Administrator\My Documents\Alarm Controller\PIC Code\xPL.c
              __string_57   0x003f1e    program     static C:\Documents and Settings\Administrator\My Documents\Alarm Controller\PIC Code\xPL.c
              __string_56   0x003f4f    program     static C:\Documents and Settings\Administrator\My Documents\Alarm Controller\PIC Code\xPL.c
              __string_55   0x003f67    program     static C:\Documents and Settings\Administrator\My Documents\Alarm Controller\PIC Code\xPL.c
              __string_54   0x003f92    program     static C:\Documents and Settings\Administrator\My Documents\Alarm Controller\PIC Code\xPL.c
              __string_53   0x003fb5    program     static C:\Documents and Settings\Administrator\My Documents\Alarm Controller\PIC Code\xPL.c
              __string_52   0x003fdb    program     static C:\Documents and Settings\Administrator\My Documents\Alarm Controller\PIC Code\xPL.c
              __string_51   0x003fe7    program     static C:\Documents and Settings\Administrator\My Documents\Alarm Controller\PIC Code\xPL.c
              __string_50   0x003ff7    program     static C:\Documents and Settings\Administrator\My Documents\Alarm Controller\PIC Code\xPL.c
              __string_49   0x003fff    program     static C:\Documents and Settings\Administrator\My Documents\Alarm Controller\PIC Code\xPL.c
              __string_48   0x004013    program     static C:\Documents and Settings\Administrator\My Documents\Alarm Controller\PIC Code\xPL.c
              __string_47   0x004016    program     static C:\Documents and Settings\Administrator\My Documents\Alarm Controller\PIC Code\xPL.c
              __string_46   0x004025    program     static C:\Documents and Settings\Administrator\My Documents\Alarm Controller\PIC Code\xPL.c
              __string_45   0x004034    program     static C:\Documents and Settings\Administrator\My Documents\Alarm Controller\PIC Code\xPL.c
              __string_44   0x004044    program     static C:\Documents and Settings\Administrator\My Documents\Alarm Controller\PIC Code\xPL.c
              __string_43   0x004054    program     static C:\Documents and Settings\Administrator\My Documents\Alarm Controller\PIC Code\xPL.c
              __string_42   0x004058    program     static C:\Documents and Settings\Administrator\My Documents\Alarm Controller\PIC Code\xPL.c
              __string_41   0x004061    program     static C:\Documents and Settings\Administrator\My Documents\Alarm Controller\PIC Code\xPL.c
              __string_40   0x004072    program     static C:\Documents and Settings\Administrator\My Documents\Alarm Controller\PIC Code\xPL.c
              __string_39   0x004076    program     static C:\Documents and Settings\Administrator\My Documents\Alarm Controller\PIC Code\xPL.c
              __string_38   0x004080    program     static C:\Documents and Settings\Administrator\My Documents\Alarm Controller\PIC Code\xPL.c
              __string_37   0x0040b1    program     static C:\Documents and Settings\Administrator\My Documents\Alarm Controller\PIC Code\xPL.c
              __string_36   0x0040ea    program     static C:\Documents and Settings\Administrator\My Documents\Alarm Controller\PIC Code\xPL.c
              __string_35   0x0040f0    program     static C:\Documents and Settings\Administrator\My Documents\Alarm Controller\PIC Code\xPL.c
              __string_34   0x004100    program     static C:\Documents and Settings\Administrator\My Documents\Alarm Controller\PIC Code\xPL.c
              __string_33   0x00413b    program     static C:\Documents and Settings\Administrator\My Documents\Alarm Controller\PIC Code\xPL.c
              __string_32   0x004168    program     static C:\Documents and Settings\Administrator\My Documents\Alarm Controller\PIC Code\xPL.c
              __string_31   0x004194    program     static C:\Documents and Settings\Administrator\My Documents\Alarm Controller\PIC Code\xPL.c
              __string_30   0x0041bd    program     static C:\Documents and Settings\Administrator\My Documents\Alarm Controller\PIC Code\xPL.c
              __string_29   0x0041ce    program     static C:\Documents and Settings\Administrator\My Documents\Alarm Controller\PIC Code\xPL.c
              __string_28   0x0041d7    program     static C:\Documents and Settings\Administrator\My Documents\Alarm Controller\PIC Code\xPL.c
              __string_27   0x0041e0    program     static C:\Documents and Settings\Administrator\My Documents\Alarm Controller\PIC Code\xPL.c
              __string_26   0x0041e9    program     static C:\Documents and Settings\Administrator\My Documents\Alarm Controller\PIC Code\xPL.c
              __string_25   0x0041f2    program     static C:\Documents and Settings\Administrator\My Documents\Alarm Controller\PIC Code\xPL.c
              __string_24   0x0041fb    program     static C:\Documents and Settings\Administrator\My Documents\Alarm Controller\PIC Code\xPL.c
              __string_23   0x004204    program     static C:\Documents and Settings\Administrator\My Documents\Alarm Controller\PIC Code\xPL.c
              __string_22   0x00420d    program     static C:\Documents and Settings\Administrator\My Documents\Alarm Controller\PIC Code\xPL.c
              __string_21   0x004216    program     static C:\Documents and Settings\Administrator\My Documents\Alarm Controller\PIC Code\xPL.c
              __string_20   0x00421e    program     static C:\Documents and Settings\Administrator\My Documents\Alarm Controller\PIC Code\xPL.c
              __string_19   0x004223    program     static C:\Documents and Settings\Administrator\My Documents\Alarm Controller\PIC Code\xPL.c
              __string_18   0x004228    program     static C:\Documents and Settings\Administrator\My Documents\Alarm Controller\PIC Code\xPL.c
              __string_17   0x004230    program     static C:\Documents and Settings\Administrator\My Documents\Alarm Controller\PIC Code\xPL.c
              __string_16   0x004238    program     static C:\Documents and Settings\Administrator\My Documents\Alarm Controller\PIC Code\xPL.c
              __string_15   0x004241    program     static C:\Documents and Settings\Administrator\My Documents\Alarm Controller\PIC Code\xPL.c
              __string_14   0x004245    program     static C:\Documents and Settings\Administrator\My Documents\Alarm Controller\PIC Code\xPL.c
              __string_13   0x00424a    program     static C:\Documents and Settings\Administrator\My Documents\Alarm Controller\PIC Code\xPL.c
              __string_12   0x004250    program     static C:\Documents and Settings\Administrator\My Documents\Alarm Controller\PIC Code\xPL.c
              __string_11   0x004259    program     static C:\Documents and Settings\Administrator\My Documents\Alarm Controller\PIC Code\xPL.c
              __string_10   0x004260    program     static C:\Documents and Settings\Administrator\My Documents\Alarm Controller\PIC Code\xPL.c
               __string_9   0x004266    program     static C:\Documents and Settings\Administrator\My Documents\Alarm Controller\PIC Code\xPL.c
               __string_8   0x004268    program     static C:\Documents and Settings\Administrator\My Documents\Alarm Controller\PIC Code\xPL.c
               __string_7   0x00426f    program     static C:\Documents and Settings\Administrator\My Documents\Alarm Controller\PIC Code\xPL.c
               __string_6   0x004276    program     static C:\Documents and Settings\Administrator\My Documents\Alarm Controller\PIC Code\xPL.c
               __string_5   0x00427a    program     static C:\Documents and Settings\Administrator\My Documents\Alarm Controller\PIC Code\xPL.c
               __string_4   0x004283    program     static C:\Documents and Settings\Administrator\My Documents\Alarm Controller\PIC Code\xPL.c
               __string_3   0x00428c    program     static C:\Documents and Settings\Administrator\My Documents\Alarm Controller\PIC Code\xPL.c
             __string_108   0x004295    program     static C:\Documents and Settings\Administrator\My Documents\Alarm Controller\PIC Code\SecuritySystem.c
             __string_107   0x0042a8    program     static C:\Documents and Settings\Administrator\My Documents\Alarm Controller\PIC Code\SecuritySystem.c
             __string_106   0x0042bb    program     static C:\Documents and Settings\Administrator\My Documents\Alarm Controller\PIC Code\SecuritySystem.c
             __string_105   0x0042e6    program     static C:\Documents and Settings\Administrator\My Documents\Alarm Controller\PIC Code\SecuritySystem.c
             __string_104   0x0042f4    program     static C:\Documents and Settings\Administrator\My Documents\Alarm Controller\PIC Code\SecuritySystem.c
             __string_103   0x004304    program     static C:\Documents and Settings\Administrator\My Documents\Alarm Controller\PIC Code\SecuritySystem.c
             __string_102   0x00432f    program     static C:\Documents and Settings\Administrator\My Documents\Alarm Controller\PIC Code\SecuritySystem.c
             __string_101   0x00433f    program     static C:\Documents and Settings\Administrator\My Documents\Alarm Controller\PIC Code\SecuritySystem.c
             __string_100   0x004351    program     static C:\Documents and Settings\Administrator\My Documents\Alarm Controller\PIC Code\SecuritySystem.c
              __string_99   0x00435f    program     static C:\Documents and Settings\Administrator\My Documents\Alarm Controller\PIC Code\SecuritySystem.c
              __string_98   0x004374    program     static C:\Documents and Settings\Administrator\My Documents\Alarm Controller\PIC Code\SecuritySystem.c
              __string_97   0x00439f    program     static C:\Documents and Settings\Administrator\My Documents\Alarm Controller\PIC Code\SecuritySystem.c
              __string_96   0x0043ad    program     static C:\Documents and Settings\Administrator\My Documents\Alarm Controller\PIC Code\SecuritySystem.c
              __string_95   0x0043bc    program     static C:\Documents and Settings\Administrator\My Documents\Alarm Controller\PIC Code\SecuritySystem.c
              __string_94   0x0043c2    program     static C:\Documents and Settings\Administrator\My Documents\Alarm Controller\PIC Code\SecuritySystem.c
              __string_93   0x0043ee    program     static C:\Documents and Settings\Administrator\My Documents\Alarm Controller\PIC Code\SecuritySystem.c
              __string_92   0x0043fd    program     static C:\Documents and Settings\Administrator\My Documents\Alarm Controller\PIC Code\SecuritySystem.c
              __string_91   0x00440c    program     static C:\Documents and Settings\Administrator\My Documents\Alarm Controller\PIC Code\SecuritySystem.c
              __string_90   0x004421    program     static C:\Documents and Settings\Administrator\My Documents\Alarm Controller\PIC Code\SecuritySystem.c
              __string_89   0x00444d    program     static C:\Documents and Settings\Administrator\My Documents\Alarm Controller\PIC Code\SecuritySystem.c
              __string_88   0x00445e    program     static C:\Documents and Settings\Administrator\My Documents\Alarm Controller\PIC Code\SecuritySystem.c
              __string_87   0x004477    program     static C:\Documents and Settings\Administrator\My Documents\Alarm Controller\PIC Code\SecuritySystem.c
              __string_86   0x004493    program     static C:\Documents and Settings\Administrator\My Documents\Alarm Controller\PIC Code\SecuritySystem.c
              __string_85   0x0044a4    program     static C:\Documents and Settings\Administrator\My Documents\Alarm Controller\PIC Code\SecuritySystem.c
              __string_84   0x0044ac    program     static C:\Documents and Settings\Administrator\My Documents\Alarm Controller\PIC Code\SecuritySystem.c
              __string_83   0x0044b3    program     static C:\Documents and Settings\Administrator\My Documents\Alarm Controller\PIC Code\SecuritySystem.c
              __string_82   0x0044c0    program     static C:\Documents and Settings\Administrator\My Documents\Alarm Controller\PIC Code\SecuritySystem.c
              __string_81   0x0044c4    program     static C:\Documents and Settings\Administrator\My Documents\Alarm Controller\PIC Code\SecuritySystem.c
              __string_80   0x0044c7    program     static C:\Documents and Settings\Administrator\My Documents\Alarm Controller\PIC Code\SecuritySystem.c
              __string_79   0x0044d2    program     static C:\Documents and Settings\Administrator\My Documents\Alarm Controller\PIC Code\SecuritySystem.c
              __string_78   0x0044db    program     static C:\Documents and Settings\Administrator\My Documents\Alarm Controller\PIC Code\SecuritySystem.c
              __string_77   0x0044e5    program     static C:\Documents and Settings\Administrator\My Documents\Alarm Controller\PIC Code\SecuritySystem.c
              __string_76   0x0044ed    program     static C:\Documents and Settings\Administrator\My Documents\Alarm Controller\PIC Code\SecuritySystem.c
              __string_75   0x00450f    program     static C:\Documents and Settings\Administrator\My Documents\Alarm Controller\PIC Code\SecuritySystem.c
              __string_74   0x004545    program     static C:\Documents and Settings\Administrator\My Documents\Alarm Controller\PIC Code\SecuritySystem.c
              __string_73   0x004593    program     static C:\Documents and Settings\Administrator\My Documents\Alarm Controller\PIC Code\SecuritySystem.c
              __string_72   0x0045b3    program     static C:\Documents and Settings\Administrator\My Documents\Alarm Controller\PIC Code\SecuritySystem.c
              __string_71   0x0045bb    program     static C:\Documents and Settings\Administrator\My Documents\Alarm Controller\PIC Code\SecuritySystem.c
              __string_70   0x0045db    program     static C:\Documents and Settings\Administrator\My Documents\Alarm Controller\PIC Code\SecuritySystem.c
              __string_69   0x0045e3    program     static C:\Documents and Settings\Administrator\My Documents\Alarm Controller\PIC Code\SecuritySystem.c
              __string_68   0x0045e9    program     static C:\Documents and Settings\Administrator\My Documents\Alarm Controller\PIC Code\SecuritySystem.c
              __string_67   0x0045f3    program     static C:\Documents and Settings\Administrator\My Documents\Alarm Controller\PIC Code\SecuritySystem.c
              __string_66   0x0045fd    program     static C:\Documents and Settings\Administrator\My Documents\Alarm Controller\PIC Code\SecuritySystem.c
              __string_65   0x004602    program     static C:\Documents and Settings\Administrator\My Documents\Alarm Controller\PIC Code\SecuritySystem.c
              __string_64   0x004606    program     static C:\Documents and Settings\Administrator\My Documents\Alarm Controller\PIC Code\SecuritySystem.c
              __string_63   0x00460a    program     static C:\Documents and Settings\Administrator\My Documents\Alarm Controller\PIC Code\SecuritySystem.c
              __string_62   0x00462a    program     static C:\Documents and Settings\Administrator\My Documents\Alarm Controller\PIC Code\SecuritySystem.c
              __string_61   0x004641    program     static C:\Documents and Settings\Administrator\My Documents\Alarm Controller\PIC Code\SecuritySystem.c
              __string_60   0x00466b    program     static C:\Documents and Settings\Administrator\My Documents\Alarm Controller\PIC Code\SecuritySystem.c
              __string_59   0x004688    program     static C:\Documents and Settings\Administrator\My Documents\Alarm Controller\PIC Code\SecuritySystem.c
              __string_58   0x0046ac    program     static C:\Documents and Settings\Administrator\My Documents\Alarm Controller\PIC Code\SecuritySystem.c
              __string_57   0x0046c9    program     static C:\Documents and Settings\Administrator\My Documents\Alarm Controller\PIC Code\SecuritySystem.c
              __string_56   0x0046d1    program     static C:\Documents and Settings\Administrator\My Documents\Alarm Controller\PIC Code\SecuritySystem.c
              __string_55   0x0046df    program     static C:\Documents and Settings\Administrator\My Documents\Alarm Controller\PIC Code\SecuritySystem.c
              __string_54   0x0046e9    program     static C:\Documents and Settings\Administrator\My Documents\Alarm Controller\PIC Code\SecuritySystem.c
              __string_53   0x0046f3    program     static C:\Documents and Settings\Administrator\My Documents\Alarm Controller\PIC Code\SecuritySystem.c
              __string_52   0x00470b    program     static C:\Documents and Settings\Administrator\My Documents\Alarm Controller\PIC Code\SecuritySystem.c
              __string_51   0x004711    program     static C:\Documents and Settings\Administrator\My Documents\Alarm Controller\PIC Code\SecuritySystem.c
              __string_50   0x004727    program     static C:\Documents and Settings\Administrator\My Documents\Alarm Controller\PIC Code\SecuritySystem.c
              __string_49   0x004758    program     static C:\Documents and Settings\Administrator\My Documents\Alarm Controller\PIC Code\SecuritySystem.c
              __string_48   0x004773    program     static C:\Documents and Settings\Administrator\My Documents\Alarm Controller\PIC Code\SecuritySystem.c
              __string_47   0x00479d    program     static C:\Documents and Settings\Administrator\My Documents\Alarm Controller\PIC Code\SecuritySystem.c
              __string_46   0x0047aa    program     static C:\Documents and Settings\Administrator\My Documents\Alarm Controller\PIC Code\SecuritySystem.c
              __string_45   0x0047cb    program     static C:\Documents and Settings\Administrator\My Documents\Alarm Controller\PIC Code\SecuritySystem.c
              __string_44   0x0047f0    program     static C:\Documents and Settings\Administrator\My Documents\Alarm Controller\PIC Code\SecuritySystem.c
              __string_43   0x004807    program     static C:\Documents and Settings\Administrator\My Documents\Alarm Controller\PIC Code\SecuritySystem.c
              __string_42   0x004815    program     static C:\Documents and Settings\Administrator\My Documents\Alarm Controller\PIC Code\SecuritySystem.c
              __string_41   0x00483f    program     static C:\Documents and Settings\Administrator\My Documents\Alarm Controller\PIC Code\SecuritySystem.c
              __string_40   0x00484c    program     static C:\Documents and Settings\Administrator\My Documents\Alarm Controller\PIC Code\SecuritySystem.c
              __string_39   0x004880    program     static C:\Documents and Settings\Administrator\My Documents\Alarm Controller\PIC Code\SecuritySystem.c
              __string_38   0x004893    program     static C:\Documents and Settings\Administrator\My Documents\Alarm Controller\PIC Code\SecuritySystem.c
              __string_37   0x00489f    program     static C:\Documents and Settings\Administrator\My Documents\Alarm Controller\PIC Code\SecuritySystem.c
              __string_36   0x0048c1    program     static C:\Documents and Settings\Administrator\My Documents\Alarm Controller\PIC Code\SecuritySystem.c
              __string_35   0x0048e3    program     static C:\Documents and Settings\Administrator\My Documents\Alarm Controller\PIC Code\SecuritySystem.c
              __string_34   0x004904    program     static C:\Documents and Settings\Administrator\My Documents\Alarm Controller\PIC Code\SecuritySystem.c
              __string_33   0x004907    program     static C:\Documents and Settings\Administrator\My Documents\Alarm Controller\PIC Code\SecuritySystem.c
              __string_32   0x004911    program     static C:\Documents and Settings\Administrator\My Documents\Alarm Controller\PIC Code\SecuritySystem.c
              __string_31   0x00491c    program     static C:\Documents and Settings\Administrator\My Documents\Alarm Controller\PIC Code\SecuritySystem.c
              __string_30   0x004931    program     static C:\Documents and Settings\Administrator\My Documents\Alarm Controller\PIC Code\SecuritySystem.c
              __string_29   0x004968    program     static C:\Documents and Settings\Administrator\My Documents\Alarm Controller\PIC Code\SecuritySystem.c
              __string_28   0x00499e    program     static C:\Documents and Settings\Administrator\My Documents\Alarm Controller\PIC Code\SecuritySystem.c
              __string_27   0x0049d5    program     static C:\Documents and Settings\Administrator\My Documents\Alarm Controller\PIC Code\SecuritySystem.c
              __string_26   0x0049de    program     static C:\Documents and Settings\Administrator\My Documents\Alarm Controller\PIC Code\SecuritySystem.c
              __string_25   0x0049e7    program     static C:\Documents and Settings\Administrator\My Documents\Alarm Controller\PIC Code\SecuritySystem.c
              __string_24   0x0049f0    program     static C:\Documents and Settings\Administrator\My Documents\Alarm Controller\PIC Code\SecuritySystem.c
              __string_23   0x0049f9    program     static C:\Documents and Settings\Administrator\My Documents\Alarm Controller\PIC Code\SecuritySystem.c
              __string_22   0x004a02    program     static C:\Documents and Settings\Administrator\My Documents\Alarm Controller\PIC Code\SecuritySystem.c
              __string_21   0x004a0b    program     static C:\Documents and Settings\Administrator\My Documents\Alarm Controller\PIC Code\SecuritySystem.c
              __string_20   0x004a14    program     static C:\Documents and Settings\Administrator\My Documents\Alarm Controller\PIC Code\SecuritySystem.c
              __string_19   0x004a1d    program     static C:\Documents and Settings\Administrator\My Documents\Alarm Controller\PIC Code\SecuritySystem.c
              __string_18   0x004a24    program     static C:\Documents and Settings\Administrator\My Documents\Alarm Controller\PIC Code\SecuritySystem.c
              __string_17   0x004a2b    program     static C:\Documents and Settings\Administrator\My Documents\Alarm Controller\PIC Code\SecuritySystem.c
              __string_16   0x004a33    program     static C:\Documents and Settings\Administrator\My Documents\Alarm Controller\PIC Code\SecuritySystem.c
              __string_15   0x004a39    program     static C:\Documents and Settings\Administrator\My Documents\Alarm Controller\PIC Code\SecuritySystem.c
              __string_14   0x004a40    program     static C:\Documents and Settings\Administrator\My Documents\Alarm Controller\PIC Code\SecuritySystem.c
              __string_13   0x004a4d    program     static C:\Documents and Settings\Administrator\My Documents\Alarm Controller\PIC Code\SecuritySystem.c
              __string_12   0x004a56    program     static C:\Documents and Settings\Administrator\My Documents\Alarm Controller\PIC Code\SecuritySystem.c
              __string_11   0x004a5f    program     static C:\Documents and Settings\Administrator\My Documents\Alarm Controller\PIC Code\SecuritySystem.c
              __string_10   0x004a63    program     static C:\Documents and Settings\Administrator\My Documents\Alarm Controller\PIC Code\SecuritySystem.c
               __string_9   0x004a6a    program     static C:\Documents and Settings\Administrator\My Documents\Alarm Controller\PIC Code\SecuritySystem.c
               __string_8   0x004a73    program     static C:\Documents and Settings\Administrator\My Documents\Alarm Controller\PIC Code\SecuritySystem.c
               __string_7   0x004a7d    program     static C:\Documents and Settings\Administrator\My Documents\Alarm Controller\PIC Code\SecuritySystem.c
               __string_6   0x004a7e    program     static C:\Documents and Settings\Administrator\My Documents\Alarm Controller\PIC Code\SecuritySystem.c
               __string_5   0x004a84    program     static C:\Documents and Settings\Administrator\My Documents\Alarm Controller\PIC Code\SecuritySystem.c
               __string_4   0x004a8b    program     static C:\Documents and Settings\Administrator\My Documents\Alarm Controller\PIC Code\SecuritySystem.c
               __string_3   0x004a92    program     static C:\Documents and Settings\Administrator\My Documents\Alarm Controller\PIC Code\SecuritySystem.c
               __string_2   0x004a96    program     static C:\Documents and Settings\Administrator\My Documents\Alarm Controller\PIC Code\SecuritySystem.c
               __string_1   0x004a9c    program     static C:\Documents and Settings\Administrator\My Documents\Alarm Controller\PIC Code\SecuritySystem.c
               __string_0   0x004aa1    program     static C:\Documents and Settings\Administrator\My Documents\Alarm Controller\PIC Code\SecuritySystem.c
              __string_44   0x004aa9    program     static C:\Documents and Settings\Administrator\My Documents\Alarm Controller\PIC Code\Authenticate.c
              __string_43   0x004ab5    program     static C:\Documents and Settings\Administrator\My Documents\Alarm Controller\PIC Code\Authenticate.c
              __string_42   0x004ac1    program     static C:\Documents and Settings\Administrator\My Documents\Alarm Controller\PIC Code\Authenticate.c
              __string_41   0x004aed    program     static C:\Documents and Settings\Administrator\My Documents\Alarm Controller\PIC Code\Authenticate.c
              __string_40   0x004b0b    program     static C:\Documents and Settings\Administrator\My Documents\Alarm Controller\PIC Code\Authenticate.c
              __string_39   0x004b25    program     static C:\Documents and Settings\Administrator\My Documents\Alarm Controller\PIC Code\Authenticate.c
              __string_38   0x004b42    program     static C:\Documents and Settings\Administrator\My Documents\Alarm Controller\PIC Code\Authenticate.c
              __string_37   0x004b5f    program     static C:\Documents and Settings\Administrator\My Documents\Alarm Controller\PIC Code\Authenticate.c
              __string_36   0x004b7a    program     static C:\Documents and Settings\Administrator\My Documents\Alarm Controller\PIC Code\Authenticate.c
              __string_35   0x004b80    program     static C:\Documents and Settings\Administrator\My Documents\Alarm Controller\PIC Code\Authenticate.c
              __string_34   0x004b97    program     static C:\Documents and Settings\Administrator\My Documents\Alarm Controller\PIC Code\Authenticate.c
              __string_33   0x004ba8    program     static C:\Documents and Settings\Administrator\My Documents\Alarm Controller\PIC Code\Authenticate.c
              __string_32   0x004bb9    program     static C:\Documents and Settings\Administrator\My Documents\Alarm Controller\PIC Code\Authenticate.c
              __string_31   0x004bbd    program     static C:\Documents and Settings\Administrator\My Documents\Alarm Controller\PIC Code\Authenticate.c
              __string_30   0x004bc6    program     static C:\Documents and Settings\Administrator\My Documents\Alarm Controller\PIC Code\Authenticate.c
              __string_29   0x004bd3    program     static C:\Documents and Settings\Administrator\My Documents\Alarm Controller\PIC Code\Authenticate.c
              __string_28   0x004bd5    program     static C:\Documents and Settings\Administrator\My Documents\Alarm Controller\PIC Code\Authenticate.c
              __string_27   0x004bd7    program     static C:\Documents and Settings\Administrator\My Documents\Alarm Controller\PIC Code\Authenticate.c
              __string_26   0x004bdf    program     static C:\Documents and Settings\Administrator\My Documents\Alarm Controller\PIC Code\Authenticate.c
              __string_25   0x004be2    program     static C:\Documents and Settings\Administrator\My Documents\Alarm Controller\PIC Code\Authenticate.c
              __string_24   0x004bf5    program     static C:\Documents and Settings\Administrator\My Documents\Alarm Controller\PIC Code\Authenticate.c
              __string_23   0x004c0c    program     static C:\Documents and Settings\Administrator\My Documents\Alarm Controller\PIC Code\Authenticate.c
              __string_22   0x004c40    program     static C:\Documents and Settings\Administrator\My Documents\Alarm Controller\PIC Code\Authenticate.c
              __string_21   0x004c70    program     static C:\Documents and Settings\Administrator\My Documents\Alarm Controller\PIC Code\Authenticate.c
              __string_20   0x004ca4    program     static C:\Documents and Settings\Administrator\My Documents\Alarm Controller\PIC Code\Authenticate.c
              __string_19   0x004ca7    program     static C:\Documents and Settings\Administrator\My Documents\Alarm Controller\PIC Code\Authenticate.c
              __string_18   0x004cb0    program     static C:\Documents and Settings\Administrator\My Documents\Alarm Controller\PIC Code\Authenticate.c
              __string_17   0x004ccd    program     static C:\Documents and Settings\Administrator\My Documents\Alarm Controller\PIC Code\Authenticate.c
              __string_16   0x004cea    program     static C:\Documents and Settings\Administrator\My Documents\Alarm Controller\PIC Code\Authenticate.c
              __string_15   0x004cf1    program     static C:\Documents and Settings\Administrator\My Documents\Alarm Controller\PIC Code\Authenticate.c
              __string_14   0x004cf5    program     static C:\Documents and Settings\Administrator\My Documents\Alarm Controller\PIC Code\Authenticate.c
              __string_13   0x004d0e    program     static C:\Documents and Settings\Administrator\My Documents\Alarm Controller\PIC Code\Authenticate.c
              __string_12   0x004d12    program     static C:\Documents and Settings\Administrator\My Documents\Alarm Controller\PIC Code\Authenticate.c
              __string_11   0x004d34    program     static C:\Documents and Settings\Administrator\My Documents\Alarm Controller\PIC Code\Authenticate.c
              __string_10   0x004d59    program     static C:\Documents and Settings\Administrator\My Documents\Alarm Controller\PIC Code\Authenticate.c
               __string_9   0x004d71    program     static C:\Documents and Settings\Administrator\My Documents\Alarm Controller\PIC Code\Authenticate.c
               __string_8   0x004da8    program     static C:\Documents and Settings\Administrator\My Documents\Alarm Controller\PIC Code\Authenticate.c
               __string_7   0x004dd1    program     static C:\Documents and Settings\Administrator\My Documents\Alarm Controller\PIC Code\Authenticate.c
               __string_6   0x004de7    program     static C:\Documents and Settings\Administrator\My Documents\Alarm Controller\PIC Code\Authenticate.c
               __string_5   0x004e07    program     static C:\Documents and Settings\Administrator\My Documents\Alarm Controller\PIC Code\Authenticate.c
               __string_4   0x004e27    program     static C:\Documents and Settings\Administrator\My Documents\Alarm Controller\PIC Code\Authenticate.c
               __string_3   0x004e5a    program     static C:\Documents and Settings\Administrator\My Documents\Alarm Controller\PIC Code\Authenticate.c
               __string_2   0x004e7f    program     static C:\Documents and Settings\Administrator\My Documents\Alarm Controller\PIC Code\Authenticate.c
               __string_1   0x004e81    program     static C:\Documents and Settings\Administrator\My Documents\Alarm Controller\PIC Code\Authenticate.c
               __string_0   0x004eb1    program     static C:\Documents and Settings\Administrator\My Documents\Alarm Controller\PIC Code\Authenticate.c
             __string_112   0x004ee0    program     static C:\Documents and Settings\Administrator\My Documents\Alarm Controller\PIC Code\SecurityXPLSender.c
             __string_111   0x004ef2    program     static C:\Documents and Settings\Administrator\My Documents\Alarm Controller\PIC Code\SecurityXPLSender.c
             __string_110   0x004efa    program     static C:\Documents and Settings\Administrator\My Documents\Alarm Controller\PIC Code\SecurityXPLSender.c
             __string_109   0x004f03    program     static C:\Documents and Settings\Administrator\My Documents\Alarm Controller\PIC Code\SecurityXPLSender.c
             __string_108   0x004f0c    program     static C:\Documents and Settings\Administrator\My Documents\Alarm Controller\PIC Code\SecurityXPLSender.c
             __string_107   0x004f14    program     static C:\Documents and Settings\Administrator\My Documents\Alarm Controller\PIC Code\SecurityXPLSender.c
             __string_106   0x004f41    program     static C:\Documents and Settings\Administrator\My Documents\Alarm Controller\PIC Code\SecurityXPLSender.c
             __string_105   0x004f53    program     static C:\Documents and Settings\Administrator\My Documents\Alarm Controller\PIC Code\SecurityXPLSender.c
             __string_104   0x004f5e    program     static C:\Documents and Settings\Administrator\My Documents\Alarm Controller\PIC Code\SecurityXPLSender.c
             __string_103   0x004f69    program     static C:\Documents and Settings\Administrator\My Documents\Alarm Controller\PIC Code\SecurityXPLSender.c
             __string_102   0x004f72    program     static C:\Documents and Settings\Administrator\My Documents\Alarm Controller\PIC Code\SecurityXPLSender.c
             __string_101   0x004f74    program     static C:\Documents and Settings\Administrator\My Documents\Alarm Controller\PIC Code\SecurityXPLSender.c
             __string_100   0x004f82    program     static C:\Documents and Settings\Administrator\My Documents\Alarm Controller\PIC Code\SecurityXPLSender.c
              __string_99   0x004f93    program     static C:\Documents and Settings\Administrator\My Documents\Alarm Controller\PIC Code\SecurityXPLSender.c
              __string_98   0x004f9b    program     static C:\Documents and Settings\Administrator\My Documents\Alarm Controller\PIC Code\SecurityXPLSender.c
              __string_97   0x004fa3    program     static C:\Documents and Settings\Administrator\My Documents\Alarm Controller\PIC Code\SecurityXPLSender.c
              __string_96   0x004fa9    program     static C:\Documents and Settings\Administrator\My Documents\Alarm Controller\PIC Code\SecurityXPLSender.c
              __string_95   0x004fae    program     static C:\Documents and Settings\Administrator\My Documents\Alarm Controller\PIC Code\SecurityXPLSender.c
              __string_94   0x004fb6    program     static C:\Documents and Settings\Administrator\My Documents\Alarm Controller\PIC Code\SecurityXPLSender.c
              __string_93   0x004fe3    program     static C:\Documents and Settings\Administrator\My Documents\Alarm Controller\PIC Code\SecurityXPLSender.c
              __string_92   0x004ff5    program     static C:\Documents and Settings\Administrator\My Documents\Alarm Controller\PIC Code\SecurityXPLSender.c
              __string_91   0x005001    program     static C:\Documents and Settings\Administrator\My Documents\Alarm Controller\PIC Code\SecurityXPLSender.c
              __string_90   0x005008    program     static C:\Documents and Settings\Administrator\My Documents\Alarm Controller\PIC Code\SecurityXPLSender.c
              __string_89   0x005012    program     static C:\Documents and Settings\Administrator\My Documents\Alarm Controller\PIC Code\SecurityXPLSender.c
              __string_88   0x005019    program     static C:\Documents and Settings\Administrator\My Documents\Alarm Controller\PIC Code\SecurityXPLSender.c
              __string_87   0x005021    program     static C:\Documents and Settings\Administrator\My Documents\Alarm Controller\PIC Code\SecurityXPLSender.c
              __string_86   0x00502e    program     static C:\Documents and Settings\Administrator\My Documents\Alarm Controller\PIC Code\SecurityXPLSender.c
              __string_85   0x005035    program     static C:\Documents and Settings\Administrator\My Documents\Alarm Controller\PIC Code\SecurityXPLSender.c
              __string_84   0x00503b    program     static C:\Documents and Settings\Administrator\My Documents\Alarm Controller\PIC Code\SecurityXPLSender.c
              __string_83   0x005044    program     static C:\Documents and Settings\Administrator\My Documents\Alarm Controller\PIC Code\SecurityXPLSender.c
              __string_82   0x005071    program     static C:\Documents and Settings\Administrator\My Documents\Alarm Controller\PIC Code\SecurityXPLSender.c
              __string_81   0x005081    program     static C:\Documents and Settings\Administrator\My Documents\Alarm Controller\PIC Code\SecurityXPLSender.c
              __string_80   0x005096    program     static C:\Documents and Settings\Administrator\My Documents\Alarm Controller\PIC Code\SecurityXPLSender.c
              __string_79   0x0050a7    program     static C:\Documents and Settings\Administrator\My Documents\Alarm Controller\PIC Code\SecurityXPLSender.c
              __string_78   0x0050d2    program     static C:\Documents and Settings\Administrator\My Documents\Alarm Controller\PIC Code\SecurityXPLSender.c
              __string_77   0x0050e9    program     static C:\Documents and Settings\Administrator\My Documents\Alarm Controller\PIC Code\SecurityXPLSender.c
              __string_76   0x0050fd    program     static C:\Documents and Settings\Administrator\My Documents\Alarm Controller\PIC Code\SecurityXPLSender.c
              __string_75   0x005112    program     static C:\Documents and Settings\Administrator\My Documents\Alarm Controller\PIC Code\SecurityXPLSender.c
              __string_74   0x005142    program     static C:\Documents and Settings\Administrator\My Documents\Alarm Controller\PIC Code\SecurityXPLSender.c
              __string_73   0x00515a    program     static C:\Documents and Settings\Administrator\My Documents\Alarm Controller\PIC Code\SecurityXPLSender.c
              __string_72   0x00516b    program     static C:\Documents and Settings\Administrator\My Documents\Alarm Controller\PIC Code\SecurityXPLSender.c
              __string_71   0x00519e    program     static C:\Documents and Settings\Administrator\My Documents\Alarm Controller\PIC Code\SecurityXPLSender.c
              __string_70   0x0051a0    program     static C:\Documents and Settings\Administrator\My Documents\Alarm Controller\PIC Code\SecurityXPLSender.c
              __string_69   0x0051b7    program     static C:\Documents and Settings\Administrator\My Documents\Alarm Controller\PIC Code\SecurityXPLSender.c
              __string_68   0x0051bf    program     static C:\Documents and Settings\Administrator\My Documents\Alarm Controller\PIC Code\SecurityXPLSender.c
              __string_67   0x0051c3    program     static C:\Documents and Settings\Administrator\My Documents\Alarm Controller\PIC Code\SecurityXPLSender.c
              __string_66   0x0051cd    program     static C:\Documents and Settings\Administrator\My Documents\Alarm Controller\PIC Code\SecurityXPLSender.c
              __string_65   0x0051d6    program     static C:\Documents and Settings\Administrator\My Documents\Alarm Controller\PIC Code\SecurityXPLSender.c
              __string_64   0x005208    program     static C:\Documents and Settings\Administrator\My Documents\Alarm Controller\PIC Code\SecurityXPLSender.c
              __string_63   0x00521c    program     static C:\Documents and Settings\Administrator\My Documents\Alarm Controller\PIC Code\SecurityXPLSender.c
              __string_62   0x00522b    program     static C:\Documents and Settings\Administrator\My Documents\Alarm Controller\PIC Code\SecurityXPLSender.c
              __string_61   0x005236    program     static C:\Documents and Settings\Administrator\My Documents\Alarm Controller\PIC Code\SecurityXPLSender.c
              __string_60   0x005247    program     static C:\Documents and Settings\Administrator\My Documents\Alarm Controller\PIC Code\SecurityXPLSender.c
              __string_59   0x005257    program     static C:\Documents and Settings\Administrator\My Documents\Alarm Controller\PIC Code\SecurityXPLSender.c
              __string_58   0x005286    program     static C:\Documents and Settings\Administrator\My Documents\Alarm Controller\PIC Code\SecurityXPLSender.c
              __string_57   0x005293    program     static C:\Documents and Settings\Administrator\My Documents\Alarm Controller\PIC Code\SecurityXPLSender.c
              __string_56   0x005299    program     static C:\Documents and Settings\Administrator\My Documents\Alarm Controller\PIC Code\SecurityXPLSender.c
              __string_55   0x0052c6    program     static C:\Documents and Settings\Administrator\My Documents\Alarm Controller\PIC Code\SecurityXPLSender.c
              __string_54   0x0052cd    program     static C:\Documents and Settings\Administrator\My Documents\Alarm Controller\PIC Code\SecurityXPLSender.c
              __string_53   0x0052da    program     static C:\Documents and Settings\Administrator\My Documents\Alarm Controller\PIC Code\SecurityXPLSender.c
              __string_52   0x0052e6    program     static C:\Documents and Settings\Administrator\My Documents\Alarm Controller\PIC Code\SecurityXPLSender.c
              __string_51   0x0052ec    program     static C:\Documents and Settings\Administrator\My Documents\Alarm Controller\PIC Code\SecurityXPLSender.c
              __string_50   0x005319    program     static C:\Documents and Settings\Administrator\My Documents\Alarm Controller\PIC Code\SecurityXPLSender.c
              __string_49   0x005346    program     static C:\Documents and Settings\Administrator\My Documents\Alarm Controller\PIC Code\SecurityXPLSender.c
              __string_48   0x005373    program     static C:\Documents and Settings\Administrator\My Documents\Alarm Controller\PIC Code\SecurityXPLSender.c
              __string_47   0x00538d    program     static C:\Documents and Settings\Administrator\My Documents\Alarm Controller\PIC Code\SecurityXPLSender.c
              __string_46   0x0053a2    program     static C:\Documents and Settings\Administrator\My Documents\Alarm Controller\PIC Code\SecurityXPLSender.c
              __string_45   0x0053cd    program     static C:\Documents and Settings\Administrator\My Documents\Alarm Controller\PIC Code\SecurityXPLSender.c
              __string_44   0x0053d4    program     static C:\Documents and Settings\Administrator\My Documents\Alarm Controller\PIC Code\SecurityXPLSender.c
              __string_43   0x0053e0    program     static C:\Documents and Settings\Administrator\My Documents\Alarm Controller\PIC Code\SecurityXPLSender.c
              __string_42   0x00540a    program     static C:\Documents and Settings\Administrator\My Documents\Alarm Controller\PIC Code\SecurityXPLSender.c
              __string_41   0x005423    program     static C:\Documents and Settings\Administrator\My Documents\Alarm Controller\PIC Code\SecurityXPLSender.c
              __string_40   0x005429    program     static C:\Documents and Settings\Administrator\My Documents\Alarm Controller\PIC Code\SecurityXPLSender.c
              __string_39   0x005434    program     static C:\Documents and Settings\Administrator\My Documents\Alarm Controller\PIC Code\SecurityXPLSender.c
              __string_38   0x005436    program     static C:\Documents and Settings\Administrator\My Documents\Alarm Controller\PIC Code\SecurityXPLSender.c
              __string_37   0x005441    program     static C:\Documents and Settings\Administrator\My Documents\Alarm Controller\PIC Code\SecurityXPLSender.c
              __string_36   0x00544e    program     static C:\Documents and Settings\Administrator\My Documents\Alarm Controller\PIC Code\SecurityXPLSender.c
              __string_35   0x005478    program     static C:\Documents and Settings\Administrator\My Documents\Alarm Controller\PIC Code\SecurityXPLSender.c
              __string_34   0x005498    program     static C:\Documents and Settings\Administrator\My Documents\Alarm Controller\PIC Code\SecurityXPLSender.c
              __string_33   0x0054a7    program     static C:\Documents and Settings\Administrator\My Documents\Alarm Controller\PIC Code\SecurityXPLSender.c
              __string_32   0x0054c6    program     static C:\Documents and Settings\Administrator\My Documents\Alarm Controller\PIC Code\SecurityXPLSender.c
              __string_31   0x0054c9    program     static C:\Documents and Settings\Administrator\My Documents\Alarm Controller\PIC Code\SecurityXPLSender.c
              __string_30   0x0054f2    program     static C:\Documents and Settings\Administrator\My Documents\Alarm Controller\PIC Code\SecurityXPLSender.c
              __string_29   0x00551b    program     static C:\Documents and Settings\Administrator\My Documents\Alarm Controller\PIC Code\SecurityXPLSender.c
              __string_28   0x005573    program     static C:\Documents and Settings\Administrator\My Documents\Alarm Controller\PIC Code\SecurityXPLSender.c
              __string_27   0x00557f    program     static C:\Documents and Settings\Administrator\My Documents\Alarm Controller\PIC Code\SecurityXPLSender.c
              __string_26   0x00558b    program     static C:\Documents and Settings\Administrator\My Documents\Alarm Controller\PIC Code\SecurityXPLSender.c
              __string_25   0x0055a4    program     static C:\Documents and Settings\Administrator\My Documents\Alarm Controller\PIC Code\SecurityXPLSender.c
              __string_24   0x0055b9    program     static C:\Documents and Settings\Administrator\My Documents\Alarm Controller\PIC Code\SecurityXPLSender.c
              __string_23   0x0055d0    program     static C:\Documents and Settings\Administrator\My Documents\Alarm Controller\PIC Code\SecurityXPLSender.c
              __string_22   0x005607    program     static C:\Documents and Settings\Administrator\My Documents\Alarm Controller\PIC Code\SecurityXPLSender.c
              __string_21   0x005615    program     static C:\Documents and Settings\Administrator\My Documents\Alarm Controller\PIC Code\SecurityXPLSender.c
              __string_20   0x005645    program     static C:\Documents and Settings\Administrator\My Documents\Alarm Controller\PIC Code\SecurityXPLSender.c
              __string_19   0x00564c    program     static C:\Documents and Settings\Administrator\My Documents\Alarm Controller\PIC Code\SecurityXPLSender.c
              __string_18   0x00565c    program     static C:\Documents and Settings\Administrator\My Documents\Alarm Controller\PIC Code\SecurityXPLSender.c
              __string_17   0x005669    program     static C:\Documents and Settings\Administrator\My Documents\Alarm Controller\PIC Code\SecurityXPLSender.c
              __string_16   0x005670    program     static C:\Documents and Settings\Administrator\My Documents\Alarm Controller\PIC Code\SecurityXPLSender.c
              __string_15   0x00568f    program     static C:\Documents and Settings\Administrator\My Documents\Alarm Controller\PIC Code\SecurityXPLSender.c
              __string_14   0x00569c    program     static C:\Documents and Settings\Administrator\My Documents\Alarm Controller\PIC Code\SecurityXPLSender.c
              __string_13   0x0056a8    program     static C:\Documents and Settings\Administrator\My Documents\Alarm Controller\PIC Code\SecurityXPLSender.c
              __string_12   0x0056b4    program     static C:\Documents and Settings\Administrator\My Documents\Alarm Controller\PIC Code\SecurityXPLSender.c
              __string_11   0x0056c0    program     static C:\Documents and Settings\Administrator\My Documents\Alarm Controller\PIC Code\SecurityXPLSender.c
              __string_10   0x0056f0    program     static C:\Documents and Settings\Administrator\My Documents\Alarm Controller\PIC Code\SecurityXPLSender.c
               __string_9   0x005703    program     static C:\Documents and Settings\Administrator\My Documents\Alarm Controller\PIC Code\SecurityXPLSender.c
               __string_8   0x005716    program     static C:\Documents and Settings\Administrator\My Documents\Alarm Controller\PIC Code\SecurityXPLSender.c
               __string_7   0x005728    program     static C:\Documents and Settings\Administrator\My Documents\Alarm Controller\PIC Code\SecurityXPLSender.c
               __string_6   0x005759    program     static C:\Documents and Settings\Administrator\My Documents\Alarm Controller\PIC Code\SecurityXPLSender.c
               __string_5   0x00576c    program     static C:\Documents and Settings\Administrator\My Documents\Alarm Controller\PIC Code\SecurityXPLSender.c
               __string_4   0x00577f    program     static C:\Documents and Settings\Administrator\My Documents\Alarm Controller\PIC Code\SecurityXPLSender.c
               __string_3   0x005783    program     static C:\Documents and Settings\Administrator\My Documents\Alarm Controller\PIC Code\SecurityXPLSender.c
               __string_2   0x005795    program     static C:\Documents and Settings\Administrator\My Documents\Alarm Controller\PIC Code\SecurityXPLSender.c
               __string_1   0x0057c6    program     static C:\Documents and Settings\Administrator\My Documents\Alarm Controller\PIC Code\SecurityXPLSender.c
               __string_0   0x0057c9    program     static C:\Documents and Settings\Administrator\My Documents\Alarm Controller\PIC Code\SecurityXPLSender.c
              __string_86   0x0057f9    program     static C:\Documents and Settings\Administrator\My Documents\Alarm Controller\PIC Code\HTTPForms.c
              __string_85   0x005811    program     static C:\Documents and Settings\Administrator\My Documents\Alarm Controller\PIC Code\HTTPForms.c
              __string_84   0x005824    program     static C:\Documents and Settings\Administrator\My Documents\Alarm Controller\PIC Code\HTTPForms.c
              __string_83   0x00582a    program     static C:\Documents and Settings\Administrator\My Documents\Alarm Controller\PIC Code\HTTPForms.c
              __string_82   0x00582f    program     static C:\Documents and Settings\Administrator\My Documents\Alarm Controller\PIC Code\HTTPForms.c
              __string_81   0x005835    program     static C:\Documents and Settings\Administrator\My Documents\Alarm Controller\PIC Code\HTTPForms.c
              __string_80   0x00583b    program     static C:\Documents and Settings\Administrator\My Documents\Alarm Controller\PIC Code\HTTPForms.c
              __string_79   0x005843    program     static C:\Documents and Settings\Administrator\My Documents\Alarm Controller\PIC Code\HTTPForms.c
              __string_78   0x005847    program     static C:\Documents and Settings\Administrator\My Documents\Alarm Controller\PIC Code\HTTPForms.c
              __string_77   0x00584b    program     static C:\Documents and Settings\Administrator\My Documents\Alarm Controller\PIC Code\HTTPForms.c
              __string_76   0x00585e    program     static C:\Documents and Settings\Administrator\My Documents\Alarm Controller\PIC Code\HTTPForms.c
              __string_75   0x00587c    program     static C:\Documents and Settings\Administrator\My Documents\Alarm Controller\PIC Code\HTTPForms.c
              __string_74   0x00587f    program     static C:\Documents and Settings\Administrator\My Documents\Alarm Controller\PIC Code\HTTPForms.c
              __string_73   0x005883    program     static C:\Documents and Settings\Administrator\My Documents\Alarm Controller\PIC Code\HTTPForms.c
              __string_72   0x005893    program     static C:\Documents and Settings\Administrator\My Documents\Alarm Controller\PIC Code\HTTPForms.c
              __string_71   0x0058a3    program     static C:\Documents and Settings\Administrator\My Documents\Alarm Controller\PIC Code\HTTPForms.c
              __string_70   0x0058b3    program     static C:\Documents and Settings\Administrator\My Documents\Alarm Controller\PIC Code\HTTPForms.c
              __string_69   0x0058e1    program     static C:\Documents and Settings\Administrator\My Documents\Alarm Controller\PIC Code\HTTPForms.c
              __string_68   0x0058f8    program     static C:\Documents and Settings\Administrator\My Documents\Alarm Controller\PIC Code\HTTPForms.c
              __string_67   0x0058ff    program     static C:\Documents and Settings\Administrator\My Documents\Alarm Controller\PIC Code\HTTPForms.c
              __string_66   0x00590d    program     static C:\Documents and Settings\Administrator\My Documents\Alarm Controller\PIC Code\HTTPForms.c
              __string_65   0x005911    program     static C:\Documents and Settings\Administrator\My Documents\Alarm Controller\PIC Code\HTTPForms.c
              __string_64   0x00591d    program     static C:\Documents and Settings\Administrator\My Documents\Alarm Controller\PIC Code\HTTPForms.c
              __string_63   0x005921    program     static C:\Documents and Settings\Administrator\My Documents\Alarm Controller\PIC Code\HTTPForms.c
              __string_62   0x005931    program     static C:\Documents and Settings\Administrator\My Documents\Alarm Controller\PIC Code\HTTPForms.c
              __string_61   0x005935    program     static C:\Documents and Settings\Administrator\My Documents\Alarm Controller\PIC Code\HTTPForms.c
              __string_60   0x00594e    program     static C:\Documents and Settings\Administrator\My Documents\Alarm Controller\PIC Code\HTTPForms.c
              __string_59   0x005952    program     static C:\Documents and Settings\Administrator\My Documents\Alarm Controller\PIC Code\HTTPForms.c
              __string_58   0x005964    program     static C:\Documents and Settings\Administrator\My Documents\Alarm Controller\PIC Code\HTTPForms.c
              __string_57   0x005968    program     static C:\Documents and Settings\Administrator\My Documents\Alarm Controller\PIC Code\HTTPForms.c
              __string_56   0x005974    program     static C:\Documents and Settings\Administrator\My Documents\Alarm Controller\PIC Code\HTTPForms.c
              __string_55   0x005978    program     static C:\Documents and Settings\Administrator\My Documents\Alarm Controller\PIC Code\HTTPForms.c
              __string_54   0x005983    program     static C:\Documents and Settings\Administrator\My Documents\Alarm Controller\PIC Code\HTTPForms.c
              __string_53   0x005987    program     static C:\Documents and Settings\Administrator\My Documents\Alarm Controller\PIC Code\HTTPForms.c
              __string_52   0x00599b    program     static C:\Documents and Settings\Administrator\My Documents\Alarm Controller\PIC Code\HTTPForms.c
              __string_51   0x00599f    program     static C:\Documents and Settings\Administrator\My Documents\Alarm Controller\PIC Code\HTTPForms.c
              __string_50   0x0059ab    program     static C:\Documents and Settings\Administrator\My Documents\Alarm Controller\PIC Code\HTTPForms.c
              __string_49   0x0059af    program     static C:\Documents and Settings\Administrator\My Documents\Alarm Controller\PIC Code\HTTPForms.c
              __string_48   0x0059c8    program     static C:\Documents and Settings\Administrator\My Documents\Alarm Controller\PIC Code\HTTPForms.c
              __string_47   0x0059db    program     static C:\Documents and Settings\Administrator\My Documents\Alarm Controller\PIC Code\HTTPForms.c
              __string_46   0x0059ec    program     static C:\Documents and Settings\Administrator\My Documents\Alarm Controller\PIC Code\HTTPForms.c
              __string_45   0x005a09    program     static C:\Documents and Settings\Administrator\My Documents\Alarm Controller\PIC Code\HTTPForms.c
              __string_44   0x005a1b    program     static C:\Documents and Settings\Administrator\My Documents\Alarm Controller\PIC Code\HTTPForms.c
              __string_43   0x005a30    program     static C:\Documents and Settings\Administrator\My Documents\Alarm Controller\PIC Code\HTTPForms.c
              __string_42   0x005a38    program     static C:\Documents and Settings\Administrator\My Documents\Alarm Controller\PIC Code\HTTPForms.c
              __string_41   0x005a4d    program     static C:\Documents and Settings\Administrator\My Documents\Alarm Controller\PIC Code\HTTPForms.c
              __string_40   0x005a5a    program     static C:\Documents and Settings\Administrator\My Documents\Alarm Controller\PIC Code\HTTPForms.c
              __string_39   0x005a62    program     static C:\Documents and Settings\Administrator\My Documents\Alarm Controller\PIC Code\HTTPForms.c
              __string_38   0x005a72    program     static C:\Documents and Settings\Administrator\My Documents\Alarm Controller\PIC Code\HTTPForms.c
              __string_37   0x005a7d    program     static C:\Documents and Settings\Administrator\My Documents\Alarm Controller\PIC Code\HTTPForms.c
              __string_36   0x005a88    program     static C:\Documents and Settings\Administrator\My Documents\Alarm Controller\PIC Code\HTTPForms.c
              __string_35   0x005a9e    program     static C:\Documents and Settings\Administrator\My Documents\Alarm Controller\PIC Code\HTTPForms.c
              __string_34   0x005aa6    program     static C:\Documents and Settings\Administrator\My Documents\Alarm Controller\PIC Code\HTTPForms.c
              __string_33   0x005ab1    program     static C:\Documents and Settings\Administrator\My Documents\Alarm Controller\PIC Code\HTTPForms.c
              __string_32   0x005ac7    program     static C:\Documents and Settings\Administrator\My Documents\Alarm Controller\PIC Code\HTTPForms.c
              __string_31   0x005acd    program     static C:\Documents and Settings\Administrator\My Documents\Alarm Controller\PIC Code\HTTPForms.c
              __string_30   0x005ad9    program     static C:\Documents and Settings\Administrator\My Documents\Alarm Controller\PIC Code\HTTPForms.c
              __string_29   0x005aef    program     static C:\Documents and Settings\Administrator\My Documents\Alarm Controller\PIC Code\HTTPForms.c
              __string_28   0x005aff    program     static C:\Documents and Settings\Administrator\My Documents\Alarm Controller\PIC Code\HTTPForms.c
              __string_27   0x005b0d    program     static C:\Documents and Settings\Administrator\My Documents\Alarm Controller\PIC Code\HTTPForms.c
              __string_26   0x005b1c    program     static C:\Documents and Settings\Administrator\My Documents\Alarm Controller\PIC Code\HTTPForms.c
              __string_25   0x005b2d    program     static C:\Documents and Settings\Administrator\My Documents\Alarm Controller\PIC Code\HTTPForms.c
              __string_24   0x005b35    program     static C:\Documents and Settings\Administrator\My Documents\Alarm Controller\PIC Code\HTTPForms.c
              __string_23   0x005b4a    program     static C:\Documents and Settings\Administrator\My Documents\Alarm Controller\PIC Code\HTTPForms.c
              __string_22   0x005b68    program     static C:\Documents and Settings\Administrator\My Documents\Alarm Controller\PIC Code\HTTPForms.c
              __string_21   0x005b7e    program     static C:\Documents and Settings\Administrator\My Documents\Alarm Controller\PIC Code\HTTPForms.c
              __string_20   0x005b83    program     static C:\Documents and Settings\Administrator\My Documents\Alarm Controller\PIC Code\HTTPForms.c
              __string_19   0x005b92    program     static C:\Documents and Settings\Administrator\My Documents\Alarm Controller\PIC Code\HTTPForms.c
              __string_18   0x005b9b    program     static C:\Documents and Settings\Administrator\My Documents\Alarm Controller\PIC Code\HTTPForms.c
              __string_17   0x005bab    program     static C:\Documents and Settings\Administrator\My Documents\Alarm Controller\PIC Code\HTTPForms.c
              __string_16   0x005bb5    program     static C:\Documents and Settings\Administrator\My Documents\Alarm Controller\PIC Code\HTTPForms.c
              __string_15   0x005bbf    program     static C:\Documents and Settings\Administrator\My Documents\Alarm Controller\PIC Code\HTTPForms.c
              __string_14   0x005bc4    program     static C:\Documents and Settings\Administrator\My Documents\Alarm Controller\PIC Code\HTTPForms.c
              __string_13   0x005bd4    program     static C:\Documents and Settings\Administrator\My Documents\Alarm Controller\PIC Code\HTTPForms.c
              __string_12   0x005be3    program     static C:\Documents and Settings\Administrator\My Documents\Alarm Controller\PIC Code\HTTPForms.c
              __string_11   0x005be9    program     static C:\Documents and Settings\Administrator\My Documents\Alarm Controller\PIC Code\HTTPForms.c
              __string_10   0x005c00    program     static C:\Documents and Settings\Administrator\My Documents\Alarm Controller\PIC Code\HTTPForms.c
               __string_9   0x005c16    program     static C:\Documents and Settings\Administrator\My Documents\Alarm Controller\PIC Code\HTTPForms.c
               __string_8   0x005c19    program     static C:\Documents and Settings\Administrator\My Documents\Alarm Controller\PIC Code\HTTPForms.c
               __string_7   0x005c26    program     static C:\Documents and Settings\Administrator\My Documents\Alarm Controller\PIC Code\HTTPForms.c
               __string_6   0x005c2d    program     static C:\Documents and Settings\Administrator\My Documents\Alarm Controller\PIC Code\HTTPForms.c
               __string_5   0x005c37    program     static C:\Documents and Settings\Administrator\My Documents\Alarm Controller\PIC Code\HTTPForms.c
               __string_4   0x005c3f    program     static C:\Documents and Settings\Administrator\My Documents\Alarm Controller\PIC Code\HTTPForms.c
               __string_3   0x005c50    program     static C:\Documents and Settings\Administrator\My Documents\Alarm Controller\PIC Code\HTTPForms.c
               __string_2   0x005c57    program     static C:\Documents and Settings\Administrator\My Documents\Alarm Controller\PIC Code\HTTPForms.c
               __string_1   0x005c5f    program     static C:\Documents and Settings\Administrator\My Documents\Alarm Controller\PIC Code\HTTPForms.c
               __string_0   0x005c62    program     static C:\Documents and Settings\Administrator\My Documents\Alarm Controller\PIC Code\HTTPForms.c
              __string_42   0x005c77    program     static C:\Documents and Settings\Administrator\My Documents\Alarm Controller\PIC Code\SMTP.c
              __string_41   0x005ca6    program     static C:\Documents and Settings\Administrator\My Documents\Alarm Controller\PIC Code\SMTP.c
              __string_40   0x005cbc    program     static C:\Documents and Settings\Administrator\My Documents\Alarm Controller\PIC Code\SMTP.c
              __string_39   0x005cce    program     static C:\Documents and Settings\Administrator\My Documents\Alarm Controller\PIC Code\SMTP.c
              __string_38   0x005ce6    program     static C:\Documents and Settings\Administrator\My Documents\Alarm Controller\PIC Code\SMTP.c
              __string_37   0x005cf4    program     static C:\Documents and Settings\Administrator\My Documents\Alarm Controller\PIC Code\SMTP.c
              __string_36   0x005d37    program     static C:\Documents and Settings\Administrator\My Documents\Alarm Controller\PIC Code\SMTP.c
              __string_35   0x005d50    program     static C:\Documents and Settings\Administrator\My Documents\Alarm Controller\PIC Code\SMTP.c
              __string_34   0x005d80    program     static C:\Documents and Settings\Administrator\My Documents\Alarm Controller\PIC Code\SMTP.c
              __string_33   0x005d9b    program     static C:\Documents and Settings\Administrator\My Documents\Alarm Controller\PIC Code\SMTP.c
              __string_32   0x005de4    program     static C:\Documents and Settings\Administrator\My Documents\Alarm Controller\PIC Code\SMTP.c
              __string_31   0x005df5    program     static C:\Documents and Settings\Administrator\My Documents\Alarm Controller\PIC Code\SMTP.c
              __string_30   0x005e07    program     static C:\Documents and Settings\Administrator\My Documents\Alarm Controller\PIC Code\SMTP.c
              __string_29   0x005e14    program     static C:\Documents and Settings\Administrator\My Documents\Alarm Controller\PIC Code\SMTP.c
              __string_28   0x005e2d    program     static C:\Documents and Settings\Administrator\My Documents\Alarm Controller\PIC Code\SMTP.c
              __string_27   0x005e3f    program     static C:\Documents and Settings\Administrator\My Documents\Alarm Controller\PIC Code\SMTP.c
              __string_26   0x005e4f    program     static C:\Documents and Settings\Administrator\My Documents\Alarm Controller\PIC Code\SMTP.c
              __string_25   0x005e5e    program     static C:\Documents and Settings\Administrator\My Documents\Alarm Controller\PIC Code\SMTP.c
              __string_24   0x005e6b    program     static C:\Documents and Settings\Administrator\My Documents\Alarm Controller\PIC Code\SMTP.c
              __string_23   0x005ea9    program     static C:\Documents and Settings\Administrator\My Documents\Alarm Controller\PIC Code\SMTP.c
              __string_22   0x005ebe    program     static C:\Documents and Settings\Administrator\My Documents\Alarm Controller\PIC Code\SMTP.c
              __string_21   0x005eea    program     static C:\Documents and Settings\Administrator\My Documents\Alarm Controller\PIC Code\SMTP.c
              __string_20   0x005f1f    program     static C:\Documents and Settings\Administrator\My Documents\Alarm Controller\PIC Code\SMTP.c
              __string_19   0x005f3a    program     static C:\Documents and Settings\Administrator\My Documents\Alarm Controller\PIC Code\SMTP.c
              __string_18   0x005f3d    program     static C:\Documents and Settings\Administrator\My Documents\Alarm Controller\PIC Code\SMTP.c
              __string_17   0x005f6b    program     static C:\Documents and Settings\Administrator\My Documents\Alarm Controller\PIC Code\SMTP.c
              __string_16   0x005f75    program     static C:\Documents and Settings\Administrator\My Documents\Alarm Controller\PIC Code\SMTP.c
              __string_15   0x005f7f    program     static C:\Documents and Settings\Administrator\My Documents\Alarm Controller\PIC Code\SMTP.c
              __string_14   0x005f86    program     static C:\Documents and Settings\Administrator\My Documents\Alarm Controller\PIC Code\SMTP.c
              __string_13   0x005f8a    program     static C:\Documents and Settings\Administrator\My Documents\Alarm Controller\PIC Code\SMTP.c
              __string_12   0x005f8f    program     static C:\Documents and Settings\Administrator\My Documents\Alarm Controller\PIC Code\SMTP.c
              __string_11   0x005f92    program     static C:\Documents and Settings\Administrator\My Documents\Alarm Controller\PIC Code\SMTP.c
              __string_10   0x005f97    program     static C:\Documents and Settings\Administrator\My Documents\Alarm Controller\PIC Code\SMTP.c
               __string_9   0x005f9e    program     static C:\Documents and Settings\Administrator\My Documents\Alarm Controller\PIC Code\SMTP.c
               __string_8   0x005fa1    program     static C:\Documents and Settings\Administrator\My Documents\Alarm Controller\PIC Code\SMTP.c
               __string_7   0x005fa9    program     static C:\Documents and Settings\Administrator\My Documents\Alarm Controller\PIC Code\SMTP.c
               __string_6   0x005fba    program     static C:\Documents and Settings\Administrator\My Documents\Alarm Controller\PIC Code\SMTP.c
               __string_5   0x005fc4    program     static C:\Documents and Settings\Administrator\My Documents\Alarm Controller\PIC Code\SMTP.c
               __string_4   0x005fcf    program     static C:\Documents and Settings\Administrator\My Documents\Alarm Controller\PIC Code\SMTP.c
               __string_3   0x005fdb    program     static C:\Documents and Settings\Administrator\My Documents\Alarm Controller\PIC Code\SMTP.c
               __string_2   0x005fe6    program     static C:\Documents and Settings\Administrator\My Documents\Alarm Controller\PIC Code\SMTP.c
               __string_1   0x005ff3    program     static C:\Documents and Settings\Administrator\My Documents\Alarm Controller\PIC Code\SMTP.c
               __string_0   0x006001    program     static C:\Documents and Settings\Administrator\My Documents\Alarm Controller\PIC Code\SMTP.c
               __string_4   0x00600b    program     static C:\Documents and Settings\Administrator\My Documents\Alarm Controller\PIC Code\Battery.c
               __string_3   0x006049    program     static C:\Documents and Settings\Administrator\My Documents\Alarm Controller\PIC Code\Battery.c
               __string_2   0x006050    program     static C:\Documents and Settings\Administrator\My Documents\Alarm Controller\PIC Code\Battery.c
               __string_1   0x00605e    program     static C:\Documents and Settings\Administrator\My Documents\Alarm Controller\PIC Code\Battery.c
               __string_0   0x006067    program     static C:\Documents and Settings\Administrator\My Documents\Alarm Controller\PIC Code\Battery.c
              __string_16   0x006074    program     static C:\Documents and Settings\Administrator\My Documents\Alarm Controller\PIC Code\EOL.c
              __string_15   0x006086    program     static C:\Documents and Settings\Administrator\My Documents\Alarm Controller\PIC Code\EOL.c
              __string_14   0x006092    program     static C:\Documents and Settings\Administrator\My Documents\Alarm Controller\PIC Code\EOL.c
              __string_13   0x006098    program     static C:\Documents and Settings\Administrator\My Documents\Alarm Controller\PIC Code\EOL.c
              __string_12   0x0060a8    program     static C:\Documents and Settings\Administrator\My Documents\Alarm Controller\PIC Code\EOL.c
              __string_11   0x0060b7    program     static C:\Documents and Settings\Administrator\My Documents\Alarm Controller\PIC Code\EOL.c
              __string_10   0x0060ce    program     static C:\Documents and Settings\Administrator\My Documents\Alarm Controller\PIC Code\EOL.c
               __string_9   0x0060e4    program     static C:\Documents and Settings\Administrator\My Documents\Alarm Controller\PIC Code\EOL.c
               __string_8   0x0060fd    program     static C:\Documents and Settings\Administrator\My Documents\Alarm Controller\PIC Code\EOL.c
               __string_7   0x006112    program     static C:\Documents and Settings\Administrator\My Documents\Alarm Controller\PIC Code\EOL.c
               __string_6   0x006123    program     static C:\Documents and Settings\Administrator\My Documents\Alarm Controller\PIC Code\EOL.c
               __string_5   0x00612a    program     static C:\Documents and Settings\Administrator\My Documents\Alarm Controller\PIC Code\EOL.c
               __string_4   0x006131    program     static C:\Documents and Settings\Administrator\My Documents\Alarm Controller\PIC Code\EOL.c
               __string_3   0x006139    program     static C:\Documents and Settings\Administrator\My Documents\Alarm Controller\PIC Code\EOL.c
               __string_2   0x006140    program     static C:\Documents and Settings\Administrator\My Documents\Alarm Controller\PIC Code\EOL.c
               __string_1   0x006143    program     static C:\Documents and Settings\Administrator\My Documents\Alarm Controller\PIC Code\EOL.c
               __string_0   0x006145    program     static C:\Documents and Settings\Administrator\My Documents\Alarm Controller\PIC Code\EOL.c
              __string_13   0x00616a    program     static C:\Documents and Settings\Administrator\My Documents\Alarm Controller\PIC Code\SNTP Customised.c
              __string_12   0x00617f    program     static C:\Documents and Settings\Administrator\My Documents\Alarm Controller\PIC Code\SNTP Customised.c
              __string_11   0x006193    program     static C:\Documents and Settings\Administrator\My Documents\Alarm Controller\PIC Code\SNTP Customised.c
              __string_10   0x0061a4    program     static C:\Documents and Settings\Administrator\My Documents\Alarm Controller\PIC Code\SNTP Customised.c
               __string_9   0x0061b7    program     static C:\Documents and Settings\Administrator\My Documents\Alarm Controller\PIC Code\SNTP Customised.c
               __string_8   0x0061c9    program     static C:\Documents and Settings\Administrator\My Documents\Alarm Controller\PIC Code\SNTP Customised.c
               __string_7   0x0061ed    program     static C:\Documents and Settings\Administrator\My Documents\Alarm Controller\PIC Code\SNTP Customised.c
               __string_6   0x00620c    program     static C:\Documents and Settings\Administrator\My Documents\Alarm Controller\PIC Code\SNTP Customised.c
               __string_5   0x00621c    program     static C:\Documents and Settings\Administrator\My Documents\Alarm Controller\PIC Code\SNTP Customised.c
               __string_4   0x00622f    program     static C:\Documents and Settings\Administrator\My Documents\Alarm Controller\PIC Code\SNTP Customised.c
               __string_3   0x00623c    program     static C:\Documents and Settings\Administrator\My Documents\Alarm Controller\PIC Code\SNTP Customised.c
               __string_2   0x006245    program     static C:\Documents and Settings\Administrator\My Documents\Alarm Controller\PIC Code\SNTP Customised.c
               __string_1   0x00624f    program     static C:\Documents and Settings\Administrator\My Documents\Alarm Controller\PIC Code\SNTP Customised.c
               __string_0   0x006259    program     static C:\Documents and Settings\Administrator\My Documents\Alarm Controller\PIC Code\SNTP Customised.c
               __string_8   0x006264    program     static C:\Documents and Settings\Administrator\My Documents\Alarm Controller\PIC Code\HTTPDynVariables.c
               __string_7   0x006266    program     static C:\Documents and Settings\Administrator\My Documents\Alarm Controller\PIC Code\HTTPDynVariables.c
               __string_6   0x006268    program     static C:\Documents and Settings\Administrator\My Documents\Alarm Controller\PIC Code\HTTPDynVariables.c
               __string_5   0x00626e    program     static C:\Documents and Settings\Administrator\My Documents\Alarm Controller\PIC Code\HTTPDynVariables.c
               __string_4   0x00627d    program     static C:\Documents and Settings\Administrator\My Documents\Alarm Controller\PIC Code\HTTPDynVariables.c
               __string_3   0x006288    program     static C:\Documents and Settings\Administrator\My Documents\Alarm Controller\PIC Code\HTTPDynVariables.c
               __string_2   0x006290    program     static C:\Documents and Settings\Administrator\My Documents\Alarm Controller\PIC Code\HTTPDynVariables.c
               __string_1   0x00629c    program     static C:\Documents and Settings\Administrator\My Documents\Alarm Controller\PIC Code\HTTPDynVariables.c
               __string_0   0x0062a5    program     static C:\Documents and Settings\Administrator\My Documents\Alarm Controller\PIC Code\HTTPDynVariables.c
               SchemaInit   0x0062ae    program     extern C:\Documents and Settings\Administrator\My Documents\Alarm Controller\PIC Code\SecuritySystem.c
        LoadDefaultConfig   0x006578    program     static C:\Documents and Settings\Administrator\My Documents\Alarm Controller\PIC Code\SecuritySystem.c
        xPLFactoryRestart   0x006722    program     extern C:\Documents and Settings\Administrator\My Documents\Alarm Controller\PIC Code\SecuritySystem.c
           ___if_lbl00028   0x006792    program     static                          
        ___while_lbl00029   0x006804    program     static                          
        ___while_lbl00030   0x00680e    program     static                          
          ___for_lbl00035   0x006828    program     static                          
             __tmplbl_101   0x00683e    program     static                          
               __tmplbl_0   0x006850    program     static                          
             __tmplbl_102   0x006868    program     static                          
        ___while_lbl00033   0x00688c    program     static                          
          ___for_lbl00031   0x006896    program     static                          
        ___while_lbl00034   0x006896    program     static                          
          ___for_lbl00032   0x0068a0    program     static                          
       ___return_lbl00027   0x0068c6    program     static                          
              SchemaTasks   0x0068ce    program     extern C:\Documents and Settings\Administrator\My Documents\Alarm Controller\PIC Code\SecuritySystem.c
                  IOTasks   0x006cde    program     static C:\Documents and Settings\Administrator\My Documents\Alarm Controller\PIC Code\SecuritySystem.c
    StateChangeToAlarming   0x006ec4    program     static C:\Documents and Settings\Administrator\My Documents\Alarm Controller\PIC Code\SecuritySystem.c
     StateChangeToAlarmed   0x006ffc    program     static C:\Documents and Settings\Administrator\My Documents\Alarm Controller\PIC Code\SecuritySystem.c
             TaskAlarming   0x007030    program     static C:\Documents and Settings\Administrator\My Documents\Alarm Controller\PIC Code\SecuritySystem.c
              TaskAlarmed   0x00713c    program     static C:\Documents and Settings\Administrator\My Documents\Alarm Controller\PIC Code\SecuritySystem.c
         ClearArmingFlags   0x00713e    program     extern C:\Documents and Settings\Administrator\My Documents\Alarm Controller\PIC Code\SecuritySystem.c
                      Arm   0x007180    program     extern C:\Documents and Settings\Administrator\My Documents\Alarm Controller\PIC Code\SecuritySystem.c
                  ArmHome   0x007242    program     extern C:\Documents and Settings\Administrator\My Documents\Alarm Controller\PIC Code\SecuritySystem.c
                  ArmAway   0x0072a6    program     extern C:\Documents and Settings\Administrator\My Documents\Alarm Controller\PIC Code\SecuritySystem.c
              ArmLatchkey   0x0072e4    program     extern C:\Documents and Settings\Administrator\My Documents\Alarm Controller\PIC Code\SecuritySystem.c
                    Panic   0x00732c    program     extern C:\Documents and Settings\Administrator\My Documents\Alarm Controller\PIC Code\SecuritySystem.c
         StateChangeToArm   0x007368    program     static C:\Documents and Settings\Administrator\My Documents\Alarm Controller\PIC Code\SecuritySystem.c
   StateChangeToArmFailed   0x007588    program     static C:\Documents and Settings\Administrator\My Documents\Alarm Controller\PIC Code\SecuritySystem.c
       isZoneMemberOfArea   0x00763e    program     extern C:\Documents and Settings\Administrator\My Documents\Alarm Controller\PIC Code\SecuritySystem.c
            SetArmingArea   0x0076fa    program     extern C:\Documents and Settings\Administrator\My Documents\Alarm Controller\PIC Code\SecuritySystem.c
                SetArming   0x007702    program     extern C:\Documents and Settings\Administrator\My Documents\Alarm Controller\PIC Code\SecuritySystem.c
          ArmingZoneState   0x007890    program     static C:\Documents and Settings\Administrator\My Documents\Alarm Controller\PIC Code\SecuritySystem.c
      SchemaProcessUDPMsg   0x0078da    program     extern C:\Documents and Settings\Administrator\My Documents\Alarm Controller\PIC Code\SecuritySystem.c
              __tmplbl_67   0x007900    program     static                          
              __tmplbl_66   0x00790a    program     static                          
        ___while_lbl00306   0x007924    program     static                          
           ___if_lbl00309   0x007990    program     static                          
           ___if_lbl00308   0x007990    program     static                          
           ___if_lbl00310   0x0079c6    program     static                          
           ___if_lbl00311   0x0079fc    program     static                          
         ___else_lbl00313   0x007a46    program     static                          
           ___if_lbl00314   0x007a5c    program     static                          
           ___if_lbl00312   0x007a5c    program     static                          
         ___else_lbl00316   0x007aca    program     static                          
           ___if_lbl00317   0x007ad0    program     static                          
           ___if_lbl00315   0x007ad0    program     static                          
         ___else_lbl00319   0x007b3e    program     static                          
           ___if_lbl00318   0x007b44    program     static                          
           ___if_lbl00320   0x007b44    program     static                          
        ___while_lbl00307   0x007b46    program     static                          
              __tmplbl_68   0x007b62    program     static                          
              __tmplbl_69   0x007b6c    program     static                          
              __tmplbl_70   0x007b76    program     static                          
              __tmplbl_71   0x007b80    program     static                          
              __tmplbl_72   0x007b8a    program     static                          
              __tmplbl_73   0x007b94    program     static                          
              __tmplbl_74   0x007b9e    program     static                          
              __tmplbl_75   0x007ba8    program     static                          
              __tmplbl_76   0x007bb0    program     static                          
       ___case_0_lbl00322   0x007bb4    program     static                          
       ___case_1_lbl00323   0x007bc4    program     static                          
       ___case_2_lbl00324   0x007bd4    program     static                          
       ___case_3_lbl00325   0x007be4    program     static                          
       ___case_4_lbl00326   0x007bf4    program     static                          
       ___case_5_lbl00327   0x007bf8    program     static                          
       ___case_6_lbl00328   0x007bfe    program     static                          
       ___case_7_lbl00329   0x007c0a    program     static                          
       ___case_8_lbl00330   0x007c16    program     static                          
      ___default_lbl00331   0x007c22    program     static                          
           ___if_lbl00332   0x007c34    program     static                          
           ___if_lbl00333   0x007c34    program     static                          
   ___switchexit_lbl00321   0x007c34    program     static                          
              __tmplbl_77   0x007c52    program     static                          
              __tmplbl_78   0x007c5c    program     static                          
              __tmplbl_79   0x007c66    program     static                          
              __tmplbl_80   0x007c70    program     static                          
              __tmplbl_81   0x007c7a    program     static                          
              __tmplbl_82   0x007c84    program     static                          
              __tmplbl_83   0x007c8e    program     static                          
              __tmplbl_84   0x007c96    program     static                          
       ___case_0_lbl00335   0x007c9a    program     static                          
       ___case_1_lbl00336   0x007ca6    program     static                          
       ___case_2_lbl00337   0x007cb2    program     static                          
       ___case_3_lbl00338   0x007cbe    program     static                          
       ___case_4_lbl00339   0x007cca    program     static                          
       ___case_5_lbl00340   0x007cd6    program     static                          
       ___case_6_lbl00341   0x007ce2    program     static                          
       ___case_7_lbl00342   0x007cee    program     static                          
      ___default_lbl00343   0x007cfa    program     static                          
           ___if_lbl00346   0x007d0c    program     static                          
   ___switchexit_lbl00334   0x007d0c    program     static                          
           ___if_lbl00344   0x007d0c    program     static                          
           ___if_lbl00345   0x007d0c    program     static                          
              __tmplbl_86   0x007d14    program     static                          
              __tmplbl_85   0x007d1c    program     static                          
         ___else_lbl00372   0x007d68    program     static                          
           ___if_lbl00348   0x007d78    program     static                          
           ___if_lbl00349   0x007d8a    program     static                          
        ___while_lbl00350   0x007d94    program     static                          
          ___for_lbl00359   0x007de2    program     static                          
              __tmplbl_88   0x007df6    program     static                          
              __tmplbl_87   0x007e02    program     static                          
              __tmplbl_90   0x007e1e    program     static                          
              __tmplbl_89   0x007e34    program     static                          
           ___if_lbl00356   0x007e50    program     static                          
              __tmplbl_92   0x007e66    program     static                          
              __tmplbl_91   0x007e82    program     static                          
           ___if_lbl00358   0x007e94    program     static                          
          ___for_lbl00352   0x007e94    program     static                          
          ___for_lbl00353   0x007e9e    program     static                          
           ___if_lbl00360   0x007ed4    program     static                          
           ___if_lbl00361   0x007f06    program     static                          
           ___if_lbl00362   0x007f7a    program     static                          
           ___if_lbl00363   0x007fac    program     static                          
         ___else_lbl00365   0x008056    program     static                          
           ___if_lbl00366   0x008068    program     static                          
           ___if_lbl00364   0x008068    program     static                          
         ___else_lbl00368   0x008112    program     static                          
           ___if_lbl00367   0x008124    program     static                          
           ___if_lbl00369   0x008124    program     static                          
        ___while_lbl00351   0x008126    program     static                          
       ___return_lbl00304   0x00813a    program     static                          
           ___if_lbl00373   0x00813a    program     static                          
           ___if_lbl00371   0x00813a    program     static                          
           ___if_lbl00370   0x00813a    program     static                          
                   Disarm   0x008142    program     extern C:\Documents and Settings\Administrator\My Documents\Alarm Controller\PIC Code\SecuritySystem.c
              IsolateZone   0x0081a0    program     extern C:\Documents and Settings\Administrator\My Documents\Alarm Controller\PIC Code\SecuritySystem.c
              IsolateArea   0x0081d0    program     extern C:\Documents and Settings\Administrator\My Documents\Alarm Controller\PIC Code\SecuritySystem.c
               bypassZone   0x008228    program     extern C:\Documents and Settings\Administrator\My Documents\Alarm Controller\PIC Code\SecuritySystem.c
               bypassArea   0x00824a    program     extern C:\Documents and Settings\Administrator\My Documents\Alarm Controller\PIC Code\SecuritySystem.c
               EnableZone   0x0082ac    program     extern C:\Documents and Settings\Administrator\My Documents\Alarm Controller\PIC Code\SecuritySystem.c
               EnableArea   0x00830e    program     extern C:\Documents and Settings\Administrator\My Documents\Alarm Controller\PIC Code\SecuritySystem.c
                   __pa_0   0x0083b8    program     static C:\Documents and Settings\Administrator\My Documents\Alarm Controller\PIC Code\SecuritySystem.c
                   __pa_1   0x0083c6    program     static C:\Documents and Settings\Administrator\My Documents\Alarm Controller\PIC Code\SecuritySystem.c
                   __pa_2   0x0083d4    program     static C:\Documents and Settings\Administrator\My Documents\Alarm Controller\PIC Code\SecuritySystem.c
                   __pa_3   0x0083e2    program     static C:\Documents and Settings\Administrator\My Documents\Alarm Controller\PIC Code\SecuritySystem.c
                   __pa_4   0x0083f0    program     static C:\Documents and Settings\Administrator\My Documents\Alarm Controller\PIC Code\SecuritySystem.c
                   __pa_5   0x00841a    program     static C:\Documents and Settings\Administrator\My Documents\Alarm Controller\PIC Code\SecuritySystem.c
                   __pa_6   0x008420    program     static C:\Documents and Settings\Administrator\My Documents\Alarm Controller\PIC Code\SecuritySystem.c
                   __pa_7   0x00842a    program     static C:\Documents and Settings\Administrator\My Documents\Alarm Controller\PIC Code\SecuritySystem.c
                   __pa_8   0x008436    program     static C:\Documents and Settings\Administrator\My Documents\Alarm Controller\PIC Code\SecuritySystem.c
                   __pa_9   0x008442    program     static C:\Documents and Settings\Administrator\My Documents\Alarm Controller\PIC Code\SecuritySystem.c
                  __pa_10   0x008456    program     static C:\Documents and Settings\Administrator\My Documents\Alarm Controller\PIC Code\SecuritySystem.c
                  __pa_11   0x008460    program     static C:\Documents and Settings\Administrator\My Documents\Alarm Controller\PIC Code\SecuritySystem.c
                  __pa_12   0x00846c    program     static C:\Documents and Settings\Administrator\My Documents\Alarm Controller\PIC Code\SecuritySystem.c
                  __pa_13   0x008488    program     static C:\Documents and Settings\Administrator\My Documents\Alarm Controller\PIC Code\SecuritySystem.c
                  __pa_14   0x00849a    program     static C:\Documents and Settings\Administrator\My Documents\Alarm Controller\PIC Code\SecuritySystem.c
                  __pa_15   0x0084a4    program     static C:\Documents and Settings\Administrator\My Documents\Alarm Controller\PIC Code\SecuritySystem.c
                  __pa_16   0x0084b6    program     static C:\Documents and Settings\Administrator\My Documents\Alarm Controller\PIC Code\SecuritySystem.c
                  __pa_17   0x0084c2    program     static C:\Documents and Settings\Administrator\My Documents\Alarm Controller\PIC Code\SecuritySystem.c
                  __pa_18   0x0084d8    program     static C:\Documents and Settings\Administrator\My Documents\Alarm Controller\PIC Code\SecuritySystem.c
                  __pa_19   0x0084e2    program     static C:\Documents and Settings\Administrator\My Documents\Alarm Controller\PIC Code\SecuritySystem.c
                  __pa_20   0x0084ec    program     static C:\Documents and Settings\Administrator\My Documents\Alarm Controller\PIC Code\SecuritySystem.c
                  __pa_21   0x0084f4    program     static C:\Documents and Settings\Administrator\My Documents\Alarm Controller\PIC Code\SecuritySystem.c
                  __pa_22   0x008508    program     static C:\Documents and Settings\Administrator\My Documents\Alarm Controller\PIC Code\SecuritySystem.c
                  __pa_23   0x008518    program     static C:\Documents and Settings\Administrator\My Documents\Alarm Controller\PIC Code\SecuritySystem.c
                  __pa_24   0x008520    program     static C:\Documents and Settings\Administrator\My Documents\Alarm Controller\PIC Code\SecuritySystem.c
                  __pa_25   0x008532    program     static C:\Documents and Settings\Administrator\My Documents\Alarm Controller\PIC Code\SecuritySystem.c
             __tmplbl_166   0x008538    program     static                          
             __tmplbl_174   0x008538    program     static                          
                  __pa_26   0x008538    program     static C:\Documents and Settings\Administrator\My Documents\Alarm Controller\PIC Code\SecuritySystem.c
             __tmplbl_155   0x008538    program     static                          
                  __pa_27   0x008540    program     static C:\Documents and Settings\Administrator\My Documents\Alarm Controller\PIC Code\SecuritySystem.c
                  __pa_28   0x008566    program     static C:\Documents and Settings\Administrator\My Documents\Alarm Controller\PIC Code\SecuritySystem.c
                  __pa_29   0x00856e    program     static C:\Documents and Settings\Administrator\My Documents\Alarm Controller\PIC Code\SecuritySystem.c
                  __pa_30   0x008578    program     static C:\Documents and Settings\Administrator\My Documents\Alarm Controller\PIC Code\SecuritySystem.c
                  __pa_31   0x008584    program     static C:\Documents and Settings\Administrator\My Documents\Alarm Controller\PIC Code\SecuritySystem.c
                  __pa_32   0x008590    program     static C:\Documents and Settings\Administrator\My Documents\Alarm Controller\PIC Code\SecuritySystem.c
                  __pa_33   0x00859c    program     static C:\Documents and Settings\Administrator\My Documents\Alarm Controller\PIC Code\SecuritySystem.c
                  __pa_34   0x0085a4    program     static C:\Documents and Settings\Administrator\My Documents\Alarm Controller\PIC Code\SecuritySystem.c
                  __pa_35   0x0085ae    program     static C:\Documents and Settings\Administrator\My Documents\Alarm Controller\PIC Code\SecuritySystem.c
                  __pa_36   0x0085b8    program     static C:\Documents and Settings\Administrator\My Documents\Alarm Controller\PIC Code\SecuritySystem.c
                  __pa_37   0x0085c2    program     static C:\Documents and Settings\Administrator\My Documents\Alarm Controller\PIC Code\SecuritySystem.c
                  __pa_38   0x0085d0    program     static C:\Documents and Settings\Administrator\My Documents\Alarm Controller\PIC Code\SecuritySystem.c
                  __pa_39   0x0085da    program     static C:\Documents and Settings\Administrator\My Documents\Alarm Controller\PIC Code\SecuritySystem.c
                  __pa_40   0x0085e4    program     static C:\Documents and Settings\Administrator\My Documents\Alarm Controller\PIC Code\SecuritySystem.c
                  __pa_41   0x0085fa    program     static C:\Documents and Settings\Administrator\My Documents\Alarm Controller\PIC Code\SecuritySystem.c
                  __pa_42   0x008604    program     static C:\Documents and Settings\Administrator\My Documents\Alarm Controller\PIC Code\SecuritySystem.c
                  __pa_43   0x00860c    program     static C:\Documents and Settings\Administrator\My Documents\Alarm Controller\PIC Code\SecuritySystem.c
                  __pa_44   0x008618    program     static C:\Documents and Settings\Administrator\My Documents\Alarm Controller\PIC Code\SecuritySystem.c
                  __pa_45   0x008620    program     static C:\Documents and Settings\Administrator\My Documents\Alarm Controller\PIC Code\SecuritySystem.c
             __tmplbl_165   0x00862a    program     static                          
             __tmplbl_164   0x00862a    program     static                          
             __tmplbl_141   0x00862a    program     static                          
                  __pa_46   0x00862a    program     static C:\Documents and Settings\Administrator\My Documents\Alarm Controller\PIC Code\SecuritySystem.c
             __tmplbl_146   0x00862a    program     static                          
                  __pa_47   0x008632    program     static C:\Documents and Settings\Administrator\My Documents\Alarm Controller\PIC Code\SecuritySystem.c
                  __pa_48   0x008640    program     static C:\Documents and Settings\Administrator\My Documents\Alarm Controller\PIC Code\SecuritySystem.c
                  __pa_49   0x00864e    program     static C:\Documents and Settings\Administrator\My Documents\Alarm Controller\PIC Code\SecuritySystem.c
              __tmplbl_97   0x00865c    program     static                          
             __tmplbl_129   0x00865c    program     static                          
                  __pa_50   0x00865c    program     static C:\Documents and Settings\Administrator\My Documents\Alarm Controller\PIC Code\SecuritySystem.c
                  __pa_51   0x00866c    program     static C:\Documents and Settings\Administrator\My Documents\Alarm Controller\PIC Code\SecuritySystem.c
                  __pa_52   0x00867e    program     static C:\Documents and Settings\Administrator\My Documents\Alarm Controller\PIC Code\SecuritySystem.c
                  __pa_53   0x008690    program     static C:\Documents and Settings\Administrator\My Documents\Alarm Controller\PIC Code\SecuritySystem.c
                  __pa_54   0x00869a    program     static C:\Documents and Settings\Administrator\My Documents\Alarm Controller\PIC Code\SecuritySystem.c
                  __pa_55   0x0086a0    program     static C:\Documents and Settings\Administrator\My Documents\Alarm Controller\PIC Code\SecuritySystem.c
                  __pa_56   0x0086aa    program     static C:\Documents and Settings\Administrator\My Documents\Alarm Controller\PIC Code\SecuritySystem.c
                  __pa_57   0x0086b2    program     static C:\Documents and Settings\Administrator\My Documents\Alarm Controller\PIC Code\SecuritySystem.c
                  __pa_58   0x0086c2    program     static C:\Documents and Settings\Administrator\My Documents\Alarm Controller\PIC Code\SecuritySystem.c
                  __pa_59   0x0086ce    program     static C:\Documents and Settings\Administrator\My Documents\Alarm Controller\PIC Code\SecuritySystem.c
                  __pa_60   0x0086da    program     static C:\Documents and Settings\Administrator\My Documents\Alarm Controller\PIC Code\SecuritySystem.c
                  __pa_61   0x0086e0    program     static C:\Documents and Settings\Administrator\My Documents\Alarm Controller\PIC Code\SecuritySystem.c
                  __pa_62   0x0086ea    program     static C:\Documents and Settings\Administrator\My Documents\Alarm Controller\PIC Code\SecuritySystem.c
                  __pa_63   0x0086f4    program     static C:\Documents and Settings\Administrator\My Documents\Alarm Controller\PIC Code\SecuritySystem.c
                  __pa_64   0x0086fa    program     static C:\Documents and Settings\Administrator\My Documents\Alarm Controller\PIC Code\SecuritySystem.c
                  __pa_65   0x008700    program     static C:\Documents and Settings\Administrator\My Documents\Alarm Controller\PIC Code\SecuritySystem.c
                  __pa_66   0x008706    program     static C:\Documents and Settings\Administrator\My Documents\Alarm Controller\PIC Code\SecuritySystem.c
                  __pa_67   0x00871c    program     static C:\Documents and Settings\Administrator\My Documents\Alarm Controller\PIC Code\SecuritySystem.c
                  __pa_68   0x008728    program     static C:\Documents and Settings\Administrator\My Documents\Alarm Controller\PIC Code\SecuritySystem.c
                  __pa_69   0x008732    program     static C:\Documents and Settings\Administrator\My Documents\Alarm Controller\PIC Code\SecuritySystem.c
                  __pa_70   0x008740    program     static C:\Documents and Settings\Administrator\My Documents\Alarm Controller\PIC Code\SecuritySystem.c
                  __pa_71   0x00874c    program     static C:\Documents and Settings\Administrator\My Documents\Alarm Controller\PIC Code\SecuritySystem.c
                  __pa_72   0x00875c    program     static C:\Documents and Settings\Administrator\My Documents\Alarm Controller\PIC Code\SecuritySystem.c
                  __pa_73   0x008778    program     static C:\Documents and Settings\Administrator\My Documents\Alarm Controller\PIC Code\SecuritySystem.c
                  __pa_74   0x00878e    program     static C:\Documents and Settings\Administrator\My Documents\Alarm Controller\PIC Code\SecuritySystem.c
                  __pa_75   0x008794    program     static C:\Documents and Settings\Administrator\My Documents\Alarm Controller\PIC Code\SecuritySystem.c
                  __pa_76   0x0087a6    program     static C:\Documents and Settings\Administrator\My Documents\Alarm Controller\PIC Code\SecuritySystem.c
                  __pa_77   0x0087b2    program     static C:\Documents and Settings\Administrator\My Documents\Alarm Controller\PIC Code\SecuritySystem.c
                  __pa_78   0x0087be    program     static C:\Documents and Settings\Administrator\My Documents\Alarm Controller\PIC Code\SecuritySystem.c
                  __pa_79   0x0087ca    program     static C:\Documents and Settings\Administrator\My Documents\Alarm Controller\PIC Code\SecuritySystem.c
                  __pa_80   0x0087e0    program     static C:\Documents and Settings\Administrator\My Documents\Alarm Controller\PIC Code\SecuritySystem.c
                  __pa_81   0x0087e6    program     static C:\Documents and Settings\Administrator\My Documents\Alarm Controller\PIC Code\SecuritySystem.c
                  __pa_82   0x0087fc    program     static C:\Documents and Settings\Administrator\My Documents\Alarm Controller\PIC Code\SecuritySystem.c
                  __pa_83   0x008802    program     static C:\Documents and Settings\Administrator\My Documents\Alarm Controller\PIC Code\SecuritySystem.c
                  __pa_84   0x008812    program     static C:\Documents and Settings\Administrator\My Documents\Alarm Controller\PIC Code\SecuritySystem.c
                  __pa_85   0x00881e    program     static C:\Documents and Settings\Administrator\My Documents\Alarm Controller\PIC Code\SecuritySystem.c
                  __pa_86   0x008830    program     static C:\Documents and Settings\Administrator\My Documents\Alarm Controller\PIC Code\SecuritySystem.c
                  __pa_87   0x00883c    program     static C:\Documents and Settings\Administrator\My Documents\Alarm Controller\PIC Code\SecuritySystem.c
                  __pa_88   0x008844    program     static C:\Documents and Settings\Administrator\My Documents\Alarm Controller\PIC Code\SecuritySystem.c
                  __pa_89   0x00884c    program     static C:\Documents and Settings\Administrator\My Documents\Alarm Controller\PIC Code\SecuritySystem.c
                  __pa_90   0x008856    program     static C:\Documents and Settings\Administrator\My Documents\Alarm Controller\PIC Code\SecuritySystem.c
                  __pa_91   0x00885c    program     static C:\Documents and Settings\Administrator\My Documents\Alarm Controller\PIC Code\SecuritySystem.c
                  __pa_92   0x008870    program     static C:\Documents and Settings\Administrator\My Documents\Alarm Controller\PIC Code\SecuritySystem.c
                  __pa_93   0x00887c    program     static C:\Documents and Settings\Administrator\My Documents\Alarm Controller\PIC Code\SecuritySystem.c
                  __pa_94   0x008890    program     static C:\Documents and Settings\Administrator\My Documents\Alarm Controller\PIC Code\SecuritySystem.c
                  __pa_95   0x00889c    program     static C:\Documents and Settings\Administrator\My Documents\Alarm Controller\PIC Code\SecuritySystem.c
                  __pa_96   0x0088a8    program     static C:\Documents and Settings\Administrator\My Documents\Alarm Controller\PIC Code\SecuritySystem.c
                  __pa_97   0x0088ae    program     static C:\Documents and Settings\Administrator\My Documents\Alarm Controller\PIC Code\SecuritySystem.c
                  __pa_98   0x0088b4    program     static C:\Documents and Settings\Administrator\My Documents\Alarm Controller\PIC Code\SecuritySystem.c
                  __pa_99   0x0088c4    program     static C:\Documents and Settings\Administrator\My Documents\Alarm Controller\PIC Code\SecuritySystem.c
                 __pa_100   0x0088ce    program     static C:\Documents and Settings\Administrator\My Documents\Alarm Controller\PIC Code\SecuritySystem.c
                 __pa_101   0x0088d8    program     static C:\Documents and Settings\Administrator\My Documents\Alarm Controller\PIC Code\SecuritySystem.c
                 __pa_102   0x0088e0    program     static C:\Documents and Settings\Administrator\My Documents\Alarm Controller\PIC Code\SecuritySystem.c
                 __pa_103   0x0088ea    program     static C:\Documents and Settings\Administrator\My Documents\Alarm Controller\PIC Code\SecuritySystem.c
                 __pa_104   0x0088f4    program     static C:\Documents and Settings\Administrator\My Documents\Alarm Controller\PIC Code\SecuritySystem.c
                 __pa_105   0x008902    program     static C:\Documents and Settings\Administrator\My Documents\Alarm Controller\PIC Code\SecuritySystem.c
                 __pa_106   0x00890a    program     static C:\Documents and Settings\Administrator\My Documents\Alarm Controller\PIC Code\SecuritySystem.c
                 __pa_107   0x008914    program     static C:\Documents and Settings\Administrator\My Documents\Alarm Controller\PIC Code\SecuritySystem.c
                 __pa_108   0x00892e    program     static C:\Documents and Settings\Administrator\My Documents\Alarm Controller\PIC Code\SecuritySystem.c
                 __pa_109   0x00893a    program     static C:\Documents and Settings\Administrator\My Documents\Alarm Controller\PIC Code\SecuritySystem.c
                 __pa_110   0x008948    program     static C:\Documents and Settings\Administrator\My Documents\Alarm Controller\PIC Code\SecuritySystem.c
                 __pa_111   0x008956    program     static C:\Documents and Settings\Administrator\My Documents\Alarm Controller\PIC Code\SecuritySystem.c
                 __pa_112   0x00896a    program     static C:\Documents and Settings\Administrator\My Documents\Alarm Controller\PIC Code\SecuritySystem.c
                 __pa_113   0x008972    program     static C:\Documents and Settings\Administrator\My Documents\Alarm Controller\PIC Code\SecuritySystem.c
                 __pa_114   0x00897a    program     static C:\Documents and Settings\Administrator\My Documents\Alarm Controller\PIC Code\SecuritySystem.c
                 __pa_115   0x008980    program     static C:\Documents and Settings\Administrator\My Documents\Alarm Controller\PIC Code\SecuritySystem.c
                 __pa_116   0x008986    program     static C:\Documents and Settings\Administrator\My Documents\Alarm Controller\PIC Code\SecuritySystem.c
                 __pa_117   0x00898c    program     static C:\Documents and Settings\Administrator\My Documents\Alarm Controller\PIC Code\SecuritySystem.c
                 __pa_118   0x008992    program     static C:\Documents and Settings\Administrator\My Documents\Alarm Controller\PIC Code\SecuritySystem.c
                 __pa_119   0x00899e    program     static C:\Documents and Settings\Administrator\My Documents\Alarm Controller\PIC Code\SecuritySystem.c
                 __pa_120   0x0089a6    program     static C:\Documents and Settings\Administrator\My Documents\Alarm Controller\PIC Code\SecuritySystem.c
                 __pa_121   0x0089b4    program     static C:\Documents and Settings\Administrator\My Documents\Alarm Controller\PIC Code\SecuritySystem.c
                 __pa_122   0x0089c2    program     static C:\Documents and Settings\Administrator\My Documents\Alarm Controller\PIC Code\SecuritySystem.c
             __tmplbl_149   0x0089c2    program     static                          
             __tmplbl_152   0x0089c2    program     static                          
                 __pa_123   0x0089ca    program     static C:\Documents and Settings\Administrator\My Documents\Alarm Controller\PIC Code\SecuritySystem.c
                 __pa_124   0x0089d4    program     static C:\Documents and Settings\Administrator\My Documents\Alarm Controller\PIC Code\SecuritySystem.c
                 __pa_125   0x0089de    program     static C:\Documents and Settings\Administrator\My Documents\Alarm Controller\PIC Code\SecuritySystem.c
                 __pa_126   0x0089e4    program     static C:\Documents and Settings\Administrator\My Documents\Alarm Controller\PIC Code\SecuritySystem.c
                 __pa_127   0x0089ec    program     static C:\Documents and Settings\Administrator\My Documents\Alarm Controller\PIC Code\SecuritySystem.c
                 __pa_128   0x0089f2    program     static C:\Documents and Settings\Administrator\My Documents\Alarm Controller\PIC Code\SecuritySystem.c
                 __pa_129   0x0089f8    program     static C:\Documents and Settings\Administrator\My Documents\Alarm Controller\PIC Code\SecuritySystem.c
                 __pa_130   0x0089fe    program     static C:\Documents and Settings\Administrator\My Documents\Alarm Controller\PIC Code\SecuritySystem.c
                 __pa_131   0x008a0a    program     static C:\Documents and Settings\Administrator\My Documents\Alarm Controller\PIC Code\SecuritySystem.c
                HTTPPrint   0x008a12    program     extern C:\Documents and Settings\Administrator\My Documents\Alarm Controller\PIC Code\HTTPPrint.h
             __tmplbl_248   0x0097d8    program     static                          
             __tmplbl_247   0x0097de    program     static                          
             __tmplbl_246   0x0097e4    program     static                          
             __tmplbl_245   0x0097ea    program     static                          
             __tmplbl_244   0x0097ee    program     static                          
             __tmplbl_243   0x0097f2    program     static                          
             __tmplbl_242   0x0097f6    program     static                          
             __tmplbl_241   0x0097fa    program     static                          
             __tmplbl_240   0x0097fe    program     static                          
             __tmplbl_239   0x009802    program     static                          
             __tmplbl_238   0x009806    program     static                          
             __tmplbl_237   0x00980a    program     static                          
             __tmplbl_236   0x00980e    program     static                          
             __tmplbl_235   0x009812    program     static                          
             __tmplbl_234   0x009816    program     static                          
             __tmplbl_233   0x00981a    program     static                          
             __tmplbl_232   0x00981e    program     static                          
             __tmplbl_231   0x009826    program     static                          
             __tmplbl_230   0x00982a    program     static                          
             __tmplbl_229   0x00982e    program     static                          
             __tmplbl_228   0x009832    program     static                          
             __tmplbl_227   0x009836    program     static                          
             __tmplbl_226   0x00983e    program     static                          
             __tmplbl_225   0x009842    program     static                          
             __tmplbl_224   0x009846    program     static                          
             __tmplbl_223   0x00984a    program     static                          
             __tmplbl_222   0x00984e    program     static                          
             __tmplbl_221   0x009856    program     static                          
             __tmplbl_220   0x00985a    program     static                          
             __tmplbl_219   0x00985e    program     static                          
             __tmplbl_218   0x009862    program     static                          
             __tmplbl_217   0x009866    program     static                          
             __tmplbl_216   0x009874    program     static                          
             __tmplbl_215   0x009878    program     static                          
             __tmplbl_214   0x00987c    program     static                          
             __tmplbl_213   0x009880    program     static                          
             __tmplbl_212   0x00988c    program     static                          
             __tmplbl_211   0x009892    program     static                          
             __tmplbl_210   0x009898    program     static                          
             __tmplbl_209   0x00989e    program     static                          
             __tmplbl_208   0x0098a4    program     static                          
             __tmplbl_207   0x0098a8    program     static                          
             __tmplbl_206   0x0098ac    program     static                          
             __tmplbl_205   0x0098b0    program     static                          
             __tmplbl_204   0x0098b4    program     static                          
             __tmplbl_203   0x0098b8    program     static                          
             __tmplbl_202   0x0098bc    program     static                          
             __tmplbl_201   0x0098c0    program     static                          
             __tmplbl_200   0x0098c4    program     static                          
             __tmplbl_199   0x0098c8    program     static                          
             __tmplbl_198   0x0098cc    program     static                          
             __tmplbl_197   0x0098d0    program     static                          
             __tmplbl_196   0x0098d4    program     static                          
             __tmplbl_195   0x0098d8    program     static                          
             __tmplbl_194   0x0098dc    program     static                          
             __tmplbl_193   0x0098e0    program     static                          
             __tmplbl_192   0x0098e4    program     static                          
             __tmplbl_191   0x0098e8    program     static                          
             __tmplbl_190   0x0098ec    program     static                          
             __tmplbl_189   0x0098f0    program     static                          
             __tmplbl_188   0x0098f4    program     static                          
             __tmplbl_187   0x0098f8    program     static                          
             __tmplbl_186   0x0098fc    program     static                          
             __tmplbl_185   0x009900    program     static                          
             __tmplbl_184   0x00990e    program     static                          
             __tmplbl_183   0x009914    program     static                          
               HTTPPrint_   0x00993a    program     extern C:\Documents and Settings\Administrator\My Documents\Alarm Controller\PIC Code\HTTPPrint.h
                 HTTPInit   0x00994a    program     extern C:\Documents and Settings\Administrator\My Documents\Alarm Controller\Microchip\TCPIP Stack\HTTP2.c
               HTTPServer   0x0099be    program     extern C:\Documents and Settings\Administrator\My Documents\Alarm Controller\Microchip\TCPIP Stack\HTTP2.c
             HTTPLoadConn   0x009a40    program     static C:\Documents and Settings\Administrator\My Documents\Alarm Controller\Microchip\TCPIP Stack\HTTP2.c
              HTTPProcess   0x009a98    program     static C:\Documents and Settings\Administrator\My Documents\Alarm Controller\Microchip\TCPIP Stack\HTTP2.c
             HTTPSendFile   0x00a26a    program     static C:\Documents and Settings\Administrator\My Documents\Alarm Controller\Microchip\TCPIP Stack\HTTP2.c
    HTTPHeaderParseLookup   0x00a3f8    program     static C:\Documents and Settings\Administrator\My Documents\Alarm Controller\Microchip\TCPIP Stack\HTTP2.c
HTTPHeaderParseAuthorization   0x00a410    program     static C:\Documents and Settings\Administrator\My Documents\Alarm Controller\Microchip\TCPIP Stack\HTTP2.c
HTTPHeaderParseContentLength   0x00a4e8    program     static C:\Documents and Settings\Administrator\My Documents\Alarm Controller\Microchip\TCPIP Stack\HTTP2.c
            HTTPURLDecode   0x00a53a    program     extern C:\Documents and Settings\Administrator\My Documents\Alarm Controller\Microchip\TCPIP Stack\HTTP2.c
               HTTPGetArg   0x00a5f8    program     extern C:\Documents and Settings\Administrator\My Documents\Alarm Controller\Microchip\TCPIP Stack\HTTP2.c
            HTTPGetROMArg   0x00a63a    program     extern C:\Documents and Settings\Administrator\My Documents\Alarm Controller\Microchip\TCPIP Stack\HTTP2.c
         HTTPReadPostName   0x00a696    program     extern C:\Documents and Settings\Administrator\My Documents\Alarm Controller\Microchip\TCPIP Stack\HTTP2.c
        HTTPReadPostValue   0x00a6ae    program     extern C:\Documents and Settings\Administrator\My Documents\Alarm Controller\Microchip\TCPIP Stack\HTTP2.c
               HTTPReadTo   0x00a6f6    program     static C:\Documents and Settings\Administrator\My Documents\Alarm Controller\Microchip\TCPIP Stack\HTTP2.c
           HTTPMPFSUpload   0x00a7ec    program     static C:\Documents and Settings\Administrator\My Documents\Alarm Controller\Microchip\TCPIP Stack\HTTP2.c
              HTTPIncFile   0x00a994    program     extern C:\Documents and Settings\Administrator\My Documents\Alarm Controller\Microchip\TCPIP Stack\HTTP2.c
                   __pa_0   0x00aaa2    program     static C:\Documents and Settings\Administrator\My Documents\Alarm Controller\Microchip\TCPIP Stack\HTTP2.c
                   __pa_1   0x00aaac    program     static C:\Documents and Settings\Administrator\My Documents\Alarm Controller\Microchip\TCPIP Stack\HTTP2.c
                   __pa_2   0x00aab6    program     static C:\Documents and Settings\Administrator\My Documents\Alarm Controller\Microchip\TCPIP Stack\HTTP2.c
                   __pa_3   0x00aac6    program     static C:\Documents and Settings\Administrator\My Documents\Alarm Controller\Microchip\TCPIP Stack\HTTP2.c
                   __pa_4   0x00ab04    program     static C:\Documents and Settings\Administrator\My Documents\Alarm Controller\Microchip\TCPIP Stack\HTTP2.c
                   __pa_5   0x00ab2c    program     static C:\Documents and Settings\Administrator\My Documents\Alarm Controller\Microchip\TCPIP Stack\HTTP2.c
                   __pa_6   0x00ab34    program     static C:\Documents and Settings\Administrator\My Documents\Alarm Controller\Microchip\TCPIP Stack\HTTP2.c
                   __pa_7   0x00ab3a    program     static C:\Documents and Settings\Administrator\My Documents\Alarm Controller\Microchip\TCPIP Stack\HTTP2.c
                   __pa_8   0x00ab44    program     static C:\Documents and Settings\Administrator\My Documents\Alarm Controller\Microchip\TCPIP Stack\HTTP2.c
                   __pa_9   0x00ab5e    program     static C:\Documents and Settings\Administrator\My Documents\Alarm Controller\Microchip\TCPIP Stack\HTTP2.c
                  __pa_10   0x00ab68    program     static C:\Documents and Settings\Administrator\My Documents\Alarm Controller\Microchip\TCPIP Stack\HTTP2.c
                  __pa_11   0x00ab7a    program     static C:\Documents and Settings\Administrator\My Documents\Alarm Controller\Microchip\TCPIP Stack\HTTP2.c
                  __pa_12   0x00ab80    program     static C:\Documents and Settings\Administrator\My Documents\Alarm Controller\Microchip\TCPIP Stack\HTTP2.c
                  __pa_13   0x00ab8e    program     static C:\Documents and Settings\Administrator\My Documents\Alarm Controller\Microchip\TCPIP Stack\HTTP2.c
                  __pa_14   0x00ab96    program     static C:\Documents and Settings\Administrator\My Documents\Alarm Controller\Microchip\TCPIP Stack\HTTP2.c
                  __pa_15   0x00aba0    program     static C:\Documents and Settings\Administrator\My Documents\Alarm Controller\Microchip\TCPIP Stack\HTTP2.c
                  __pa_16   0x00aba6    program     static C:\Documents and Settings\Administrator\My Documents\Alarm Controller\Microchip\TCPIP Stack\HTTP2.c
                  __pa_17   0x00abb6    program     static C:\Documents and Settings\Administrator\My Documents\Alarm Controller\Microchip\TCPIP Stack\HTTP2.c
                  __pa_18   0x00abbc    program     static C:\Documents and Settings\Administrator\My Documents\Alarm Controller\Microchip\TCPIP Stack\HTTP2.c
                  __pa_19   0x00abc4    program     static C:\Documents and Settings\Administrator\My Documents\Alarm Controller\Microchip\TCPIP Stack\HTTP2.c
                  __pa_20   0x00abce    program     static C:\Documents and Settings\Administrator\My Documents\Alarm Controller\Microchip\TCPIP Stack\HTTP2.c
                  __pa_21   0x00abde    program     static C:\Documents and Settings\Administrator\My Documents\Alarm Controller\Microchip\TCPIP Stack\HTTP2.c
                  __pa_22   0x00abee    program     static C:\Documents and Settings\Administrator\My Documents\Alarm Controller\Microchip\TCPIP Stack\HTTP2.c
                  __pa_23   0x00ac02    program     static C:\Documents and Settings\Administrator\My Documents\Alarm Controller\Microchip\TCPIP Stack\HTTP2.c
                  __pa_24   0x00ac16    program     static C:\Documents and Settings\Administrator\My Documents\Alarm Controller\Microchip\TCPIP Stack\HTTP2.c
                  __pa_25   0x00ac20    program     static C:\Documents and Settings\Administrator\My Documents\Alarm Controller\Microchip\TCPIP Stack\HTTP2.c
                  __pa_26   0x00ac34    program     static C:\Documents and Settings\Administrator\My Documents\Alarm Controller\Microchip\TCPIP Stack\HTTP2.c
                  __pa_27   0x00ac3a    program     static C:\Documents and Settings\Administrator\My Documents\Alarm Controller\Microchip\TCPIP Stack\HTTP2.c
                  __pa_28   0x00ac44    program     static C:\Documents and Settings\Administrator\My Documents\Alarm Controller\Microchip\TCPIP Stack\HTTP2.c
                  __pa_29   0x00ac4a    program     static C:\Documents and Settings\Administrator\My Documents\Alarm Controller\Microchip\TCPIP Stack\HTTP2.c
                  __pa_30   0x00ac58    program     static C:\Documents and Settings\Administrator\My Documents\Alarm Controller\Microchip\TCPIP Stack\HTTP2.c
                  __pa_31   0x00ac60    program     static C:\Documents and Settings\Administrator\My Documents\Alarm Controller\Microchip\TCPIP Stack\HTTP2.c
                  __pa_32   0x00ac70    program     static C:\Documents and Settings\Administrator\My Documents\Alarm Controller\Microchip\TCPIP Stack\HTTP2.c
                  __pa_33   0x00ac80    program     static C:\Documents and Settings\Administrator\My Documents\Alarm Controller\Microchip\TCPIP Stack\HTTP2.c
                  __pa_34   0x00ac98    program     static C:\Documents and Settings\Administrator\My Documents\Alarm Controller\Microchip\TCPIP Stack\HTTP2.c
                  __pa_35   0x00aca6    program     static C:\Documents and Settings\Administrator\My Documents\Alarm Controller\Microchip\TCPIP Stack\HTTP2.c
                  __pa_36   0x00acb4    program     static C:\Documents and Settings\Administrator\My Documents\Alarm Controller\Microchip\TCPIP Stack\HTTP2.c
                  __pa_37   0x00acbe    program     static C:\Documents and Settings\Administrator\My Documents\Alarm Controller\Microchip\TCPIP Stack\HTTP2.c
                  __pa_38   0x00acc8    program     static C:\Documents and Settings\Administrator\My Documents\Alarm Controller\Microchip\TCPIP Stack\HTTP2.c
                  __pa_39   0x00acd2    program     static C:\Documents and Settings\Administrator\My Documents\Alarm Controller\Microchip\TCPIP Stack\HTTP2.c
                  __pa_40   0x00acda    program     static C:\Documents and Settings\Administrator\My Documents\Alarm Controller\Microchip\TCPIP Stack\HTTP2.c
                  __pa_41   0x00ace8    program     static C:\Documents and Settings\Administrator\My Documents\Alarm Controller\Microchip\TCPIP Stack\HTTP2.c
                  __pa_42   0x00acfa    program     static C:\Documents and Settings\Administrator\My Documents\Alarm Controller\Microchip\TCPIP Stack\HTTP2.c
                  __pa_43   0x00ad00    program     static C:\Documents and Settings\Administrator\My Documents\Alarm Controller\Microchip\TCPIP Stack\HTTP2.c
                  __pa_44   0x00ad0c    program     static C:\Documents and Settings\Administrator\My Documents\Alarm Controller\Microchip\TCPIP Stack\HTTP2.c
             __tmplbl_323   0x00ad0c    program     static                          
             __tmplbl_344   0x00ad0c    program     static                          
                  __pa_45   0x00ad14    program     static C:\Documents and Settings\Administrator\My Documents\Alarm Controller\Microchip\TCPIP Stack\HTTP2.c
                  __pa_46   0x00ad1e    program     static C:\Documents and Settings\Administrator\My Documents\Alarm Controller\Microchip\TCPIP Stack\HTTP2.c
                  __pa_47   0x00ad28    program     static C:\Documents and Settings\Administrator\My Documents\Alarm Controller\Microchip\TCPIP Stack\HTTP2.c
                  __pa_48   0x00ad38    program     static C:\Documents and Settings\Administrator\My Documents\Alarm Controller\Microchip\TCPIP Stack\HTTP2.c
                  __pa_49   0x00ad48    program     static C:\Documents and Settings\Administrator\My Documents\Alarm Controller\Microchip\TCPIP Stack\HTTP2.c
                  __pa_50   0x00ad52    program     static C:\Documents and Settings\Administrator\My Documents\Alarm Controller\Microchip\TCPIP Stack\HTTP2.c
                  __pa_51   0x00ad62    program     static C:\Documents and Settings\Administrator\My Documents\Alarm Controller\Microchip\TCPIP Stack\HTTP2.c
                  __pa_52   0x00ad6c    program     static C:\Documents and Settings\Administrator\My Documents\Alarm Controller\Microchip\TCPIP Stack\HTTP2.c
                  __pa_53   0x00ad7a    program     static C:\Documents and Settings\Administrator\My Documents\Alarm Controller\Microchip\TCPIP Stack\HTTP2.c
                  __pa_54   0x00ad88    program     static C:\Documents and Settings\Administrator\My Documents\Alarm Controller\Microchip\TCPIP Stack\HTTP2.c
                  __pa_55   0x00ad96    program     static C:\Documents and Settings\Administrator\My Documents\Alarm Controller\Microchip\TCPIP Stack\HTTP2.c
                  __pa_56   0x00ada4    program     static C:\Documents and Settings\Administrator\My Documents\Alarm Controller\Microchip\TCPIP Stack\HTTP2.c
             __tmplbl_324   0x00adb2    program     static                          
                  __pa_57   0x00adb2    program     static C:\Documents and Settings\Administrator\My Documents\Alarm Controller\Microchip\TCPIP Stack\HTTP2.c
                  __pa_58   0x00adba    program     static C:\Documents and Settings\Administrator\My Documents\Alarm Controller\Microchip\TCPIP Stack\HTTP2.c
                  __pa_59   0x00adc4    program     static C:\Documents and Settings\Administrator\My Documents\Alarm Controller\Microchip\TCPIP Stack\HTTP2.c
                  __pa_60   0x00adce    program     static C:\Documents and Settings\Administrator\My Documents\Alarm Controller\Microchip\TCPIP Stack\HTTP2.c
                  __pa_61   0x00add6    program     static C:\Documents and Settings\Administrator\My Documents\Alarm Controller\Microchip\TCPIP Stack\HTTP2.c
                  __pa_62   0x00ade0    program     static C:\Documents and Settings\Administrator\My Documents\Alarm Controller\Microchip\TCPIP Stack\HTTP2.c
                  __pa_63   0x00adec    program     static C:\Documents and Settings\Administrator\My Documents\Alarm Controller\Microchip\TCPIP Stack\HTTP2.c
                  __pa_64   0x00adf2    program     static C:\Documents and Settings\Administrator\My Documents\Alarm Controller\Microchip\TCPIP Stack\HTTP2.c
                  __pa_65   0x00adfe    program     static C:\Documents and Settings\Administrator\My Documents\Alarm Controller\Microchip\TCPIP Stack\HTTP2.c
                  __pa_66   0x00ae12    program     static C:\Documents and Settings\Administrator\My Documents\Alarm Controller\Microchip\TCPIP Stack\HTTP2.c
                  __pa_67   0x00ae18    program     static C:\Documents and Settings\Administrator\My Documents\Alarm Controller\Microchip\TCPIP Stack\HTTP2.c
                  __pa_68   0x00ae22    program     static C:\Documents and Settings\Administrator\My Documents\Alarm Controller\Microchip\TCPIP Stack\HTTP2.c
                  __pa_69   0x00ae2c    program     static C:\Documents and Settings\Administrator\My Documents\Alarm Controller\Microchip\TCPIP Stack\HTTP2.c
                  __pa_70   0x00ae36    program     static C:\Documents and Settings\Administrator\My Documents\Alarm Controller\Microchip\TCPIP Stack\HTTP2.c
                  __pa_71   0x00ae3e    program     static C:\Documents and Settings\Administrator\My Documents\Alarm Controller\Microchip\TCPIP Stack\HTTP2.c
                  __pa_72   0x00ae4c    program     static C:\Documents and Settings\Administrator\My Documents\Alarm Controller\Microchip\TCPIP Stack\HTTP2.c
                  __pa_73   0x00ae56    program     static C:\Documents and Settings\Administrator\My Documents\Alarm Controller\Microchip\TCPIP Stack\HTTP2.c
                  __pa_74   0x00ae60    program     static C:\Documents and Settings\Administrator\My Documents\Alarm Controller\Microchip\TCPIP Stack\HTTP2.c
                  __pa_75   0x00ae6c    program     static C:\Documents and Settings\Administrator\My Documents\Alarm Controller\Microchip\TCPIP Stack\HTTP2.c
                  __pa_76   0x00ae74    program     static C:\Documents and Settings\Administrator\My Documents\Alarm Controller\Microchip\TCPIP Stack\HTTP2.c
                  __pa_77   0x00ae82    program     static C:\Documents and Settings\Administrator\My Documents\Alarm Controller\Microchip\TCPIP Stack\HTTP2.c
                  __pa_78   0x00ae8a    program     static C:\Documents and Settings\Administrator\My Documents\Alarm Controller\Microchip\TCPIP Stack\HTTP2.c
                  __pa_79   0x00ae90    program     static C:\Documents and Settings\Administrator\My Documents\Alarm Controller\Microchip\TCPIP Stack\HTTP2.c
                  __pa_80   0x00aea0    program     static C:\Documents and Settings\Administrator\My Documents\Alarm Controller\Microchip\TCPIP Stack\HTTP2.c
                  __pa_81   0x00aeae    program     static C:\Documents and Settings\Administrator\My Documents\Alarm Controller\Microchip\TCPIP Stack\HTTP2.c
                  __pa_82   0x00aebc    program     static C:\Documents and Settings\Administrator\My Documents\Alarm Controller\Microchip\TCPIP Stack\HTTP2.c
                  __pa_83   0x00aeca    program     static C:\Documents and Settings\Administrator\My Documents\Alarm Controller\Microchip\TCPIP Stack\HTTP2.c
                  __pa_84   0x00aed4    program     static C:\Documents and Settings\Administrator\My Documents\Alarm Controller\Microchip\TCPIP Stack\HTTP2.c
                  __pa_85   0x00aee0    program     static C:\Documents and Settings\Administrator\My Documents\Alarm Controller\Microchip\TCPIP Stack\HTTP2.c
                  __pa_86   0x00aee6    program     static C:\Documents and Settings\Administrator\My Documents\Alarm Controller\Microchip\TCPIP Stack\HTTP2.c
                  __pa_87   0x00aef2    program     static C:\Documents and Settings\Administrator\My Documents\Alarm Controller\Microchip\TCPIP Stack\HTTP2.c
                  __pa_88   0x00aefc    program     static C:\Documents and Settings\Administrator\My Documents\Alarm Controller\Microchip\TCPIP Stack\HTTP2.c
                  __pa_89   0x00af06    program     static C:\Documents and Settings\Administrator\My Documents\Alarm Controller\Microchip\TCPIP Stack\HTTP2.c
                  __pa_90   0x00af0e    program     static C:\Documents and Settings\Administrator\My Documents\Alarm Controller\Microchip\TCPIP Stack\HTTP2.c
                  __pa_91   0x00af14    program     static C:\Documents and Settings\Administrator\My Documents\Alarm Controller\Microchip\TCPIP Stack\HTTP2.c
                  __pa_92   0x00af1a    program     static C:\Documents and Settings\Administrator\My Documents\Alarm Controller\Microchip\TCPIP Stack\HTTP2.c
                  __pa_93   0x00af26    program     static C:\Documents and Settings\Administrator\My Documents\Alarm Controller\Microchip\TCPIP Stack\HTTP2.c
                  __pa_94   0x00af2e    program     static C:\Documents and Settings\Administrator\My Documents\Alarm Controller\Microchip\TCPIP Stack\HTTP2.c
                  __pa_95   0x00af3e    program     static C:\Documents and Settings\Administrator\My Documents\Alarm Controller\Microchip\TCPIP Stack\HTTP2.c
                  __pa_96   0x00af46    program     static C:\Documents and Settings\Administrator\My Documents\Alarm Controller\Microchip\TCPIP Stack\HTTP2.c
                  __pa_97   0x00af56    program     static C:\Documents and Settings\Administrator\My Documents\Alarm Controller\Microchip\TCPIP Stack\HTTP2.c
                  __pa_98   0x00af5c    program     static C:\Documents and Settings\Administrator\My Documents\Alarm Controller\Microchip\TCPIP Stack\HTTP2.c
                  __pa_99   0x00af62    program     static C:\Documents and Settings\Administrator\My Documents\Alarm Controller\Microchip\TCPIP Stack\HTTP2.c
                 __pa_100   0x00af6c    program     static C:\Documents and Settings\Administrator\My Documents\Alarm Controller\Microchip\TCPIP Stack\HTTP2.c
                 __pa_101   0x00af78    program     static C:\Documents and Settings\Administrator\My Documents\Alarm Controller\Microchip\TCPIP Stack\HTTP2.c
                 __pa_102   0x00af86    program     static C:\Documents and Settings\Administrator\My Documents\Alarm Controller\Microchip\TCPIP Stack\HTTP2.c
                 __pa_103   0x00af92    program     static C:\Documents and Settings\Administrator\My Documents\Alarm Controller\Microchip\TCPIP Stack\HTTP2.c
                 __pa_104   0x00af9e    program     static C:\Documents and Settings\Administrator\My Documents\Alarm Controller\Microchip\TCPIP Stack\HTTP2.c
                 __pa_105   0x00afa8    program     static C:\Documents and Settings\Administrator\My Documents\Alarm Controller\Microchip\TCPIP Stack\HTTP2.c
                 __pa_106   0x00afb4    program     static C:\Documents and Settings\Administrator\My Documents\Alarm Controller\Microchip\TCPIP Stack\HTTP2.c
                 __pa_107   0x00afba    program     static C:\Documents and Settings\Administrator\My Documents\Alarm Controller\Microchip\TCPIP Stack\HTTP2.c
                 __pa_108   0x00afc0    program     static C:\Documents and Settings\Administrator\My Documents\Alarm Controller\Microchip\TCPIP Stack\HTTP2.c
                 __pa_109   0x00afc6    program     static C:\Documents and Settings\Administrator\My Documents\Alarm Controller\Microchip\TCPIP Stack\HTTP2.c
                 __pa_110   0x00afcc    program     static C:\Documents and Settings\Administrator\My Documents\Alarm Controller\Microchip\TCPIP Stack\HTTP2.c
                 __pa_111   0x00afd4    program     static C:\Documents and Settings\Administrator\My Documents\Alarm Controller\Microchip\TCPIP Stack\HTTP2.c
                 __pa_112   0x00afdc    program     static C:\Documents and Settings\Administrator\My Documents\Alarm Controller\Microchip\TCPIP Stack\HTTP2.c
                 __pa_113   0x00afe2    program     static C:\Documents and Settings\Administrator\My Documents\Alarm Controller\Microchip\TCPIP Stack\HTTP2.c
           SMTPBeginUsage   0x00afea    program     extern C:\Documents and Settings\Administrator\My Documents\Alarm Controller\Microchip\TCPIP Stack\SMTP.c
             SMTPEndUsage   0x00b01e    program     extern C:\Documents and Settings\Administrator\My Documents\Alarm Controller\Microchip\TCPIP Stack\SMTP.c
                 SMTPTask   0x00b05a    program     extern C:\Documents and Settings\Administrator\My Documents\Alarm Controller\Microchip\TCPIP Stack\SMTP.c
              __tmplbl_99   0x00ba66    program     static                          
              __tmplbl_84   0x00ba6e    program     static                          
              __tmplbl_96   0x00ba70    program     static                          
              __tmplbl_97   0x00ba72    program     static                          
              __tmplbl_93   0x00ba72    program     static                          
              __tmplbl_94   0x00ba72    program     static                          
              __tmplbl_90   0x00ba72    program     static                          
              __tmplbl_88   0x00ba72    program     static                          
              __tmplbl_89   0x00ba72    program     static                          
              __tmplbl_95   0x00ba72    program     static                          
             SMTPSendMail   0x00ba7a    program     extern C:\Documents and Settings\Administrator\My Documents\Alarm Controller\Microchip\TCPIP Stack\SMTP.c
               SMTPIsBusy   0x00ba80    program     extern C:\Documents and Settings\Administrator\My Documents\Alarm Controller\Microchip\TCPIP Stack\SMTP.c
           SMTPIsPutReady   0x00ba8a    program     extern C:\Documents and Settings\Administrator\My Documents\Alarm Controller\Microchip\TCPIP Stack\SMTP.c
                  SMTPPut   0x00baa6    program     extern C:\Documents and Settings\Administrator\My Documents\Alarm Controller\Microchip\TCPIP Stack\SMTP.c
             SMTPPutArray   0x00bb0e    program     extern C:\Documents and Settings\Administrator\My Documents\Alarm Controller\Microchip\TCPIP Stack\SMTP.c
          SMTPPutROMArray   0x00bb3e    program     extern C:\Documents and Settings\Administrator\My Documents\Alarm Controller\Microchip\TCPIP Stack\SMTP.c
            SMTPPutString   0x00bb70    program     extern C:\Documents and Settings\Administrator\My Documents\Alarm Controller\Microchip\TCPIP Stack\SMTP.c
         SMTPPutROMString   0x00bba8    program     extern C:\Documents and Settings\Administrator\My Documents\Alarm Controller\Microchip\TCPIP Stack\SMTP.c
                SMTPFlush   0x00bbe4    program     extern C:\Documents and Settings\Administrator\My Documents\Alarm Controller\Microchip\TCPIP Stack\SMTP.c
              SMTPPutDone   0x00bbe8    program     extern C:\Documents and Settings\Administrator\My Documents\Alarm Controller\Microchip\TCPIP Stack\SMTP.c
         FindEmailAddress   0x00bbee    program     static C:\Documents and Settings\Administrator\My Documents\Alarm Controller\Microchip\TCPIP Stack\SMTP.c
      FindROMEmailAddress   0x00bc74    program     static C:\Documents and Settings\Administrator\My Documents\Alarm Controller\Microchip\TCPIP Stack\SMTP.c
                   __pa_0   0x00bd04    program     static C:\Documents and Settings\Administrator\My Documents\Alarm Controller\Microchip\TCPIP Stack\SMTP.c
                   __pa_1   0x00bd3e    program     static C:\Documents and Settings\Administrator\My Documents\Alarm Controller\Microchip\TCPIP Stack\SMTP.c
                   __pa_2   0x00bd5c    program     static C:\Documents and Settings\Administrator\My Documents\Alarm Controller\Microchip\TCPIP Stack\SMTP.c
                   __pa_3   0x00bd64    program     static C:\Documents and Settings\Administrator\My Documents\Alarm Controller\Microchip\TCPIP Stack\SMTP.c
                   __pa_4   0x00bd82    program     static C:\Documents and Settings\Administrator\My Documents\Alarm Controller\Microchip\TCPIP Stack\SMTP.c
                   __pa_5   0x00bdba    program     static C:\Documents and Settings\Administrator\My Documents\Alarm Controller\Microchip\TCPIP Stack\SMTP.c
                   __pa_6   0x00bdcc    program     static C:\Documents and Settings\Administrator\My Documents\Alarm Controller\Microchip\TCPIP Stack\SMTP.c
                   __pa_7   0x00bde8    program     static C:\Documents and Settings\Administrator\My Documents\Alarm Controller\Microchip\TCPIP Stack\SMTP.c
                   __pa_8   0x00bdee    program     static C:\Documents and Settings\Administrator\My Documents\Alarm Controller\Microchip\TCPIP Stack\SMTP.c
                   __pa_9   0x00be06    program     static C:\Documents and Settings\Administrator\My Documents\Alarm Controller\Microchip\TCPIP Stack\SMTP.c
                  __pa_10   0x00be10    program     static C:\Documents and Settings\Administrator\My Documents\Alarm Controller\Microchip\TCPIP Stack\SMTP.c
                  __pa_11   0x00be1a    program     static C:\Documents and Settings\Administrator\My Documents\Alarm Controller\Microchip\TCPIP Stack\SMTP.c
                  __pa_12   0x00be20    program     static C:\Documents and Settings\Administrator\My Documents\Alarm Controller\Microchip\TCPIP Stack\SMTP.c
                  __pa_13   0x00be44    program     static C:\Documents and Settings\Administrator\My Documents\Alarm Controller\Microchip\TCPIP Stack\SMTP.c
                  __pa_14   0x00be62    program     static C:\Documents and Settings\Administrator\My Documents\Alarm Controller\Microchip\TCPIP Stack\SMTP.c
                  __pa_15   0x00be6e    program     static C:\Documents and Settings\Administrator\My Documents\Alarm Controller\Microchip\TCPIP Stack\SMTP.c
                  __pa_16   0x00be82    program     static C:\Documents and Settings\Administrator\My Documents\Alarm Controller\Microchip\TCPIP Stack\SMTP.c
                  __pa_17   0x00be8c    program     static C:\Documents and Settings\Administrator\My Documents\Alarm Controller\Microchip\TCPIP Stack\SMTP.c
                  __pa_18   0x00beaa    program     static C:\Documents and Settings\Administrator\My Documents\Alarm Controller\Microchip\TCPIP Stack\SMTP.c
                  __pa_19   0x00bebc    program     static C:\Documents and Settings\Administrator\My Documents\Alarm Controller\Microchip\TCPIP Stack\SMTP.c
                  __pa_20   0x00bec8    program     static C:\Documents and Settings\Administrator\My Documents\Alarm Controller\Microchip\TCPIP Stack\SMTP.c
                  __pa_21   0x00bed4    program     static C:\Documents and Settings\Administrator\My Documents\Alarm Controller\Microchip\TCPIP Stack\SMTP.c
                  __pa_22   0x00bee6    program     static C:\Documents and Settings\Administrator\My Documents\Alarm Controller\Microchip\TCPIP Stack\SMTP.c
                  __pa_23   0x00bf00    program     static C:\Documents and Settings\Administrator\My Documents\Alarm Controller\Microchip\TCPIP Stack\SMTP.c
                  __pa_24   0x00bf0a    program     static C:\Documents and Settings\Administrator\My Documents\Alarm Controller\Microchip\TCPIP Stack\SMTP.c
                  __pa_25   0x00bf14    program     static C:\Documents and Settings\Administrator\My Documents\Alarm Controller\Microchip\TCPIP Stack\SMTP.c
                  __pa_26   0x00bf20    program     static C:\Documents and Settings\Administrator\My Documents\Alarm Controller\Microchip\TCPIP Stack\SMTP.c
                  __pa_27   0x00bf36    program     static C:\Documents and Settings\Administrator\My Documents\Alarm Controller\Microchip\TCPIP Stack\SMTP.c
                  __pa_28   0x00bf42    program     static C:\Documents and Settings\Administrator\My Documents\Alarm Controller\Microchip\TCPIP Stack\SMTP.c
                  __pa_29   0x00bf58    program     static C:\Documents and Settings\Administrator\My Documents\Alarm Controller\Microchip\TCPIP Stack\SMTP.c
                  __pa_30   0x00bf66    program     static C:\Documents and Settings\Administrator\My Documents\Alarm Controller\Microchip\TCPIP Stack\SMTP.c
                  __pa_31   0x00bf74    program     static C:\Documents and Settings\Administrator\My Documents\Alarm Controller\Microchip\TCPIP Stack\SMTP.c
                  __pa_32   0x00bf86    program     static C:\Documents and Settings\Administrator\My Documents\Alarm Controller\Microchip\TCPIP Stack\SMTP.c
                  __pa_33   0x00bf98    program     static C:\Documents and Settings\Administrator\My Documents\Alarm Controller\Microchip\TCPIP Stack\SMTP.c
                  __pa_34   0x00bf9e    program     static C:\Documents and Settings\Administrator\My Documents\Alarm Controller\Microchip\TCPIP Stack\SMTP.c
                  __pa_35   0x00bfb0    program     static C:\Documents and Settings\Administrator\My Documents\Alarm Controller\Microchip\TCPIP Stack\SMTP.c
                  __pa_36   0x00bfba    program     static C:\Documents and Settings\Administrator\My Documents\Alarm Controller\Microchip\TCPIP Stack\SMTP.c
                  __pa_37   0x00bfc2    program     static C:\Documents and Settings\Administrator\My Documents\Alarm Controller\Microchip\TCPIP Stack\SMTP.c
                  __pa_38   0x00bfca    program     static C:\Documents and Settings\Administrator\My Documents\Alarm Controller\Microchip\TCPIP Stack\SMTP.c
                  __pa_39   0x00bfda    program     static C:\Documents and Settings\Administrator\My Documents\Alarm Controller\Microchip\TCPIP Stack\SMTP.c
                  __pa_40   0x00bfea    program     static C:\Documents and Settings\Administrator\My Documents\Alarm Controller\Microchip\TCPIP Stack\SMTP.c
                  __pa_41   0x00bff8    program     static C:\Documents and Settings\Administrator\My Documents\Alarm Controller\Microchip\TCPIP Stack\SMTP.c
                  __pa_42   0x00c006    program     static C:\Documents and Settings\Administrator\My Documents\Alarm Controller\Microchip\TCPIP Stack\SMTP.c
                  __pa_43   0x00c014    program     static C:\Documents and Settings\Administrator\My Documents\Alarm Controller\Microchip\TCPIP Stack\SMTP.c
                  __pa_44   0x00c01e    program     static C:\Documents and Settings\Administrator\My Documents\Alarm Controller\Microchip\TCPIP Stack\SMTP.c
                  __pa_45   0x00c028    program     static C:\Documents and Settings\Administrator\My Documents\Alarm Controller\Microchip\TCPIP Stack\SMTP.c
                  __pa_46   0x00c032    program     static C:\Documents and Settings\Administrator\My Documents\Alarm Controller\Microchip\TCPIP Stack\SMTP.c
                  __pa_47   0x00c03e    program     static C:\Documents and Settings\Administrator\My Documents\Alarm Controller\Microchip\TCPIP Stack\SMTP.c
                  __pa_48   0x00c046    program     static C:\Documents and Settings\Administrator\My Documents\Alarm Controller\Microchip\TCPIP Stack\SMTP.c
                  __pa_49   0x00c050    program     static C:\Documents and Settings\Administrator\My Documents\Alarm Controller\Microchip\TCPIP Stack\SMTP.c
                  __pa_50   0x00c05e    program     static C:\Documents and Settings\Administrator\My Documents\Alarm Controller\Microchip\TCPIP Stack\SMTP.c
                  __pa_51   0x00c06e    program     static C:\Documents and Settings\Administrator\My Documents\Alarm Controller\Microchip\TCPIP Stack\SMTP.c
                  __pa_52   0x00c076    program     static C:\Documents and Settings\Administrator\My Documents\Alarm Controller\Microchip\TCPIP Stack\SMTP.c
                  __pa_53   0x00c07e    program     static C:\Documents and Settings\Administrator\My Documents\Alarm Controller\Microchip\TCPIP Stack\SMTP.c
                  __pa_54   0x00c08a    program     static C:\Documents and Settings\Administrator\My Documents\Alarm Controller\Microchip\TCPIP Stack\SMTP.c
                  __pa_55   0x00c094    program     static C:\Documents and Settings\Administrator\My Documents\Alarm Controller\Microchip\TCPIP Stack\SMTP.c
                  __pa_56   0x00c09c    program     static C:\Documents and Settings\Administrator\My Documents\Alarm Controller\Microchip\TCPIP Stack\SMTP.c
                  __pa_57   0x00c0aa    program     static C:\Documents and Settings\Administrator\My Documents\Alarm Controller\Microchip\TCPIP Stack\SMTP.c
                  __pa_58   0x00c0b4    program     static C:\Documents and Settings\Administrator\My Documents\Alarm Controller\Microchip\TCPIP Stack\SMTP.c
                  __pa_59   0x00c0c2    program     static C:\Documents and Settings\Administrator\My Documents\Alarm Controller\Microchip\TCPIP Stack\SMTP.c
                  __pa_60   0x00c0ca    program     static C:\Documents and Settings\Administrator\My Documents\Alarm Controller\Microchip\TCPIP Stack\SMTP.c
                  __pa_61   0x00c0d2    program     static C:\Documents and Settings\Administrator\My Documents\Alarm Controller\Microchip\TCPIP Stack\SMTP.c
                  __pa_62   0x00c0dc    program     static C:\Documents and Settings\Administrator\My Documents\Alarm Controller\Microchip\TCPIP Stack\SMTP.c
                  __pa_63   0x00c0e4    program     static C:\Documents and Settings\Administrator\My Documents\Alarm Controller\Microchip\TCPIP Stack\SMTP.c
        HTTPPrint_SMTP_To   0x00c0f2    program     extern C:\Documents and Settings\Administrator\My Documents\Alarm Controller\PIC Code\SMTP.c
    HTTPPrint_SMTP_Server   0x00c116    program     extern C:\Documents and Settings\Administrator\My Documents\Alarm Controller\PIC Code\SMTP.c
      HTTPPrint_SMTP_User   0x00c13a    program     extern C:\Documents and Settings\Administrator\My Documents\Alarm Controller\PIC Code\SMTP.c
  HTTPPrint_SMTP_Password   0x00c15c    program     extern C:\Documents and Settings\Administrator\My Documents\Alarm Controller\PIC Code\SMTP.c
      HTTPPrint_SMTP_Port   0x00c17e    program     extern C:\Documents and Settings\Administrator\My Documents\Alarm Controller\PIC Code\SMTP.c
    HTTPPrint_SMTP_Active   0x00c1ae    program     extern C:\Documents and Settings\Administrator\My Documents\Alarm Controller\PIC Code\SMTP.c
HTTPPrint_SMTP_OnlyInitalAlarm   0x00c1c0    program     extern C:\Documents and Settings\Administrator\My Documents\Alarm Controller\PIC Code\SMTP.c
 HTTPPrint_SMTP_ArmDisarm   0x00c1d2    program     extern C:\Documents and Settings\Administrator\My Documents\Alarm Controller\PIC Code\SMTP.c
 HTTPPrint_SMTPTestOutput   0x00c1e4    program     extern C:\Documents and Settings\Administrator\My Documents\Alarm Controller\PIC Code\SMTP.c
       HTTPPostSMTPConfig   0x00c27e    program     extern C:\Documents and Settings\Administrator\My Documents\Alarm Controller\PIC Code\SMTP.c
          SMTPTaskProcess   0x00c4d0    program     extern C:\Documents and Settings\Administrator\My Documents\Alarm Controller\PIC Code\SMTP.c
           SMTPQueueEmail   0x00c818    program     extern C:\Documents and Settings\Administrator\My Documents\Alarm Controller\PIC Code\SMTP.c
                   __pa_0   0x00c8b4    program     static C:\Documents and Settings\Administrator\My Documents\Alarm Controller\PIC Code\SMTP.c
                   __pa_1   0x00c8d2    program     static C:\Documents and Settings\Administrator\My Documents\Alarm Controller\PIC Code\SMTP.c
                   __pa_2   0x00c8da    program     static C:\Documents and Settings\Administrator\My Documents\Alarm Controller\PIC Code\SMTP.c
                   __pa_3   0x00c8e6    program     static C:\Documents and Settings\Administrator\My Documents\Alarm Controller\PIC Code\SMTP.c
                   __pa_4   0x00c8f8    program     static C:\Documents and Settings\Administrator\My Documents\Alarm Controller\PIC Code\SMTP.c
                   __pa_5   0x00c902    program     static C:\Documents and Settings\Administrator\My Documents\Alarm Controller\PIC Code\SMTP.c
                   __pa_6   0x00c90c    program     static C:\Documents and Settings\Administrator\My Documents\Alarm Controller\PIC Code\SMTP.c
                   __pa_7   0x00c91c    program     static C:\Documents and Settings\Administrator\My Documents\Alarm Controller\PIC Code\SMTP.c
                   __pa_8   0x00c92e    program     static C:\Documents and Settings\Administrator\My Documents\Alarm Controller\PIC Code\SMTP.c
                   __pa_9   0x00c93a    program     static C:\Documents and Settings\Administrator\My Documents\Alarm Controller\PIC Code\SMTP.c
                  __pa_10   0x00c944    program     static C:\Documents and Settings\Administrator\My Documents\Alarm Controller\PIC Code\SMTP.c
                  __pa_11   0x00c94e    program     static C:\Documents and Settings\Administrator\My Documents\Alarm Controller\PIC Code\SMTP.c
                  __pa_12   0x00c958    program     static C:\Documents and Settings\Administrator\My Documents\Alarm Controller\PIC Code\SMTP.c
                  __pa_13   0x00c96a    program     static C:\Documents and Settings\Administrator\My Documents\Alarm Controller\PIC Code\SMTP.c
                  __pa_14   0x00c976    program     static C:\Documents and Settings\Administrator\My Documents\Alarm Controller\PIC Code\SMTP.c
                  __pa_15   0x00c980    program     static C:\Documents and Settings\Administrator\My Documents\Alarm Controller\PIC Code\SMTP.c
                  __pa_16   0x00c994    program     static C:\Documents and Settings\Administrator\My Documents\Alarm Controller\PIC Code\SMTP.c
                  __pa_17   0x00c9a6    program     static C:\Documents and Settings\Administrator\My Documents\Alarm Controller\PIC Code\SMTP.c
                  __pa_18   0x00c9b0    program     static C:\Documents and Settings\Administrator\My Documents\Alarm Controller\PIC Code\SMTP.c
                  __pa_19   0x00c9b8    program     static C:\Documents and Settings\Administrator\My Documents\Alarm Controller\PIC Code\SMTP.c
                  __pa_20   0x00c9c0    program     static C:\Documents and Settings\Administrator\My Documents\Alarm Controller\PIC Code\SMTP.c
                  __pa_21   0x00c9c8    program     static C:\Documents and Settings\Administrator\My Documents\Alarm Controller\PIC Code\SMTP.c
                  __pa_22   0x00c9d0    program     static C:\Documents and Settings\Administrator\My Documents\Alarm Controller\PIC Code\SMTP.c
                  __pa_23   0x00c9e2    program     static C:\Documents and Settings\Administrator\My Documents\Alarm Controller\PIC Code\SMTP.c
               __tmplbl_0   0x00c9ea    program     static                          
               __tmplbl_1   0x00c9ea    program     static                          
                  __pa_24   0x00c9ea    program     static C:\Documents and Settings\Administrator\My Documents\Alarm Controller\PIC Code\SMTP.c
               __tmplbl_2   0x00c9ea    program     static                          
               __tmplbl_3   0x00c9ea    program     static                          
                  __pa_25   0x00c9f2    program     static C:\Documents and Settings\Administrator\My Documents\Alarm Controller\PIC Code\SMTP.c
                  __pa_26   0x00c9fa    program     static C:\Documents and Settings\Administrator\My Documents\Alarm Controller\PIC Code\SMTP.c
                  __pa_27   0x00ca0e    program     static C:\Documents and Settings\Administrator\My Documents\Alarm Controller\PIC Code\SMTP.c
                  __pa_28   0x00ca18    program     static C:\Documents and Settings\Administrator\My Documents\Alarm Controller\PIC Code\SMTP.c
               __tmplbl_6   0x00ca20    program     static                          
                  __pa_29   0x00ca20    program     static C:\Documents and Settings\Administrator\My Documents\Alarm Controller\PIC Code\SMTP.c
               __tmplbl_5   0x00ca20    program     static                          
               __tmplbl_4   0x00ca20    program     static                          
                  __pa_30   0x00ca26    program     static C:\Documents and Settings\Administrator\My Documents\Alarm Controller\PIC Code\SMTP.c
                  __pa_31   0x00ca30    program     static C:\Documents and Settings\Administrator\My Documents\Alarm Controller\PIC Code\SMTP.c
                  __pa_32   0x00ca36    program     static C:\Documents and Settings\Administrator\My Documents\Alarm Controller\PIC Code\SMTP.c
                  __pa_33   0x00ca3e    program     static C:\Documents and Settings\Administrator\My Documents\Alarm Controller\PIC Code\SMTP.c
            addxPLMessage   0x00ca44    program     extern C:\Documents and Settings\Administrator\My Documents\Alarm Controller\PIC Code\SecurityXPLSender.c
         SendZoneStateMsg   0x00cb50    program     extern C:\Documents and Settings\Administrator\My Documents\Alarm Controller\PIC Code\SecurityXPLSender.c
         SendAreaStateMsg   0x00cbd6    program     extern C:\Documents and Settings\Administrator\My Documents\Alarm Controller\PIC Code\SecurityXPLSender.c
          SendAlarmingMsg   0x00cd1c    program     extern C:\Documents and Settings\Administrator\My Documents\Alarm Controller\PIC Code\SecurityXPLSender.c
          SendGatewayInfo   0x00ce7e    program     extern C:\Documents and Settings\Administrator\My Documents\Alarm Controller\PIC Code\SecurityXPLSender.c
         SendGatewayReady   0x00cf3c    program     extern C:\Documents and Settings\Administrator\My Documents\Alarm Controller\PIC Code\SecurityXPLSender.c
                SendArmed   0x00cf6e    program     extern C:\Documents and Settings\Administrator\My Documents\Alarm Controller\PIC Code\SecurityXPLSender.c
                SendError   0x00d068    program     extern C:\Documents and Settings\Administrator\My Documents\Alarm Controller\PIC Code\SecurityXPLSender.c
               SendDisarm   0x00d0bc    program     extern C:\Documents and Settings\Administrator\My Documents\Alarm Controller\PIC Code\SecurityXPLSender.c
             SendZoneList   0x00d0fa    program     extern C:\Documents and Settings\Administrator\My Documents\Alarm Controller\PIC Code\SecurityXPLSender.c
             SendAreaList   0x00d164    program     extern C:\Documents and Settings\Administrator\My Documents\Alarm Controller\PIC Code\SecurityXPLSender.c
             SendZoneInfo   0x00d1cc    program     extern C:\Documents and Settings\Administrator\My Documents\Alarm Controller\PIC Code\SecurityXPLSender.c
             SendAreaInfo   0x00d2be    program     extern C:\Documents and Settings\Administrator\My Documents\Alarm Controller\PIC Code\SecurityXPLSender.c
           SendConfigList   0x00d35a    program     extern C:\Documents and Settings\Administrator\My Documents\Alarm Controller\PIC Code\SecurityXPLSender.c
        SendConfigCurrent   0x00d3b4    program     extern C:\Documents and Settings\Administrator\My Documents\Alarm Controller\PIC Code\SecurityXPLSender.c
              SendIPValue   0x00d466    program     extern C:\Documents and Settings\Administrator\My Documents\Alarm Controller\PIC Code\SecurityXPLSender.c
       SendGatewayChanged   0x00d4de    program     extern C:\Documents and Settings\Administrator\My Documents\Alarm Controller\PIC Code\SecurityXPLSender.c
          SendBatteryStat   0x00d50e    program     extern C:\Documents and Settings\Administrator\My Documents\Alarm Controller\PIC Code\SecurityXPLSender.c
               SendACStat   0x00d556    program     extern C:\Documents and Settings\Administrator\My Documents\Alarm Controller\PIC Code\SecurityXPLSender.c
             SendGateStat   0x00d598    program     extern C:\Documents and Settings\Administrator\My Documents\Alarm Controller\PIC Code\SecurityXPLSender.c
             SendAreaStat   0x00d6e0    program     extern C:\Documents and Settings\Administrator\My Documents\Alarm Controller\PIC Code\SecurityXPLSender.c
             SendZoneStat   0x00d836    program     extern C:\Documents and Settings\Administrator\My Documents\Alarm Controller\PIC Code\SecurityXPLSender.c
                   __pa_0   0x00d940    program     static C:\Documents and Settings\Administrator\My Documents\Alarm Controller\PIC Code\SecurityXPLSender.c
                   __pa_1   0x00d946    program     static C:\Documents and Settings\Administrator\My Documents\Alarm Controller\PIC Code\SecurityXPLSender.c
                   __pa_2   0x00d958    program     static C:\Documents and Settings\Administrator\My Documents\Alarm Controller\PIC Code\SecurityXPLSender.c
                   __pa_3   0x00d972    program     static C:\Documents and Settings\Administrator\My Documents\Alarm Controller\PIC Code\SecurityXPLSender.c
                   __pa_4   0x00d986    program     static C:\Documents and Settings\Administrator\My Documents\Alarm Controller\PIC Code\SecurityXPLSender.c
                   __pa_5   0x00d992    program     static C:\Documents and Settings\Administrator\My Documents\Alarm Controller\PIC Code\SecurityXPLSender.c
                   __pa_6   0x00d998    program     static C:\Documents and Settings\Administrator\My Documents\Alarm Controller\PIC Code\SecurityXPLSender.c
                   __pa_7   0x00d9a2    program     static C:\Documents and Settings\Administrator\My Documents\Alarm Controller\PIC Code\SecurityXPLSender.c
                   __pa_8   0x00d9ac    program     static C:\Documents and Settings\Administrator\My Documents\Alarm Controller\PIC Code\SecurityXPLSender.c
                   __pa_9   0x00d9b8    program     static C:\Documents and Settings\Administrator\My Documents\Alarm Controller\PIC Code\SecurityXPLSender.c
                  __pa_10   0x00d9ce    program     static C:\Documents and Settings\Administrator\My Documents\Alarm Controller\PIC Code\SecurityXPLSender.c
                  __pa_11   0x00d9d6    program     static C:\Documents and Settings\Administrator\My Documents\Alarm Controller\PIC Code\SecurityXPLSender.c
                  __pa_12   0x00d9e0    program     static C:\Documents and Settings\Administrator\My Documents\Alarm Controller\PIC Code\SecurityXPLSender.c
                  __pa_13   0x00da22    program     static C:\Documents and Settings\Administrator\My Documents\Alarm Controller\PIC Code\SecurityXPLSender.c
                  __pa_14   0x00da2e    program     static C:\Documents and Settings\Administrator\My Documents\Alarm Controller\PIC Code\SecurityXPLSender.c
                  __pa_15   0x00da38    program     static C:\Documents and Settings\Administrator\My Documents\Alarm Controller\PIC Code\SecurityXPLSender.c
                  __pa_16   0x00da42    program     static C:\Documents and Settings\Administrator\My Documents\Alarm Controller\PIC Code\SecurityXPLSender.c
                  __pa_17   0x00da4e    program     static C:\Documents and Settings\Administrator\My Documents\Alarm Controller\PIC Code\SecurityXPLSender.c
                  __pa_18   0x00da88    program     static C:\Documents and Settings\Administrator\My Documents\Alarm Controller\PIC Code\SecurityXPLSender.c
                  __pa_19   0x00da92    program     static C:\Documents and Settings\Administrator\My Documents\Alarm Controller\PIC Code\SecurityXPLSender.c
                  __pa_20   0x00da9e    program     static C:\Documents and Settings\Administrator\My Documents\Alarm Controller\PIC Code\SecurityXPLSender.c
                  __pa_21   0x00daaa    program     static C:\Documents and Settings\Administrator\My Documents\Alarm Controller\PIC Code\SecurityXPLSender.c
                  __pa_22   0x00dab0    program     static C:\Documents and Settings\Administrator\My Documents\Alarm Controller\PIC Code\SecurityXPLSender.c
                  __pa_23   0x00daba    program     static C:\Documents and Settings\Administrator\My Documents\Alarm Controller\PIC Code\SecurityXPLSender.c
                  __pa_24   0x00dac4    program     static C:\Documents and Settings\Administrator\My Documents\Alarm Controller\PIC Code\SecurityXPLSender.c
                  __pa_25   0x00dace    program     static C:\Documents and Settings\Administrator\My Documents\Alarm Controller\PIC Code\SecurityXPLSender.c
                  __pa_26   0x00dad8    program     static C:\Documents and Settings\Administrator\My Documents\Alarm Controller\PIC Code\SecurityXPLSender.c
                  __pa_27   0x00daec    program     static C:\Documents and Settings\Administrator\My Documents\Alarm Controller\PIC Code\SecurityXPLSender.c
                  __pa_28   0x00db0a    program     static C:\Documents and Settings\Administrator\My Documents\Alarm Controller\PIC Code\SecurityXPLSender.c
                  __pa_29   0x00db26    program     static C:\Documents and Settings\Administrator\My Documents\Alarm Controller\PIC Code\SecurityXPLSender.c
                  __pa_30   0x00db3c    program     static C:\Documents and Settings\Administrator\My Documents\Alarm Controller\PIC Code\SecurityXPLSender.c
                  __pa_31   0x00db46    program     static C:\Documents and Settings\Administrator\My Documents\Alarm Controller\PIC Code\SecurityXPLSender.c
                  __pa_32   0x00db56    program     static C:\Documents and Settings\Administrator\My Documents\Alarm Controller\PIC Code\SecurityXPLSender.c
                  __pa_33   0x00db60    program     static C:\Documents and Settings\Administrator\My Documents\Alarm Controller\PIC Code\SecurityXPLSender.c
                  __pa_34   0x00db6a    program     static C:\Documents and Settings\Administrator\My Documents\Alarm Controller\PIC Code\SecurityXPLSender.c
                  __pa_35   0x00db74    program     static C:\Documents and Settings\Administrator\My Documents\Alarm Controller\PIC Code\SecurityXPLSender.c
              __tmplbl_13   0x00db74    program     static                          
              __tmplbl_10   0x00db74    program     static                          
                  __pa_36   0x00db7c    program     static C:\Documents and Settings\Administrator\My Documents\Alarm Controller\PIC Code\SecurityXPLSender.c
                  __pa_37   0x00db8c    program     static C:\Documents and Settings\Administrator\My Documents\Alarm Controller\PIC Code\SecurityXPLSender.c
                  __pa_38   0x00db94    program     static C:\Documents and Settings\Administrator\My Documents\Alarm Controller\PIC Code\SecurityXPLSender.c
                  __pa_39   0x00dba2    program     static C:\Documents and Settings\Administrator\My Documents\Alarm Controller\PIC Code\SecurityXPLSender.c
                  __pa_40   0x00dbb0    program     static C:\Documents and Settings\Administrator\My Documents\Alarm Controller\PIC Code\SecurityXPLSender.c
              __tmplbl_16   0x00dbbe    program     static                          
                  __pa_41   0x00dbbe    program     static C:\Documents and Settings\Administrator\My Documents\Alarm Controller\PIC Code\SecurityXPLSender.c
              __tmplbl_19   0x00dbbe    program     static                          
              __tmplbl_22   0x00dbbe    program     static                          
                  __pa_42   0x00dbc6    program     static C:\Documents and Settings\Administrator\My Documents\Alarm Controller\PIC Code\SecurityXPLSender.c
                  __pa_43   0x00dbce    program     static C:\Documents and Settings\Administrator\My Documents\Alarm Controller\PIC Code\SecurityXPLSender.c
                  __pa_44   0x00dbdc    program     static C:\Documents and Settings\Administrator\My Documents\Alarm Controller\PIC Code\SecurityXPLSender.c
                  __pa_45   0x00dbea    program     static C:\Documents and Settings\Administrator\My Documents\Alarm Controller\PIC Code\SecurityXPLSender.c
                  __pa_46   0x00dbf4    program     static C:\Documents and Settings\Administrator\My Documents\Alarm Controller\PIC Code\SecurityXPLSender.c
                  __pa_47   0x00dbfe    program     static C:\Documents and Settings\Administrator\My Documents\Alarm Controller\PIC Code\SecurityXPLSender.c
                  __pa_48   0x00dc0c    program     static C:\Documents and Settings\Administrator\My Documents\Alarm Controller\PIC Code\SecurityXPLSender.c
                  __pa_49   0x00dc12    program     static C:\Documents and Settings\Administrator\My Documents\Alarm Controller\PIC Code\SecurityXPLSender.c
                  __pa_50   0x00dc18    program     static C:\Documents and Settings\Administrator\My Documents\Alarm Controller\PIC Code\SecurityXPLSender.c
                  __pa_51   0x00dc30    program     static C:\Documents and Settings\Administrator\My Documents\Alarm Controller\PIC Code\SecurityXPLSender.c
                  __pa_52   0x00dc40    program     static C:\Documents and Settings\Administrator\My Documents\Alarm Controller\PIC Code\SecurityXPLSender.c
                  __pa_53   0x00dc54    program     static C:\Documents and Settings\Administrator\My Documents\Alarm Controller\PIC Code\SecurityXPLSender.c
                  __pa_54   0x00dc6e    program     static C:\Documents and Settings\Administrator\My Documents\Alarm Controller\PIC Code\SecurityXPLSender.c
                  __pa_55   0x00dc7c    program     static C:\Documents and Settings\Administrator\My Documents\Alarm Controller\PIC Code\SecurityXPLSender.c
                  __pa_56   0x00dc8a    program     static C:\Documents and Settings\Administrator\My Documents\Alarm Controller\PIC Code\SecurityXPLSender.c
                  __pa_57   0x00dc9e    program     static C:\Documents and Settings\Administrator\My Documents\Alarm Controller\PIC Code\SecurityXPLSender.c
                  __pa_58   0x00dcac    program     static C:\Documents and Settings\Administrator\My Documents\Alarm Controller\PIC Code\SecurityXPLSender.c
                  __pa_59   0x00dcbc    program     static C:\Documents and Settings\Administrator\My Documents\Alarm Controller\PIC Code\SecurityXPLSender.c
                  __pa_60   0x00dcc8    program     static C:\Documents and Settings\Administrator\My Documents\Alarm Controller\PIC Code\SecurityXPLSender.c
                  __pa_61   0x00dcce    program     static C:\Documents and Settings\Administrator\My Documents\Alarm Controller\PIC Code\SecurityXPLSender.c
                  __pa_62   0x00dcd8    program     static C:\Documents and Settings\Administrator\My Documents\Alarm Controller\PIC Code\SecurityXPLSender.c
                  __pa_63   0x00dce6    program     static C:\Documents and Settings\Administrator\My Documents\Alarm Controller\PIC Code\SecurityXPLSender.c
                  __pa_64   0x00dcf4    program     static C:\Documents and Settings\Administrator\My Documents\Alarm Controller\PIC Code\SecurityXPLSender.c
                  __pa_65   0x00dd02    program     static C:\Documents and Settings\Administrator\My Documents\Alarm Controller\PIC Code\SecurityXPLSender.c
                  __pa_66   0x00dd12    program     static C:\Documents and Settings\Administrator\My Documents\Alarm Controller\PIC Code\SecurityXPLSender.c
                  __pa_67   0x00dd1e    program     static C:\Documents and Settings\Administrator\My Documents\Alarm Controller\PIC Code\SecurityXPLSender.c
                  __pa_68   0x00dd2c    program     static C:\Documents and Settings\Administrator\My Documents\Alarm Controller\PIC Code\SecurityXPLSender.c
                  __pa_69   0x00dd3c    program     static C:\Documents and Settings\Administrator\My Documents\Alarm Controller\PIC Code\SecurityXPLSender.c
                  __pa_70   0x00dd44    program     static C:\Documents and Settings\Administrator\My Documents\Alarm Controller\PIC Code\SecurityXPLSender.c
                  __pa_71   0x00dd4e    program     static C:\Documents and Settings\Administrator\My Documents\Alarm Controller\PIC Code\SecurityXPLSender.c
                  __pa_72   0x00dd56    program     static C:\Documents and Settings\Administrator\My Documents\Alarm Controller\PIC Code\SecurityXPLSender.c
                  __pa_73   0x00dd5c    program     static C:\Documents and Settings\Administrator\My Documents\Alarm Controller\PIC Code\SecurityXPLSender.c
                  __pa_74   0x00dd62    program     static C:\Documents and Settings\Administrator\My Documents\Alarm Controller\PIC Code\SecurityXPLSender.c
                  __pa_75   0x00dd6a    program     static C:\Documents and Settings\Administrator\My Documents\Alarm Controller\PIC Code\SecurityXPLSender.c
                  __pa_76   0x00dd72    program     static C:\Documents and Settings\Administrator\My Documents\Alarm Controller\PIC Code\SecurityXPLSender.c
                  __pa_77   0x00dd78    program     static C:\Documents and Settings\Administrator\My Documents\Alarm Controller\PIC Code\SecurityXPLSender.c
                  __pa_78   0x00dd88    program     static C:\Documents and Settings\Administrator\My Documents\Alarm Controller\PIC Code\SecurityXPLSender.c
                  __pa_79   0x00dd90    program     static C:\Documents and Settings\Administrator\My Documents\Alarm Controller\PIC Code\SecurityXPLSender.c
                  __pa_80   0x00dd96    program     static C:\Documents and Settings\Administrator\My Documents\Alarm Controller\PIC Code\SecurityXPLSender.c
                  __pa_81   0x00dd9c    program     static C:\Documents and Settings\Administrator\My Documents\Alarm Controller\PIC Code\SecurityXPLSender.c
                  __pa_82   0x00ddaa    program     static C:\Documents and Settings\Administrator\My Documents\Alarm Controller\PIC Code\SecurityXPLSender.c
                  __pa_83   0x00ddb8    program     static C:\Documents and Settings\Administrator\My Documents\Alarm Controller\PIC Code\SecurityXPLSender.c
                  __pa_84   0x00ddbe    program     static C:\Documents and Settings\Administrator\My Documents\Alarm Controller\PIC Code\SecurityXPLSender.c
                  __pa_85   0x00ddca    program     static C:\Documents and Settings\Administrator\My Documents\Alarm Controller\PIC Code\SecurityXPLSender.c
                  __pa_86   0x00ddd2    program     static C:\Documents and Settings\Administrator\My Documents\Alarm Controller\PIC Code\SecurityXPLSender.c
                  __pa_87   0x00ddd8    program     static C:\Documents and Settings\Administrator\My Documents\Alarm Controller\PIC Code\SecurityXPLSender.c
           HTTPExecuteGet   0x00dde2    program     extern C:\Documents and Settings\Administrator\My Documents\Alarm Controller\PIC Code\HTTPForms.c
    SaveDeviceDescription   0x00e5ae    program     static C:\Documents and Settings\Administrator\My Documents\Alarm Controller\PIC Code\HTTPForms.c
         DecodeIntFromGET   0x00e65e    program     extern C:\Documents and Settings\Administrator\My Documents\Alarm Controller\PIC Code\HTTPForms.c
          HTTPExecutePost   0x00e712    program     extern C:\Documents and Settings\Administrator\My Documents\Alarm Controller\PIC Code\HTTPForms.c
           HTTPPostConfig   0x00e77a    program     static C:\Documents and Settings\Administrator\My Documents\Alarm Controller\PIC Code\HTTPForms.c
                   __pa_0   0x00ebba    program     static C:\Documents and Settings\Administrator\My Documents\Alarm Controller\PIC Code\HTTPForms.c
                   __pa_1   0x00ebd6    program     static C:\Documents and Settings\Administrator\My Documents\Alarm Controller\PIC Code\HTTPForms.c
                   __pa_2   0x00ebec    program     static C:\Documents and Settings\Administrator\My Documents\Alarm Controller\PIC Code\HTTPForms.c
                   __pa_3   0x00ec0a    program     static C:\Documents and Settings\Administrator\My Documents\Alarm Controller\PIC Code\HTTPForms.c
                   __pa_4   0x00ec14    program     static C:\Documents and Settings\Administrator\My Documents\Alarm Controller\PIC Code\HTTPForms.c
                   __pa_5   0x00ec18    program     static C:\Documents and Settings\Administrator\My Documents\Alarm Controller\PIC Code\HTTPForms.c
                   __pa_6   0x00ec40    program     static C:\Documents and Settings\Administrator\My Documents\Alarm Controller\PIC Code\HTTPForms.c
                   __pa_7   0x00ec56    program     static C:\Documents and Settings\Administrator\My Documents\Alarm Controller\PIC Code\HTTPForms.c
                   __pa_8   0x00ec5e    program     static C:\Documents and Settings\Administrator\My Documents\Alarm Controller\PIC Code\HTTPForms.c
                   __pa_9   0x00ec68    program     static C:\Documents and Settings\Administrator\My Documents\Alarm Controller\PIC Code\HTTPForms.c
                  __pa_10   0x00ec74    program     static C:\Documents and Settings\Administrator\My Documents\Alarm Controller\PIC Code\HTTPForms.c
                  __pa_11   0x00ec84    program     static C:\Documents and Settings\Administrator\My Documents\Alarm Controller\PIC Code\HTTPForms.c
                  __pa_12   0x00ec8e    program     static C:\Documents and Settings\Administrator\My Documents\Alarm Controller\PIC Code\HTTPForms.c
                  __pa_13   0x00eca6    program     static C:\Documents and Settings\Administrator\My Documents\Alarm Controller\PIC Code\HTTPForms.c
                  __pa_14   0x00ecb8    program     static C:\Documents and Settings\Administrator\My Documents\Alarm Controller\PIC Code\HTTPForms.c
                  __pa_15   0x00ecbe    program     static C:\Documents and Settings\Administrator\My Documents\Alarm Controller\PIC Code\HTTPForms.c
                  __pa_16   0x00ecdc    program     static C:\Documents and Settings\Administrator\My Documents\Alarm Controller\PIC Code\HTTPForms.c
                  __pa_17   0x00ecea    program     static C:\Documents and Settings\Administrator\My Documents\Alarm Controller\PIC Code\HTTPForms.c
                  __pa_18   0x00ecf6    program     static C:\Documents and Settings\Administrator\My Documents\Alarm Controller\PIC Code\HTTPForms.c
                  __pa_19   0x00ecfa    program     static C:\Documents and Settings\Administrator\My Documents\Alarm Controller\PIC Code\HTTPForms.c
                  __pa_20   0x00ed08    program     static C:\Documents and Settings\Administrator\My Documents\Alarm Controller\PIC Code\HTTPForms.c
                  __pa_21   0x00ed12    program     static C:\Documents and Settings\Administrator\My Documents\Alarm Controller\PIC Code\HTTPForms.c
                  __pa_22   0x00ed1e    program     static C:\Documents and Settings\Administrator\My Documents\Alarm Controller\PIC Code\HTTPForms.c
                  __pa_23   0x00ed2a    program     static C:\Documents and Settings\Administrator\My Documents\Alarm Controller\PIC Code\HTTPForms.c
                  __pa_24   0x00ed40    program     static C:\Documents and Settings\Administrator\My Documents\Alarm Controller\PIC Code\HTTPForms.c
                  __pa_25   0x00ed46    program     static C:\Documents and Settings\Administrator\My Documents\Alarm Controller\PIC Code\HTTPForms.c
                  __pa_26   0x00ed4e    program     static C:\Documents and Settings\Administrator\My Documents\Alarm Controller\PIC Code\HTTPForms.c
                  __pa_27   0x00ed58    program     static C:\Documents and Settings\Administrator\My Documents\Alarm Controller\PIC Code\HTTPForms.c
                  __pa_28   0x00ed62    program     static C:\Documents and Settings\Administrator\My Documents\Alarm Controller\PIC Code\HTTPForms.c
                  __pa_29   0x00ed6e    program     static C:\Documents and Settings\Administrator\My Documents\Alarm Controller\PIC Code\HTTPForms.c
                  __pa_30   0x00ed74    program     static C:\Documents and Settings\Administrator\My Documents\Alarm Controller\PIC Code\HTTPForms.c
                  __pa_31   0x00ed82    program     static C:\Documents and Settings\Administrator\My Documents\Alarm Controller\PIC Code\HTTPForms.c
                  __pa_32   0x00ed88    program     static C:\Documents and Settings\Administrator\My Documents\Alarm Controller\PIC Code\HTTPForms.c
                  __pa_33   0x00ed8e    program     static C:\Documents and Settings\Administrator\My Documents\Alarm Controller\PIC Code\HTTPForms.c
                  __pa_34   0x00ed9c    program     static C:\Documents and Settings\Administrator\My Documents\Alarm Controller\PIC Code\HTTPForms.c
                  __pa_35   0x00edaa    program     static C:\Documents and Settings\Administrator\My Documents\Alarm Controller\PIC Code\HTTPForms.c
                  __pa_36   0x00edb4    program     static C:\Documents and Settings\Administrator\My Documents\Alarm Controller\PIC Code\HTTPForms.c
                  __pa_37   0x00edbc    program     static C:\Documents and Settings\Administrator\My Documents\Alarm Controller\PIC Code\HTTPForms.c
                  __pa_38   0x00edc4    program     static C:\Documents and Settings\Administrator\My Documents\Alarm Controller\PIC Code\HTTPForms.c
                  __pa_39   0x00edce    program     static C:\Documents and Settings\Administrator\My Documents\Alarm Controller\PIC Code\HTTPForms.c
                  __pa_40   0x00edda    program     static C:\Documents and Settings\Administrator\My Documents\Alarm Controller\PIC Code\HTTPForms.c
                  __pa_41   0x00edee    program     static C:\Documents and Settings\Administrator\My Documents\Alarm Controller\PIC Code\HTTPForms.c
                  __pa_42   0x00ee02    program     static C:\Documents and Settings\Administrator\My Documents\Alarm Controller\PIC Code\HTTPForms.c
                  __pa_43   0x00ee14    program     static C:\Documents and Settings\Administrator\My Documents\Alarm Controller\PIC Code\HTTPForms.c
                  __pa_44   0x00ee1a    program     static C:\Documents and Settings\Administrator\My Documents\Alarm Controller\PIC Code\HTTPForms.c
                  __pa_45   0x00ee2e    program     static C:\Documents and Settings\Administrator\My Documents\Alarm Controller\PIC Code\HTTPForms.c
                  __pa_46   0x00ee34    program     static C:\Documents and Settings\Administrator\My Documents\Alarm Controller\PIC Code\HTTPForms.c
                  __pa_47   0x00ee46    program     static C:\Documents and Settings\Administrator\My Documents\Alarm Controller\PIC Code\HTTPForms.c
                  __pa_48   0x00ee4e    program     static C:\Documents and Settings\Administrator\My Documents\Alarm Controller\PIC Code\HTTPForms.c
                  __pa_49   0x00ee60    program     static C:\Documents and Settings\Administrator\My Documents\Alarm Controller\PIC Code\HTTPForms.c
                  __pa_50   0x00ee6a    program     static C:\Documents and Settings\Administrator\My Documents\Alarm Controller\PIC Code\HTTPForms.c
                  __pa_51   0x00ee74    program     static C:\Documents and Settings\Administrator\My Documents\Alarm Controller\PIC Code\HTTPForms.c
                  __pa_52   0x00ee7c    program     static C:\Documents and Settings\Administrator\My Documents\Alarm Controller\PIC Code\HTTPForms.c
                  __pa_53   0x00ee8a    program     static C:\Documents and Settings\Administrator\My Documents\Alarm Controller\PIC Code\HTTPForms.c
                  __pa_54   0x00ee98    program     static C:\Documents and Settings\Administrator\My Documents\Alarm Controller\PIC Code\HTTPForms.c
                  __pa_55   0x00eea6    program     static C:\Documents and Settings\Administrator\My Documents\Alarm Controller\PIC Code\HTTPForms.c
                  __pa_56   0x00eeb4    program     static C:\Documents and Settings\Administrator\My Documents\Alarm Controller\PIC Code\HTTPForms.c
                  __pa_57   0x00eec0    program     static C:\Documents and Settings\Administrator\My Documents\Alarm Controller\PIC Code\HTTPForms.c
                  __pa_58   0x00eed0    program     static C:\Documents and Settings\Administrator\My Documents\Alarm Controller\PIC Code\HTTPForms.c
                  __pa_59   0x00eee0    program     static C:\Documents and Settings\Administrator\My Documents\Alarm Controller\PIC Code\HTTPForms.c
                  __pa_60   0x00eeea    program     static C:\Documents and Settings\Administrator\My Documents\Alarm Controller\PIC Code\HTTPForms.c
                  __pa_61   0x00eef4    program     static C:\Documents and Settings\Administrator\My Documents\Alarm Controller\PIC Code\HTTPForms.c
                  __pa_62   0x00eefa    program     static C:\Documents and Settings\Administrator\My Documents\Alarm Controller\PIC Code\HTTPForms.c
                  __pa_63   0x00ef04    program     static C:\Documents and Settings\Administrator\My Documents\Alarm Controller\PIC Code\HTTPForms.c
                  __pa_64   0x00ef0a    program     static C:\Documents and Settings\Administrator\My Documents\Alarm Controller\PIC Code\HTTPForms.c
                  __pa_65   0x00ef14    program     static C:\Documents and Settings\Administrator\My Documents\Alarm Controller\PIC Code\HTTPForms.c
                  __pa_66   0x00ef1e    program     static C:\Documents and Settings\Administrator\My Documents\Alarm Controller\PIC Code\HTTPForms.c
                  __pa_67   0x00ef2c    program     static C:\Documents and Settings\Administrator\My Documents\Alarm Controller\PIC Code\HTTPForms.c
                  __pa_68   0x00ef3a    program     static C:\Documents and Settings\Administrator\My Documents\Alarm Controller\PIC Code\HTTPForms.c
                  __pa_69   0x00ef48    program     static C:\Documents and Settings\Administrator\My Documents\Alarm Controller\PIC Code\HTTPForms.c
                  __pa_70   0x00ef52    program     static C:\Documents and Settings\Administrator\My Documents\Alarm Controller\PIC Code\HTTPForms.c
                  xPLInit   0x00ef58    program     extern C:\Documents and Settings\Administrator\My Documents\Alarm Controller\PIC Code\xPL.c
          xPLLoadEEConfig   0x00efe6    program     extern C:\Documents and Settings\Administrator\My Documents\Alarm Controller\PIC Code\xPL.c
          xPLSaveEEConfig   0x00f06e    program     extern C:\Documents and Settings\Administrator\My Documents\Alarm Controller\PIC Code\xPL.c
       XPLHeartBeatTiming   0x00f130    program     static C:\Documents and Settings\Administrator\My Documents\Alarm Controller\PIC Code\xPL.c
                 XPLTasks   0x00f180    program     extern C:\Documents and Settings\Administrator\My Documents\Alarm Controller\PIC Code\xPL.c
         XPLSendHeartBeat   0x00f1c4    program     static C:\Documents and Settings\Administrator\My Documents\Alarm Controller\PIC Code\xPL.c
            XPLSendHeader   0x00f254    program     extern C:\Documents and Settings\Administrator\My Documents\Alarm Controller\PIC Code\xPL.c
         XPLProcessUDPMsg   0x00f432    program     static C:\Documents and Settings\Administrator\My Documents\Alarm Controller\PIC Code\xPL.c
   XPLProcessUDPMsgHeader   0x00f5d4    program     static C:\Documents and Settings\Administrator\My Documents\Alarm Controller\PIC Code\xPL.c
      xPLProcessSaveValue   0x00f950    program     static C:\Documents and Settings\Administrator\My Documents\Alarm Controller\PIC Code\xPL.c
        xPLProcessMsgChar   0x00fa04    program     static C:\Documents and Settings\Administrator\My Documents\Alarm Controller\PIC Code\xPL.c
      xPLProcess_MsgField   0x00fa2e    program     static C:\Documents and Settings\Administrator\My Documents\Alarm Controller\PIC Code\xPL.c
     xPLProcessMsgCompair   0x00fb06    program     static C:\Documents and Settings\Administrator\My Documents\Alarm Controller\PIC Code\xPL.c
        xPLFindArrayInKVP   0x00fbac    program     extern C:\Documents and Settings\Administrator\My Documents\Alarm Controller\PIC Code\xPL.c
                  SaveKVP   0x00fc1a    program     extern C:\Documents and Settings\Administrator\My Documents\Alarm Controller\PIC Code\xPL.c
                   __pa_0   0x00fcca    program     static C:\Documents and Settings\Administrator\My Documents\Alarm Controller\PIC Code\xPL.c
                   __pa_1   0x00fcda    program     static C:\Documents and Settings\Administrator\My Documents\Alarm Controller\PIC Code\xPL.c
                   __pa_2   0x00fce4    program     static C:\Documents and Settings\Administrator\My Documents\Alarm Controller\PIC Code\xPL.c
                   __pa_3   0x00fcf0    program     static C:\Documents and Settings\Administrator\My Documents\Alarm Controller\PIC Code\xPL.c
                   __pa_4   0x00fcfa    program     static C:\Documents and Settings\Administrator\My Documents\Alarm Controller\PIC Code\xPL.c
                   __pa_5   0x00fd50    program     static C:\Documents and Settings\Administrator\My Documents\Alarm Controller\PIC Code\xPL.c
                   __pa_6   0x00fd6e    program     static C:\Documents and Settings\Administrator\My Documents\Alarm Controller\PIC Code\xPL.c
                   __pa_7   0x00fd78    program     static C:\Documents and Settings\Administrator\My Documents\Alarm Controller\PIC Code\xPL.c
                   __pa_8   0x00fd8c    program     static C:\Documents and Settings\Administrator\My Documents\Alarm Controller\PIC Code\xPL.c
                   __pa_9   0x00fd96    program     static C:\Documents and Settings\Administrator\My Documents\Alarm Controller\PIC Code\xPL.c
                  __pa_10   0x00fda8    program     static C:\Documents and Settings\Administrator\My Documents\Alarm Controller\PIC Code\xPL.c
                  __pa_11   0x00fdbc    program     static C:\Documents and Settings\Administrator\My Documents\Alarm Controller\PIC Code\xPL.c
                  __pa_12   0x00fdca    program     static C:\Documents and Settings\Administrator\My Documents\Alarm Controller\PIC Code\xPL.c
                  __pa_13   0x00fdd4    program     static C:\Documents and Settings\Administrator\My Documents\Alarm Controller\PIC Code\xPL.c
                  __pa_14   0x00fde0    program     static C:\Documents and Settings\Administrator\My Documents\Alarm Controller\PIC Code\xPL.c
                  __pa_15   0x00fdea    program     static C:\Documents and Settings\Administrator\My Documents\Alarm Controller\PIC Code\xPL.c
                  __pa_16   0x00fe12    program     static C:\Documents and Settings\Administrator\My Documents\Alarm Controller\PIC Code\xPL.c
                  __pa_17   0x00fe20    program     static C:\Documents and Settings\Administrator\My Documents\Alarm Controller\PIC Code\xPL.c
                  __pa_18   0x00fe2c    program     static C:\Documents and Settings\Administrator\My Documents\Alarm Controller\PIC Code\xPL.c
              __tmplbl_35   0x00fe2c    program     static                          
                  __pa_19   0x00fe38    program     static C:\Documents and Settings\Administrator\My Documents\Alarm Controller\PIC Code\xPL.c
                  __pa_20   0x00fe42    program     static C:\Documents and Settings\Administrator\My Documents\Alarm Controller\PIC Code\xPL.c
                  __pa_21   0x00fe5e    program     static C:\Documents and Settings\Administrator\My Documents\Alarm Controller\PIC Code\xPL.c
                  __pa_22   0x00fe6a    program     static C:\Documents and Settings\Administrator\My Documents\Alarm Controller\PIC Code\xPL.c
                  __pa_23   0x00fe76    program     static C:\Documents and Settings\Administrator\My Documents\Alarm Controller\PIC Code\xPL.c
                  __pa_24   0x00fe80    program     static C:\Documents and Settings\Administrator\My Documents\Alarm Controller\PIC Code\xPL.c
                  __pa_25   0x00fe8c    program     static C:\Documents and Settings\Administrator\My Documents\Alarm Controller\PIC Code\xPL.c
                  __pa_26   0x00fe94    program     static C:\Documents and Settings\Administrator\My Documents\Alarm Controller\PIC Code\xPL.c
                  __pa_27   0x00fe9e    program     static C:\Documents and Settings\Administrator\My Documents\Alarm Controller\PIC Code\xPL.c
                  __pa_28   0x00feb2    program     static C:\Documents and Settings\Administrator\My Documents\Alarm Controller\PIC Code\xPL.c
                  __pa_29   0x00febc    program     static C:\Documents and Settings\Administrator\My Documents\Alarm Controller\PIC Code\xPL.c
                  __pa_30   0x00fec6    program     static C:\Documents and Settings\Administrator\My Documents\Alarm Controller\PIC Code\xPL.c
                  __pa_31   0x00fed0    program     static C:\Documents and Settings\Administrator\My Documents\Alarm Controller\PIC Code\xPL.c
                  __pa_32   0x00fee0    program     static C:\Documents and Settings\Administrator\My Documents\Alarm Controller\PIC Code\xPL.c
                  __pa_33   0x00fef0    program     static C:\Documents and Settings\Administrator\My Documents\Alarm Controller\PIC Code\xPL.c
                  __pa_34   0x00fefe    program     static C:\Documents and Settings\Administrator\My Documents\Alarm Controller\PIC Code\xPL.c
                  __pa_35   0x00ff0c    program     static C:\Documents and Settings\Administrator\My Documents\Alarm Controller\PIC Code\xPL.c
                  __pa_36   0x00ff1a    program     static C:\Documents and Settings\Administrator\My Documents\Alarm Controller\PIC Code\xPL.c
                  __pa_37   0x00ff26    program     static C:\Documents and Settings\Administrator\My Documents\Alarm Controller\PIC Code\xPL.c
                  __pa_38   0x00ff34    program     static C:\Documents and Settings\Administrator\My Documents\Alarm Controller\PIC Code\xPL.c
                  __pa_39   0x00ff3e    program     static C:\Documents and Settings\Administrator\My Documents\Alarm Controller\PIC Code\xPL.c
                  __pa_40   0x00ff46    program     static C:\Documents and Settings\Administrator\My Documents\Alarm Controller\PIC Code\xPL.c
                  __pa_41   0x00ff50    program     static C:\Documents and Settings\Administrator\My Documents\Alarm Controller\PIC Code\xPL.c
                  __pa_42   0x00ff6e    program     static C:\Documents and Settings\Administrator\My Documents\Alarm Controller\PIC Code\xPL.c
                  __pa_43   0x00ff7a    program     static C:\Documents and Settings\Administrator\My Documents\Alarm Controller\PIC Code\xPL.c
                  __pa_44   0x00ff90    program     static C:\Documents and Settings\Administrator\My Documents\Alarm Controller\PIC Code\xPL.c
                  __pa_45   0x00ff9e    program     static C:\Documents and Settings\Administrator\My Documents\Alarm Controller\PIC Code\xPL.c
                  __pa_46   0x00ffa8    program     static C:\Documents and Settings\Administrator\My Documents\Alarm Controller\PIC Code\xPL.c
                  __pa_47   0x00ffb2    program     static C:\Documents and Settings\Administrator\My Documents\Alarm Controller\PIC Code\xPL.c
                  __pa_48   0x00ffb8    program     static C:\Documents and Settings\Administrator\My Documents\Alarm Controller\PIC Code\xPL.c
                  __pa_49   0x00ffca    program     static C:\Documents and Settings\Administrator\My Documents\Alarm Controller\PIC Code\xPL.c
                  __pa_50   0x00ffe0    program     static C:\Documents and Settings\Administrator\My Documents\Alarm Controller\PIC Code\xPL.c
                  __pa_51   0x00ffec    program     static C:\Documents and Settings\Administrator\My Documents\Alarm Controller\PIC Code\xPL.c
                  __pa_52   0x00fffa    program     static C:\Documents and Settings\Administrator\My Documents\Alarm Controller\PIC Code\xPL.c
                  __pa_53   0x01000a    program     static C:\Documents and Settings\Administrator\My Documents\Alarm Controller\PIC Code\xPL.c
                  __pa_54   0x010012    program     static C:\Documents and Settings\Administrator\My Documents\Alarm Controller\PIC Code\xPL.c
                  __pa_55   0x01001a    program     static C:\Documents and Settings\Administrator\My Documents\Alarm Controller\PIC Code\xPL.c
                  __pa_56   0x010024    program     static C:\Documents and Settings\Administrator\My Documents\Alarm Controller\PIC Code\xPL.c
                  __pa_57   0x010034    program     static C:\Documents and Settings\Administrator\My Documents\Alarm Controller\PIC Code\xPL.c
                  __pa_58   0x010040    program     static C:\Documents and Settings\Administrator\My Documents\Alarm Controller\PIC Code\xPL.c
                  __pa_59   0x010048    program     static C:\Documents and Settings\Administrator\My Documents\Alarm Controller\PIC Code\xPL.c
                  __pa_60   0x01004e    program     static C:\Documents and Settings\Administrator\My Documents\Alarm Controller\PIC Code\xPL.c
                  __pa_61   0x010058    program     static C:\Documents and Settings\Administrator\My Documents\Alarm Controller\PIC Code\xPL.c
                  __pa_62   0x01005e    program     static C:\Documents and Settings\Administrator\My Documents\Alarm Controller\PIC Code\xPL.c
                  __pa_63   0x010066    program     static C:\Documents and Settings\Administrator\My Documents\Alarm Controller\PIC Code\xPL.c
                  __pa_64   0x01006c    program     static C:\Documents and Settings\Administrator\My Documents\Alarm Controller\PIC Code\xPL.c
                  __pa_65   0x01007a    program     static C:\Documents and Settings\Administrator\My Documents\Alarm Controller\PIC Code\xPL.c
                 MPFSInit   0x010084    program     extern C:\Documents and Settings\Administrator\My Documents\Alarm Controller\Microchip\TCPIP Stack\MPFS2.c
                 MPFSOpen   0x0100ba    program     extern C:\Documents and Settings\Administrator\My Documents\Alarm Controller\Microchip\TCPIP Stack\MPFS2.c
              MPFSOpenROM   0x010218    program     extern C:\Documents and Settings\Administrator\My Documents\Alarm Controller\Microchip\TCPIP Stack\MPFS2.c
               MPFSOpenID   0x01037a    program     extern C:\Documents and Settings\Administrator\My Documents\Alarm Controller\Microchip\TCPIP Stack\MPFS2.c
                MPFSClose   0x0103f6    program     extern C:\Documents and Settings\Administrator\My Documents\Alarm Controller\Microchip\TCPIP Stack\MPFS2.c
                  MPFSGet   0x010410    program     extern C:\Documents and Settings\Administrator\My Documents\Alarm Controller\Microchip\TCPIP Stack\MPFS2.c
             MPFSGetArray   0x0104d0    program     extern C:\Documents and Settings\Administrator\My Documents\Alarm Controller\Microchip\TCPIP Stack\MPFS2.c
              MPFSGetLong   0x010558    program     extern C:\Documents and Settings\Administrator\My Documents\Alarm Controller\Microchip\TCPIP Stack\MPFS2.c
                 MPFSSeek   0x010580    program     extern C:\Documents and Settings\Administrator\My Documents\Alarm Controller\Microchip\TCPIP Stack\MPFS2.c
               MPFSFormat   0x0106a8    program     extern C:\Documents and Settings\Administrator\My Documents\Alarm Controller\Microchip\TCPIP Stack\MPFS2.c
             MPFSPutArray   0x01076a    program     extern C:\Documents and Settings\Administrator\My Documents\Alarm Controller\Microchip\TCPIP Stack\MPFS2.c
               MPFSPutEnd   0x0107ea    program     extern C:\Documents and Settings\Administrator\My Documents\Alarm Controller\Microchip\TCPIP Stack\MPFS2.c
           _LoadFATRecord   0x010804    program     static C:\Documents and Settings\Administrator\My Documents\Alarm Controller\Microchip\TCPIP Stack\MPFS2.c
         MPFSGetTimestamp   0x010882    program     extern C:\Documents and Settings\Administrator\My Documents\Alarm Controller\Microchip\TCPIP Stack\MPFS2.c
         MPFSGetMicrotime   0x0108b4    program     extern C:\Documents and Settings\Administrator\My Documents\Alarm Controller\Microchip\TCPIP Stack\MPFS2.c
             MPFSGetFlags   0x0108e6    program     extern C:\Documents and Settings\Administrator\My Documents\Alarm Controller\Microchip\TCPIP Stack\MPFS2.c
              MPFSGetSize   0x010914    program     extern C:\Documents and Settings\Administrator\My Documents\Alarm Controller\Microchip\TCPIP Stack\MPFS2.c
          MPFSGetBytesRem   0x010946    program     extern C:\Documents and Settings\Administrator\My Documents\Alarm Controller\Microchip\TCPIP Stack\MPFS2.c
         MPFSGetStartAddr   0x01097a    program     extern C:\Documents and Settings\Administrator\My Documents\Alarm Controller\Microchip\TCPIP Stack\MPFS2.c
           MPFSGetEndAddr   0x0109b8    program     extern C:\Documents and Settings\Administrator\My Documents\Alarm Controller\Microchip\TCPIP Stack\MPFS2.c
          MPFSGetFilename   0x010a18    program     extern C:\Documents and Settings\Administrator\My Documents\Alarm Controller\Microchip\TCPIP Stack\MPFS2.c
          MPFSGetPosition   0x010a80    program     extern C:\Documents and Settings\Administrator\My Documents\Alarm Controller\Microchip\TCPIP Stack\MPFS2.c
                MPFSGetID   0x010ab0    program     extern C:\Documents and Settings\Administrator\My Documents\Alarm Controller\Microchip\TCPIP Stack\MPFS2.c
                _Validate   0x010ac8    program     static C:\Documents and Settings\Administrator\My Documents\Alarm Controller\Microchip\TCPIP Stack\MPFS2.c
                   __pa_0   0x010b18    program     static C:\Documents and Settings\Administrator\My Documents\Alarm Controller\Microchip\TCPIP Stack\MPFS2.c
                   __pa_1   0x010b2c    program     static C:\Documents and Settings\Administrator\My Documents\Alarm Controller\Microchip\TCPIP Stack\MPFS2.c
                   __pa_2   0x010b48    program     static C:\Documents and Settings\Administrator\My Documents\Alarm Controller\Microchip\TCPIP Stack\MPFS2.c
                   __pa_3   0x010b5e    program     static C:\Documents and Settings\Administrator\My Documents\Alarm Controller\Microchip\TCPIP Stack\MPFS2.c
                   __pa_4   0x010b68    program     static C:\Documents and Settings\Administrator\My Documents\Alarm Controller\Microchip\TCPIP Stack\MPFS2.c
                   __pa_5   0x010b72    program     static C:\Documents and Settings\Administrator\My Documents\Alarm Controller\Microchip\TCPIP Stack\MPFS2.c
                   __pa_6   0x010b88    program     static C:\Documents and Settings\Administrator\My Documents\Alarm Controller\Microchip\TCPIP Stack\MPFS2.c
                   __pa_7   0x010b8e    program     static C:\Documents and Settings\Administrator\My Documents\Alarm Controller\Microchip\TCPIP Stack\MPFS2.c
                   __pa_8   0x010b96    program     static C:\Documents and Settings\Administrator\My Documents\Alarm Controller\Microchip\TCPIP Stack\MPFS2.c
                   __pa_9   0x010ba8    program     static C:\Documents and Settings\Administrator\My Documents\Alarm Controller\Microchip\TCPIP Stack\MPFS2.c
                  __pa_10   0x010bb6    program     static C:\Documents and Settings\Administrator\My Documents\Alarm Controller\Microchip\TCPIP Stack\MPFS2.c
                  __pa_11   0x010bd6    program     static C:\Documents and Settings\Administrator\My Documents\Alarm Controller\Microchip\TCPIP Stack\MPFS2.c
                  __pa_12   0x010bf0    program     static C:\Documents and Settings\Administrator\My Documents\Alarm Controller\Microchip\TCPIP Stack\MPFS2.c
                  __pa_13   0x010c02    program     static C:\Documents and Settings\Administrator\My Documents\Alarm Controller\Microchip\TCPIP Stack\MPFS2.c
                  __pa_14   0x010c14    program     static C:\Documents and Settings\Administrator\My Documents\Alarm Controller\Microchip\TCPIP Stack\MPFS2.c
                  __pa_15   0x010c26    program     static C:\Documents and Settings\Administrator\My Documents\Alarm Controller\Microchip\TCPIP Stack\MPFS2.c
                  __pa_16   0x010c32    program     static C:\Documents and Settings\Administrator\My Documents\Alarm Controller\Microchip\TCPIP Stack\MPFS2.c
                  __pa_17   0x010c3e    program     static C:\Documents and Settings\Administrator\My Documents\Alarm Controller\Microchip\TCPIP Stack\MPFS2.c
                  __pa_18   0x010c46    program     static C:\Documents and Settings\Administrator\My Documents\Alarm Controller\Microchip\TCPIP Stack\MPFS2.c
                  __pa_19   0x010c54    program     static C:\Documents and Settings\Administrator\My Documents\Alarm Controller\Microchip\TCPIP Stack\MPFS2.c
                  __pa_20   0x010c5e    program     static C:\Documents and Settings\Administrator\My Documents\Alarm Controller\Microchip\TCPIP Stack\MPFS2.c
                  __pa_21   0x010c72    program     static C:\Documents and Settings\Administrator\My Documents\Alarm Controller\Microchip\TCPIP Stack\MPFS2.c
                  __pa_22   0x010c86    program     static C:\Documents and Settings\Administrator\My Documents\Alarm Controller\Microchip\TCPIP Stack\MPFS2.c
                  __pa_23   0x010c98    program     static C:\Documents and Settings\Administrator\My Documents\Alarm Controller\Microchip\TCPIP Stack\MPFS2.c
                  __pa_24   0x010caa    program     static C:\Documents and Settings\Administrator\My Documents\Alarm Controller\Microchip\TCPIP Stack\MPFS2.c
                  __pa_25   0x010cbc    program     static C:\Documents and Settings\Administrator\My Documents\Alarm Controller\Microchip\TCPIP Stack\MPFS2.c
                  __pa_26   0x010cce    program     static C:\Documents and Settings\Administrator\My Documents\Alarm Controller\Microchip\TCPIP Stack\MPFS2.c
                  __pa_27   0x010ce0    program     static C:\Documents and Settings\Administrator\My Documents\Alarm Controller\Microchip\TCPIP Stack\MPFS2.c
                  __pa_28   0x010cf2    program     static C:\Documents and Settings\Administrator\My Documents\Alarm Controller\Microchip\TCPIP Stack\MPFS2.c
                  __pa_29   0x010cfe    program     static C:\Documents and Settings\Administrator\My Documents\Alarm Controller\Microchip\TCPIP Stack\MPFS2.c
                  __pa_30   0x010d0e    program     static C:\Documents and Settings\Administrator\My Documents\Alarm Controller\Microchip\TCPIP Stack\MPFS2.c
                  __pa_31   0x010d1c    program     static C:\Documents and Settings\Administrator\My Documents\Alarm Controller\Microchip\TCPIP Stack\MPFS2.c
                  __pa_32   0x010d2a    program     static C:\Documents and Settings\Administrator\My Documents\Alarm Controller\Microchip\TCPIP Stack\MPFS2.c
                  __pa_33   0x010d38    program     static C:\Documents and Settings\Administrator\My Documents\Alarm Controller\Microchip\TCPIP Stack\MPFS2.c
                  __pa_34   0x010d46    program     static C:\Documents and Settings\Administrator\My Documents\Alarm Controller\Microchip\TCPIP Stack\MPFS2.c
              __tmplbl_61   0x010d50    program     static                          
              __tmplbl_60   0x010d50    program     static                          
                  __pa_35   0x010d50    program     static C:\Documents and Settings\Administrator\My Documents\Alarm Controller\Microchip\TCPIP Stack\MPFS2.c
                  __pa_36   0x010d58    program     static C:\Documents and Settings\Administrator\My Documents\Alarm Controller\Microchip\TCPIP Stack\MPFS2.c
                  __pa_37   0x010d62    program     static C:\Documents and Settings\Administrator\My Documents\Alarm Controller\Microchip\TCPIP Stack\MPFS2.c
                  __pa_38   0x010d68    program     static C:\Documents and Settings\Administrator\My Documents\Alarm Controller\Microchip\TCPIP Stack\MPFS2.c
                  __pa_39   0x010d72    program     static C:\Documents and Settings\Administrator\My Documents\Alarm Controller\Microchip\TCPIP Stack\MPFS2.c
                  __pa_40   0x010d7a    program     static C:\Documents and Settings\Administrator\My Documents\Alarm Controller\Microchip\TCPIP Stack\MPFS2.c
                  __pa_41   0x010d82    program     static C:\Documents and Settings\Administrator\My Documents\Alarm Controller\Microchip\TCPIP Stack\MPFS2.c
                  __pa_42   0x010d8e    program     static C:\Documents and Settings\Administrator\My Documents\Alarm Controller\Microchip\TCPIP Stack\MPFS2.c
                  __pa_43   0x010da2    program     static C:\Documents and Settings\Administrator\My Documents\Alarm Controller\Microchip\TCPIP Stack\MPFS2.c
                  __pa_44   0x010db6    program     static C:\Documents and Settings\Administrator\My Documents\Alarm Controller\Microchip\TCPIP Stack\MPFS2.c
                  __pa_45   0x010dc2    program     static C:\Documents and Settings\Administrator\My Documents\Alarm Controller\Microchip\TCPIP Stack\MPFS2.c
                  __pa_46   0x010dd0    program     static C:\Documents and Settings\Administrator\My Documents\Alarm Controller\Microchip\TCPIP Stack\MPFS2.c
                  __pa_47   0x010dda    program     static C:\Documents and Settings\Administrator\My Documents\Alarm Controller\Microchip\TCPIP Stack\MPFS2.c
                  __pa_48   0x010de4    program     static C:\Documents and Settings\Administrator\My Documents\Alarm Controller\Microchip\TCPIP Stack\MPFS2.c
                  __pa_49   0x010dee    program     static C:\Documents and Settings\Administrator\My Documents\Alarm Controller\Microchip\TCPIP Stack\MPFS2.c
                  __pa_50   0x010df4    program     static C:\Documents and Settings\Administrator\My Documents\Alarm Controller\Microchip\TCPIP Stack\MPFS2.c
                  __pa_51   0x010dfc    program     static C:\Documents and Settings\Administrator\My Documents\Alarm Controller\Microchip\TCPIP Stack\MPFS2.c
                  __pa_52   0x010e06    program     static C:\Documents and Settings\Administrator\My Documents\Alarm Controller\Microchip\TCPIP Stack\MPFS2.c
                  __pa_53   0x010e24    program     static C:\Documents and Settings\Administrator\My Documents\Alarm Controller\Microchip\TCPIP Stack\MPFS2.c
                  __pa_54   0x010e3e    program     static C:\Documents and Settings\Administrator\My Documents\Alarm Controller\Microchip\TCPIP Stack\MPFS2.c
                  __pa_55   0x010e4c    program     static C:\Documents and Settings\Administrator\My Documents\Alarm Controller\Microchip\TCPIP Stack\MPFS2.c
                  __pa_56   0x010e52    program     static C:\Documents and Settings\Administrator\My Documents\Alarm Controller\Microchip\TCPIP Stack\MPFS2.c
                  __pa_57   0x010e62    program     static C:\Documents and Settings\Administrator\My Documents\Alarm Controller\Microchip\TCPIP Stack\MPFS2.c
                  __pa_58   0x010e6e    program     static C:\Documents and Settings\Administrator\My Documents\Alarm Controller\Microchip\TCPIP Stack\MPFS2.c
                  __pa_59   0x010e74    program     static C:\Documents and Settings\Administrator\My Documents\Alarm Controller\Microchip\TCPIP Stack\MPFS2.c
          xPLAuthenticate   0x010e80    program     extern C:\Documents and Settings\Administrator\My Documents\Alarm Controller\PIC Code\Authenticate.c
             Authenticate   0x0111cc    program     extern C:\Documents and Settings\Administrator\My Documents\Alarm Controller\PIC Code\Authenticate.c
 HTTPPrint_RejectPassword   0x011286    program     extern C:\Documents and Settings\Administrator\My Documents\Alarm Controller\PIC Code\Authenticate.c
       HTTPPrint_UserName   0x0112a2    program     extern C:\Documents and Settings\Administrator\My Documents\Alarm Controller\PIC Code\Authenticate.c
   HTTPPrint_UserPassword   0x0112be    program     extern C:\Documents and Settings\Administrator\My Documents\Alarm Controller\PIC Code\Authenticate.c
   LoadUserPasswordEEdata   0x0112dc    program     static C:\Documents and Settings\Administrator\My Documents\Alarm Controller\PIC Code\Authenticate.c
       LoadUserNameEEdata   0x011362    program     static C:\Documents and Settings\Administrator\My Documents\Alarm Controller\PIC Code\Authenticate.c
   SaveUserPasswordEEdata   0x0113ce    program     static C:\Documents and Settings\Administrator\My Documents\Alarm Controller\PIC Code\Authenticate.c
       SaveUserNameEEdata   0x011434    program     static C:\Documents and Settings\Administrator\My Documents\Alarm Controller\PIC Code\Authenticate.c
               ModifyUser   0x011484    program     extern C:\Documents and Settings\Administrator\My Documents\Alarm Controller\PIC Code\Authenticate.c
            HTTPNeedsAuth   0x0115ba    program     extern C:\Documents and Settings\Administrator\My Documents\Alarm Controller\PIC Code\Authenticate.c
            HTTPCheckAuth   0x011610    program     extern C:\Documents and Settings\Administrator\My Documents\Alarm Controller\PIC Code\Authenticate.c
    HTTPPrint_PrintEEProm   0x0116d0    program     extern C:\Documents and Settings\Administrator\My Documents\Alarm Controller\PIC Code\Authenticate.c
                   __pa_0   0x01170a    program     static C:\Documents and Settings\Administrator\My Documents\Alarm Controller\PIC Code\Authenticate.c
                   __pa_1   0x011728    program     static C:\Documents and Settings\Administrator\My Documents\Alarm Controller\PIC Code\Authenticate.c
                   __pa_2   0x011732    program     static C:\Documents and Settings\Administrator\My Documents\Alarm Controller\PIC Code\Authenticate.c
                   __pa_3   0x01173a    program     static C:\Documents and Settings\Administrator\My Documents\Alarm Controller\PIC Code\Authenticate.c
                   __pa_4   0x011744    program     static C:\Documents and Settings\Administrator\My Documents\Alarm Controller\PIC Code\Authenticate.c
                   __pa_5   0x011756    program     static C:\Documents and Settings\Administrator\My Documents\Alarm Controller\PIC Code\Authenticate.c
                   __pa_6   0x011772    program     static C:\Documents and Settings\Administrator\My Documents\Alarm Controller\PIC Code\Authenticate.c
                   __pa_7   0x011796    program     static C:\Documents and Settings\Administrator\My Documents\Alarm Controller\PIC Code\Authenticate.c
                   __pa_8   0x0117a0    program     static C:\Documents and Settings\Administrator\My Documents\Alarm Controller\PIC Code\Authenticate.c
                   __pa_9   0x0117ac    program     static C:\Documents and Settings\Administrator\My Documents\Alarm Controller\PIC Code\Authenticate.c
                  __pa_10   0x0117da    program     static C:\Documents and Settings\Administrator\My Documents\Alarm Controller\PIC Code\Authenticate.c
                  __pa_11   0x0117ec    program     static C:\Documents and Settings\Administrator\My Documents\Alarm Controller\PIC Code\Authenticate.c
                  __pa_12   0x0117fc    program     static C:\Documents and Settings\Administrator\My Documents\Alarm Controller\PIC Code\Authenticate.c
                  __pa_13   0x01180c    program     static C:\Documents and Settings\Administrator\My Documents\Alarm Controller\PIC Code\Authenticate.c
                  __pa_14   0x011816    program     static C:\Documents and Settings\Administrator\My Documents\Alarm Controller\PIC Code\Authenticate.c
                  __pa_15   0x011836    program     static C:\Documents and Settings\Administrator\My Documents\Alarm Controller\PIC Code\Authenticate.c
                  __pa_16   0x011844    program     static C:\Documents and Settings\Administrator\My Documents\Alarm Controller\PIC Code\Authenticate.c
                  __pa_17   0x011860    program     static C:\Documents and Settings\Administrator\My Documents\Alarm Controller\PIC Code\Authenticate.c
                  __pa_18   0x01186a    program     static C:\Documents and Settings\Administrator\My Documents\Alarm Controller\PIC Code\Authenticate.c
                  __pa_19   0x011882    program     static C:\Documents and Settings\Administrator\My Documents\Alarm Controller\PIC Code\Authenticate.c
                  __pa_20   0x011898    program     static C:\Documents and Settings\Administrator\My Documents\Alarm Controller\PIC Code\Authenticate.c
                  __pa_21   0x0118a2    program     static C:\Documents and Settings\Administrator\My Documents\Alarm Controller\PIC Code\Authenticate.c
                  __pa_22   0x0118aa    program     static C:\Documents and Settings\Administrator\My Documents\Alarm Controller\PIC Code\Authenticate.c
                  __pa_23   0x0118bc    program     static C:\Documents and Settings\Administrator\My Documents\Alarm Controller\PIC Code\Authenticate.c
                  __pa_24   0x0118c8    program     static C:\Documents and Settings\Administrator\My Documents\Alarm Controller\PIC Code\Authenticate.c
                  __pa_25   0x0118d2    program     static C:\Documents and Settings\Administrator\My Documents\Alarm Controller\PIC Code\Authenticate.c
                  __pa_26   0x0118dc    program     static C:\Documents and Settings\Administrator\My Documents\Alarm Controller\PIC Code\Authenticate.c
                  __pa_27   0x0118e4    program     static C:\Documents and Settings\Administrator\My Documents\Alarm Controller\PIC Code\Authenticate.c
                  __pa_28   0x0118f2    program     static C:\Documents and Settings\Administrator\My Documents\Alarm Controller\PIC Code\Authenticate.c
                  __pa_29   0x0118fc    program     static C:\Documents and Settings\Administrator\My Documents\Alarm Controller\PIC Code\Authenticate.c
                  __pa_30   0x011904    program     static C:\Documents and Settings\Administrator\My Documents\Alarm Controller\PIC Code\Authenticate.c
                  __pa_31   0x01190c    program     static C:\Documents and Settings\Administrator\My Documents\Alarm Controller\PIC Code\Authenticate.c
                  __pa_32   0x011914    program     static C:\Documents and Settings\Administrator\My Documents\Alarm Controller\PIC Code\Authenticate.c
                  __pa_33   0x01191e    program     static C:\Documents and Settings\Administrator\My Documents\Alarm Controller\PIC Code\Authenticate.c
                  __pa_34   0x011928    program     static C:\Documents and Settings\Administrator\My Documents\Alarm Controller\PIC Code\Authenticate.c
                  __pa_35   0x011930    program     static C:\Documents and Settings\Administrator\My Documents\Alarm Controller\PIC Code\Authenticate.c
                  __pa_36   0x011948    program     static C:\Documents and Settings\Administrator\My Documents\Alarm Controller\PIC Code\Authenticate.c
                  __pa_37   0x011966    program     static C:\Documents and Settings\Administrator\My Documents\Alarm Controller\PIC Code\Authenticate.c
                  __pa_38   0x01196c    program     static C:\Documents and Settings\Administrator\My Documents\Alarm Controller\PIC Code\Authenticate.c
                  __pa_39   0x011972    program     static C:\Documents and Settings\Administrator\My Documents\Alarm Controller\PIC Code\Authenticate.c
                  __pa_40   0x01197e    program     static C:\Documents and Settings\Administrator\My Documents\Alarm Controller\PIC Code\Authenticate.c
                  __pa_41   0x011996    program     static C:\Documents and Settings\Administrator\My Documents\Alarm Controller\PIC Code\Authenticate.c
                  __pa_42   0x0119a6    program     static C:\Documents and Settings\Administrator\My Documents\Alarm Controller\PIC Code\Authenticate.c
                  __pa_43   0x0119b6    program     static C:\Documents and Settings\Administrator\My Documents\Alarm Controller\PIC Code\Authenticate.c
                  __pa_44   0x0119c2    program     static C:\Documents and Settings\Administrator\My Documents\Alarm Controller\PIC Code\Authenticate.c
                  __pa_45   0x0119ca    program     static C:\Documents and Settings\Administrator\My Documents\Alarm Controller\PIC Code\Authenticate.c
                  __pa_46   0x0119dc    program     static C:\Documents and Settings\Administrator\My Documents\Alarm Controller\PIC Code\Authenticate.c
                  __pa_47   0x0119e2    program     static C:\Documents and Settings\Administrator\My Documents\Alarm Controller\PIC Code\Authenticate.c
                  __pa_48   0x0119f0    program     static C:\Documents and Settings\Administrator\My Documents\Alarm Controller\PIC Code\Authenticate.c
                  __pa_49   0x0119fe    program     static C:\Documents and Settings\Administrator\My Documents\Alarm Controller\PIC Code\Authenticate.c
                  __pa_50   0x011a04    program     static C:\Documents and Settings\Administrator\My Documents\Alarm Controller\PIC Code\Authenticate.c
                  __pa_51   0x011a0e    program     static C:\Documents and Settings\Administrator\My Documents\Alarm Controller\PIC Code\Authenticate.c
                  __pa_52   0x011a14    program     static C:\Documents and Settings\Administrator\My Documents\Alarm Controller\PIC Code\Authenticate.c
                  __pa_53   0x011a1c    program     static C:\Documents and Settings\Administrator\My Documents\Alarm Controller\PIC Code\Authenticate.c
                  __pa_54   0x011a28    program     static C:\Documents and Settings\Administrator\My Documents\Alarm Controller\PIC Code\Authenticate.c
                  __pa_55   0x011a30    program     static C:\Documents and Settings\Administrator\My Documents\Alarm Controller\PIC Code\Authenticate.c
                  __pa_56   0x011a3e    program     static C:\Documents and Settings\Administrator\My Documents\Alarm Controller\PIC Code\Authenticate.c
                  __pa_57   0x011a44    program     static C:\Documents and Settings\Administrator\My Documents\Alarm Controller\PIC Code\Authenticate.c
                  __pa_58   0x011a4c    program     static C:\Documents and Settings\Administrator\My Documents\Alarm Controller\PIC Code\Authenticate.c
                  __pa_59   0x011a56    program     static C:\Documents and Settings\Administrator\My Documents\Alarm Controller\PIC Code\Authenticate.c
                  __pa_60   0x011a5c    program     static C:\Documents and Settings\Administrator\My Documents\Alarm Controller\PIC Code\Authenticate.c
                  __pa_61   0x011a64    program     static C:\Documents and Settings\Administrator\My Documents\Alarm Controller\PIC Code\Authenticate.c
                  __pa_62   0x011a72    program     static C:\Documents and Settings\Administrator\My Documents\Alarm Controller\PIC Code\Authenticate.c
      GenerateRandomDWORD   0x011a7e    program     extern C:\Documents and Settings\Administrator\My Documents\Alarm Controller\Microchip\TCPIP Stack\Helpers.c
              __tmplbl_32   0x011ad2    program     static                          
        ___while_lbl00001   0x011ae4    program     static                          
        ___while_lbl00003   0x011aec    program     static                          
        ___while_lbl00004   0x011af0    program     static                          
              __tmplbl_33   0x011b62    program     static                          
              __tmplbl_34   0x011ba4    program     static                          
              __tmplbl_35   0x011c1c    program     static                          
           ___if_lbl00005   0x011c76    program     static                          
           ___if_lbl00006   0x011c84    program     static                          
           ___if_lbl00007   0x011d00    program     static                          
           ___if_lbl00008   0x011d06    program     static                          
        ___while_lbl00002   0x011d08    program     static                          
       ___return_lbl00000   0x011d2e    program     static                          
        StringToIPAddress   0x011d36    program     extern C:\Documents and Settings\Administrator\My Documents\Alarm Controller\Microchip\TCPIP Stack\Helpers.c
     ROMStringToIPAddress   0x011e06    program     extern C:\Documents and Settings\Administrator\My Documents\Alarm Controller\Microchip\TCPIP Stack\Helpers.c
             Base64Decode   0x011ef4    program     extern C:\Documents and Settings\Administrator\My Documents\Alarm Controller\Microchip\TCPIP Stack\Helpers.c
             Base64Encode   0x012016    program     extern C:\Documents and Settings\Administrator\My Documents\Alarm Controller\Microchip\TCPIP Stack\Helpers.c
                    uitoa   0x01211a    program     extern C:\Documents and Settings\Administrator\My Documents\Alarm Controller\Microchip\TCPIP Stack\Helpers.c
                  hexatob   0x0121bc    program     extern C:\Documents and Settings\Administrator\My Documents\Alarm Controller\Microchip\TCPIP Stack\Helpers.c
             btohexa_high   0x0121f8    program     extern C:\Documents and Settings\Administrator\My Documents\Alarm Controller\Microchip\TCPIP Stack\Helpers.c
              btohexa_low   0x012216    program     extern C:\Documents and Settings\Administrator\My Documents\Alarm Controller\Microchip\TCPIP Stack\Helpers.c
           stricmppgm2ram   0x012232    program     extern C:\Documents and Settings\Administrator\My Documents\Alarm Controller\Microchip\TCPIP Stack\Helpers.c
                    swaps   0x0122be    program     extern C:\Documents and Settings\Administrator\My Documents\Alarm Controller\Microchip\TCPIP Stack\Helpers.c
                    swapl   0x0122e8    program     extern C:\Documents and Settings\Administrator\My Documents\Alarm Controller\Microchip\TCPIP Stack\Helpers.c
           CalcIPChecksum   0x012316    program     extern C:\Documents and Settings\Administrator\My Documents\Alarm Controller\Microchip\TCPIP Stack\Helpers.c
          leftRotateDWORD   0x0123da    program     extern C:\Documents and Settings\Administrator\My Documents\Alarm Controller\Microchip\TCPIP Stack\Helpers.c
          ___for_lbl00143   0x0123fa    program     static                          
          ___for_lbl00141   0x012416    program     static                          
          ___for_lbl00142   0x01241c    program     static                          
          ___for_lbl00146   0x01241c    program     static                          
          ___for_lbl00144   0x012430    program     static                          
          ___for_lbl00145   0x012434    program     static                          
       ___return_lbl00140   0x012446    program     static                          
        FormatNetBIOSName   0x01244e    program     extern C:\Documents and Settings\Administrator\My Documents\Alarm Controller\Microchip\TCPIP Stack\Helpers.c
                   __pa_0   0x012496    program     static C:\Documents and Settings\Administrator\My Documents\Alarm Controller\Microchip\TCPIP Stack\Helpers.c
                   __pa_1   0x0124a0    program     static C:\Documents and Settings\Administrator\My Documents\Alarm Controller\Microchip\TCPIP Stack\Helpers.c
                   __pa_2   0x0124b4    program     static C:\Documents and Settings\Administrator\My Documents\Alarm Controller\Microchip\TCPIP Stack\Helpers.c
                   __pa_3   0x0124c4    program     static C:\Documents and Settings\Administrator\My Documents\Alarm Controller\Microchip\TCPIP Stack\Helpers.c
                   __pa_4   0x0124e4    program     static C:\Documents and Settings\Administrator\My Documents\Alarm Controller\Microchip\TCPIP Stack\Helpers.c
                   __pa_5   0x0124f6    program     static C:\Documents and Settings\Administrator\My Documents\Alarm Controller\Microchip\TCPIP Stack\Helpers.c
                   __pa_6   0x012508    program     static C:\Documents and Settings\Administrator\My Documents\Alarm Controller\Microchip\TCPIP Stack\Helpers.c
                   __pa_7   0x01250e    program     static C:\Documents and Settings\Administrator\My Documents\Alarm Controller\Microchip\TCPIP Stack\Helpers.c
                   __pa_8   0x012528    program     static C:\Documents and Settings\Administrator\My Documents\Alarm Controller\Microchip\TCPIP Stack\Helpers.c
                   __pa_9   0x01253a    program     static C:\Documents and Settings\Administrator\My Documents\Alarm Controller\Microchip\TCPIP Stack\Helpers.c
                  __pa_10   0x01254c    program     static C:\Documents and Settings\Administrator\My Documents\Alarm Controller\Microchip\TCPIP Stack\Helpers.c
                  __pa_11   0x012558    program     static C:\Documents and Settings\Administrator\My Documents\Alarm Controller\Microchip\TCPIP Stack\Helpers.c
                  __pa_12   0x012560    program     static C:\Documents and Settings\Administrator\My Documents\Alarm Controller\Microchip\TCPIP Stack\Helpers.c
                  __pa_13   0x01256e    program     static C:\Documents and Settings\Administrator\My Documents\Alarm Controller\Microchip\TCPIP Stack\Helpers.c
                  __pa_14   0x012578    program     static C:\Documents and Settings\Administrator\My Documents\Alarm Controller\Microchip\TCPIP Stack\Helpers.c
                  __pa_15   0x012582    program     static C:\Documents and Settings\Administrator\My Documents\Alarm Controller\Microchip\TCPIP Stack\Helpers.c
           EncKeySchedule   0x01258c    program     extern C:\Documents and Settings\Administrator\My Documents\Alarm Controller\PIC Code\AES.c
         AESCalcDecodeKey   0x0125e2    program     extern C:\Documents and Settings\Administrator\My Documents\Alarm Controller\PIC Code\AES.c
                AESDecode   0x01260a    program     extern C:\Documents and Settings\Administrator\My Documents\Alarm Controller\PIC Code\AES.c
          ___for_lbl00010   0x012628    program     static                          
          ___for_lbl00008   0x012650    program     static                          
          ___for_lbl00009   0x012654    program     static                          
           ___do_lbl00023   0x012656    program     static                          
          ___for_lbl00015   0x012662    program     static                          
          ___for_lbl00013   0x012dec    program     static                          
           ___if_lbl00016   0x012df2    program     static                          
          ___for_lbl00014   0x012df2    program     static                          
          ___for_lbl00019   0x012df4    program     static                          
          ___for_lbl00017   0x012e5c    program     static                          
          ___for_lbl00018   0x012e60    program     static                          
          ___for_lbl00022   0x012e7a    program     static                          
          ___for_lbl00020   0x012ea2    program     static                          
          ___for_lbl00021   0x012ea6    program     static                          
           ___do_lbl00011   0x012eaa    program     static                          
           ___do_lbl00012   0x012eb4    program     static                          
       ___return_lbl00007   0x012eb4    program     static                          
           DecodeShiftRow   0x012ebc    program     extern C:\Documents and Settings\Administrator\My Documents\Alarm Controller\PIC Code\AES.c
           DecKeySchedule   0x012f2a    program     extern C:\Documents and Settings\Administrator\My Documents\Alarm Controller\PIC Code\AES.c
                   __pa_0   0x012f5e    program     static C:\Documents and Settings\Administrator\My Documents\Alarm Controller\PIC Code\AES.c
                   __pa_1   0x012f6a    program     static C:\Documents and Settings\Administrator\My Documents\Alarm Controller\PIC Code\AES.c
                   __pa_2   0x012f94    program     static C:\Documents and Settings\Administrator\My Documents\Alarm Controller\PIC Code\AES.c
                   __pa_3   0x012f9c    program     static C:\Documents and Settings\Administrator\My Documents\Alarm Controller\PIC Code\AES.c
                   __pa_4   0x012fa8    program     static C:\Documents and Settings\Administrator\My Documents\Alarm Controller\PIC Code\AES.c
                   __pa_5   0x012fb2    program     static C:\Documents and Settings\Administrator\My Documents\Alarm Controller\PIC Code\AES.c
                   __pa_6   0x012fbe    program     static C:\Documents and Settings\Administrator\My Documents\Alarm Controller\PIC Code\AES.c
               __tmplbl_1   0x012fc6    program     static                          
               __tmplbl_0   0x012fc6    program     static                          
                   __pa_7   0x012fc6    program     static C:\Documents and Settings\Administrator\My Documents\Alarm Controller\PIC Code\AES.c
                   __pa_8   0x012fce    program     static C:\Documents and Settings\Administrator\My Documents\Alarm Controller\PIC Code\AES.c
                   __pa_9   0x012fd6    program     static C:\Documents and Settings\Administrator\My Documents\Alarm Controller\PIC Code\AES.c
                  __pa_10   0x012fde    program     static C:\Documents and Settings\Administrator\My Documents\Alarm Controller\PIC Code\AES.c
                  __pa_11   0x012fe4    program     static C:\Documents and Settings\Administrator\My Documents\Alarm Controller\PIC Code\AES.c
                  __pa_12   0x012fec    program     static C:\Documents and Settings\Administrator\My Documents\Alarm Controller\PIC Code\AES.c
                  __pa_13   0x012ff2    program     static C:\Documents and Settings\Administrator\My Documents\Alarm Controller\PIC Code\AES.c
                  __pa_14   0x012ffa    program     static C:\Documents and Settings\Administrator\My Documents\Alarm Controller\PIC Code\AES.c
                  __pa_15   0x013008    program     static C:\Documents and Settings\Administrator\My Documents\Alarm Controller\PIC Code\AES.c
                  __pa_16   0x01300e    program     static C:\Documents and Settings\Administrator\My Documents\Alarm Controller\PIC Code\AES.c
                  __pa_17   0x013016    program     static C:\Documents and Settings\Administrator\My Documents\Alarm Controller\PIC Code\AES.c
                  __pa_18   0x013040    program     static C:\Documents and Settings\Administrator\My Documents\Alarm Controller\PIC Code\AES.c
                  __pa_19   0x013064    program     static C:\Documents and Settings\Administrator\My Documents\Alarm Controller\PIC Code\AES.c
                  __pa_20   0x01307e    program     static C:\Documents and Settings\Administrator\My Documents\Alarm Controller\PIC Code\AES.c
     HTTPPrint_rebootaddr   0x013096    program     extern C:\Documents and Settings\Administrator\My Documents\Alarm Controller\PIC Code\HTTPDynVariables.c
HTTPPrint_config_hostname   0x0130a8    program     extern C:\Documents and Settings\Administrator\My Documents\Alarm Controller\PIC Code\HTTPDynVariables.c
         HTTPPrint_reboot   0x0130ba    program     extern C:\Documents and Settings\Administrator\My Documents\Alarm Controller\PIC Code\HTTPDynVariables.c
       ___return_lbl00002   0x0130bc    program     static                          
              HTTPPrintIP   0x0130be    program     static C:\Documents and Settings\Administrator\My Documents\Alarm Controller\PIC Code\HTTPDynVariables.c
      HTTPPrint_config_ip   0x013112    program     extern C:\Documents and Settings\Administrator\My Documents\Alarm Controller\PIC Code\HTTPDynVariables.c
      HTTPPrint_config_gw   0x013124    program     extern C:\Documents and Settings\Administrator\My Documents\Alarm Controller\PIC Code\HTTPDynVariables.c
  HTTPPrint_config_subnet   0x013136    program     extern C:\Documents and Settings\Administrator\My Documents\Alarm Controller\PIC Code\HTTPDynVariables.c
    HTTPPrint_config_dns1   0x013148    program     extern C:\Documents and Settings\Administrator\My Documents\Alarm Controller\PIC Code\HTTPDynVariables.c
    HTTPPrint_config_dns2   0x01315a    program     extern C:\Documents and Settings\Administrator\My Documents\Alarm Controller\PIC Code\HTTPDynVariables.c
     HTTPPrint_config_mac   0x01316c    program     extern C:\Documents and Settings\Administrator\My Documents\Alarm Controller\PIC Code\HTTPDynVariables.c
     HTTPPrint_AlarmState   0x0131c2    program     extern C:\Documents and Settings\Administrator\My Documents\Alarm Controller\PIC Code\HTTPDynVariables.c
       HTTPPrint_TypeList   0x01320c    program     extern C:\Documents and Settings\Administrator\My Documents\Alarm Controller\PIC Code\HTTPDynVariables.c
  HTTPPrint_AlarmTypeList   0x013266    program     extern C:\Documents and Settings\Administrator\My Documents\Alarm Controller\PIC Code\HTTPDynVariables.c
   HTTPPrint_InstanceName   0x0132ac    program     extern C:\Documents and Settings\Administrator\My Documents\Alarm Controller\PIC Code\HTTPDynVariables.c
  HTTPPrint_HeartBeatTime   0x0132bc    program     extern C:\Documents and Settings\Administrator\My Documents\Alarm Controller\PIC Code\HTTPDynVariables.c
      HTTPPrint_ExitDelay   0x0132ca    program     extern C:\Documents and Settings\Administrator\My Documents\Alarm Controller\PIC Code\HTTPDynVariables.c
     HTTPPrint_EntryDelay   0x0132d8    program     extern C:\Documents and Settings\Administrator\My Documents\Alarm Controller\PIC Code\HTTPDynVariables.c
HTTPPrint_AlarmingDuration   0x0132e6    program     extern C:\Documents and Settings\Administrator\My Documents\Alarm Controller\PIC Code\HTTPDynVariables.c
HTTPPrint_Alarming24Duration   0x0132f4    program     extern C:\Documents and Settings\Administrator\My Documents\Alarm Controller\PIC Code\HTTPDynVariables.c
  HTTPPrint_SirenDelay24h   0x013302    program     extern C:\Documents and Settings\Administrator\My Documents\Alarm Controller\PIC Code\HTTPDynVariables.c
     HTTPPrint_SirenDelay   0x013310    program     extern C:\Documents and Settings\Administrator\My Documents\Alarm Controller\PIC Code\HTTPDynVariables.c
      HTTPPrint_ZoneCount   0x01331e    program     extern C:\Documents and Settings\Administrator\My Documents\Alarm Controller\PIC Code\HTTPDynVariables.c
  HTTPPrint_ZonesBypassed   0x013326    program     extern C:\Documents and Settings\Administrator\My Documents\Alarm Controller\PIC Code\HTTPDynVariables.c
  HTTPPrint_ZonesIsolated   0x013352    program     extern C:\Documents and Settings\Administrator\My Documents\Alarm Controller\PIC Code\HTTPDynVariables.c
 HTTPPrint_ZonesTriggered   0x01337e    program     extern C:\Documents and Settings\Administrator\My Documents\Alarm Controller\PIC Code\HTTPDynVariables.c
     HTTPPrint_ZonesArmed   0x0133aa    program     extern C:\Documents and Settings\Administrator\My Documents\Alarm Controller\PIC Code\HTTPDynVariables.c
   HTTPPrint_ZonesAlarmed   0x0133d6    program     extern C:\Documents and Settings\Administrator\My Documents\Alarm Controller\PIC Code\HTTPDynVariables.c
     HTTPPrint_ZonesEntry   0x013402    program     extern C:\Documents and Settings\Administrator\My Documents\Alarm Controller\PIC Code\HTTPDynVariables.c
        HTTPPrint_ZonesNO   0x01342e    program     extern C:\Documents and Settings\Administrator\My Documents\Alarm Controller\PIC Code\HTTPDynVariables.c
      HTTPPrint_ZonesType   0x01345a    program     extern C:\Documents and Settings\Administrator\My Documents\Alarm Controller\PIC Code\HTTPDynVariables.c
 HTTPPrint_ZonesAlarmType   0x013488    program     extern C:\Documents and Settings\Administrator\My Documents\Alarm Controller\PIC Code\HTTPDynVariables.c
  HTTPPrint_ZonesAreaList   0x0134bc    program     extern C:\Documents and Settings\Administrator\My Documents\Alarm Controller\PIC Code\HTTPDynVariables.c
       HTTPPrint_ZoneDesc   0x0134ec    program     extern C:\Documents and Settings\Administrator\My Documents\Alarm Controller\PIC Code\HTTPDynVariables.c
  HTTPPrint_ZonesTampered   0x013520    program     extern C:\Documents and Settings\Administrator\My Documents\Alarm Controller\PIC Code\HTTPDynVariables.c
      HTTPPrint_AreaCount   0x013550    program     extern C:\Documents and Settings\Administrator\My Documents\Alarm Controller\PIC Code\HTTPDynVariables.c
  HTTPPrint_AreasBypassed   0x013558    program     extern C:\Documents and Settings\Administrator\My Documents\Alarm Controller\PIC Code\HTTPDynVariables.c
  HTTPPrint_AreasIsolated   0x013584    program     extern C:\Documents and Settings\Administrator\My Documents\Alarm Controller\PIC Code\HTTPDynVariables.c
 HTTPPrint_AreasTriggered   0x0135b0    program     extern C:\Documents and Settings\Administrator\My Documents\Alarm Controller\PIC Code\HTTPDynVariables.c
     HTTPPrint_AreasArmed   0x0135dc    program     extern C:\Documents and Settings\Administrator\My Documents\Alarm Controller\PIC Code\HTTPDynVariables.c
   HTTPPrint_AreasAlarmed   0x013608    program     extern C:\Documents and Settings\Administrator\My Documents\Alarm Controller\PIC Code\HTTPDynVariables.c
 HTTPPrint_AreasAlarmType   0x013634    program     extern C:\Documents and Settings\Administrator\My Documents\Alarm Controller\PIC Code\HTTPDynVariables.c
       HTTPPrint_AreaDesc   0x01366a    program     extern C:\Documents and Settings\Administrator\My Documents\Alarm Controller\PIC Code\HTTPDynVariables.c
   HTTPPrint_AreaTampered   0x013698    program     extern C:\Documents and Settings\Administrator\My Documents\Alarm Controller\PIC Code\HTTPDynVariables.c
                   __pa_0   0x0136c4    program     static C:\Documents and Settings\Administrator\My Documents\Alarm Controller\PIC Code\HTTPDynVariables.c
                   __pa_1   0x0136e2    program     static C:\Documents and Settings\Administrator\My Documents\Alarm Controller\PIC Code\HTTPDynVariables.c
                   __pa_2   0x0136f6    program     static C:\Documents and Settings\Administrator\My Documents\Alarm Controller\PIC Code\HTTPDynVariables.c
                   __pa_3   0x013706    program     static C:\Documents and Settings\Administrator\My Documents\Alarm Controller\PIC Code\HTTPDynVariables.c
                   __pa_4   0x013716    program     static C:\Documents and Settings\Administrator\My Documents\Alarm Controller\PIC Code\HTTPDynVariables.c
                   __pa_5   0x01371c    program     static C:\Documents and Settings\Administrator\My Documents\Alarm Controller\PIC Code\HTTPDynVariables.c
                   __pa_6   0x013720    program     static C:\Documents and Settings\Administrator\My Documents\Alarm Controller\PIC Code\HTTPDynVariables.c
                   __pa_7   0x013726    program     static C:\Documents and Settings\Administrator\My Documents\Alarm Controller\PIC Code\HTTPDynVariables.c
                   __pa_8   0x013730    program     static C:\Documents and Settings\Administrator\My Documents\Alarm Controller\PIC Code\HTTPDynVariables.c
                   __pa_9   0x01373e    program     static C:\Documents and Settings\Administrator\My Documents\Alarm Controller\PIC Code\HTTPDynVariables.c
                  __pa_10   0x01375c    program     static C:\Documents and Settings\Administrator\My Documents\Alarm Controller\PIC Code\HTTPDynVariables.c
                  __pa_11   0x013766    program     static C:\Documents and Settings\Administrator\My Documents\Alarm Controller\PIC Code\HTTPDynVariables.c
                  __pa_12   0x013770    program     static C:\Documents and Settings\Administrator\My Documents\Alarm Controller\PIC Code\HTTPDynVariables.c
                  __pa_13   0x013778    program     static C:\Documents and Settings\Administrator\My Documents\Alarm Controller\PIC Code\HTTPDynVariables.c
                  __pa_14   0x013782    program     static C:\Documents and Settings\Administrator\My Documents\Alarm Controller\PIC Code\HTTPDynVariables.c
                  __pa_15   0x013788    program     static C:\Documents and Settings\Administrator\My Documents\Alarm Controller\PIC Code\HTTPDynVariables.c
                  __pa_16   0x0137ae    program     static C:\Documents and Settings\Administrator\My Documents\Alarm Controller\PIC Code\HTTPDynVariables.c
                  __pa_17   0x0137b8    program     static C:\Documents and Settings\Administrator\My Documents\Alarm Controller\PIC Code\HTTPDynVariables.c
                  __pa_18   0x0137c0    program     static C:\Documents and Settings\Administrator\My Documents\Alarm Controller\PIC Code\HTTPDynVariables.c
                  __pa_19   0x0137de    program     static C:\Documents and Settings\Administrator\My Documents\Alarm Controller\PIC Code\HTTPDynVariables.c
                  __pa_20   0x0137fc    program     static C:\Documents and Settings\Administrator\My Documents\Alarm Controller\PIC Code\HTTPDynVariables.c
                  __pa_21   0x013806    program     static C:\Documents and Settings\Administrator\My Documents\Alarm Controller\PIC Code\HTTPDynVariables.c
                  __pa_22   0x01380c    program     static C:\Documents and Settings\Administrator\My Documents\Alarm Controller\PIC Code\HTTPDynVariables.c
                  __pa_23   0x013816    program     static C:\Documents and Settings\Administrator\My Documents\Alarm Controller\PIC Code\HTTPDynVariables.c
                  __pa_24   0x01382a    program     static C:\Documents and Settings\Administrator\My Documents\Alarm Controller\PIC Code\HTTPDynVariables.c
                  __pa_25   0x01383c    program     static C:\Documents and Settings\Administrator\My Documents\Alarm Controller\PIC Code\HTTPDynVariables.c
                  __pa_26   0x01384e    program     static C:\Documents and Settings\Administrator\My Documents\Alarm Controller\PIC Code\HTTPDynVariables.c
                  __pa_27   0x01385a    program     static C:\Documents and Settings\Administrator\My Documents\Alarm Controller\PIC Code\HTTPDynVariables.c
                  __pa_28   0x013866    program     static C:\Documents and Settings\Administrator\My Documents\Alarm Controller\PIC Code\HTTPDynVariables.c
                  __pa_29   0x013870    program     static C:\Documents and Settings\Administrator\My Documents\Alarm Controller\PIC Code\HTTPDynVariables.c
                  __pa_30   0x013878    program     static C:\Documents and Settings\Administrator\My Documents\Alarm Controller\PIC Code\HTTPDynVariables.c
                  __pa_31   0x013888    program     static C:\Documents and Settings\Administrator\My Documents\Alarm Controller\PIC Code\HTTPDynVariables.c
                  __pa_32   0x013890    program     static C:\Documents and Settings\Administrator\My Documents\Alarm Controller\PIC Code\HTTPDynVariables.c
                  __pa_33   0x01389e    program     static C:\Documents and Settings\Administrator\My Documents\Alarm Controller\PIC Code\HTTPDynVariables.c
                  __pa_34   0x0138ac    program     static C:\Documents and Settings\Administrator\My Documents\Alarm Controller\PIC Code\HTTPDynVariables.c
                  __pa_35   0x0138b6    program     static C:\Documents and Settings\Administrator\My Documents\Alarm Controller\PIC Code\HTTPDynVariables.c
                  __pa_36   0x0138c6    program     static C:\Documents and Settings\Administrator\My Documents\Alarm Controller\PIC Code\HTTPDynVariables.c
                  __pa_37   0x0138d2    program     static C:\Documents and Settings\Administrator\My Documents\Alarm Controller\PIC Code\HTTPDynVariables.c
                  __pa_38   0x0138d8    program     static C:\Documents and Settings\Administrator\My Documents\Alarm Controller\PIC Code\HTTPDynVariables.c
                  __pa_39   0x0138de    program     static C:\Documents and Settings\Administrator\My Documents\Alarm Controller\PIC Code\HTTPDynVariables.c
                  __pa_40   0x0138f0    program     static C:\Documents and Settings\Administrator\My Documents\Alarm Controller\PIC Code\HTTPDynVariables.c
                  __pa_41   0x013902    program     static C:\Documents and Settings\Administrator\My Documents\Alarm Controller\PIC Code\HTTPDynVariables.c
                  __pa_42   0x013912    program     static C:\Documents and Settings\Administrator\My Documents\Alarm Controller\PIC Code\HTTPDynVariables.c
                  __pa_43   0x013938    program     static C:\Documents and Settings\Administrator\My Documents\Alarm Controller\PIC Code\HTTPDynVariables.c
                  __pa_44   0x01394e    program     static C:\Documents and Settings\Administrator\My Documents\Alarm Controller\PIC Code\HTTPDynVariables.c
                  __pa_45   0x013956    program     static C:\Documents and Settings\Administrator\My Documents\Alarm Controller\PIC Code\HTTPDynVariables.c
                  __pa_46   0x013964    program     static C:\Documents and Settings\Administrator\My Documents\Alarm Controller\PIC Code\HTTPDynVariables.c
                  __pa_47   0x013972    program     static C:\Documents and Settings\Administrator\My Documents\Alarm Controller\PIC Code\HTTPDynVariables.c
                  __pa_48   0x01397c    program     static C:\Documents and Settings\Administrator\My Documents\Alarm Controller\PIC Code\HTTPDynVariables.c
                  __pa_49   0x013986    program     static C:\Documents and Settings\Administrator\My Documents\Alarm Controller\PIC Code\HTTPDynVariables.c
                  __pa_50   0x01398c    program     static C:\Documents and Settings\Administrator\My Documents\Alarm Controller\PIC Code\HTTPDynVariables.c
                  __pa_51   0x013996    program     static C:\Documents and Settings\Administrator\My Documents\Alarm Controller\PIC Code\HTTPDynVariables.c
                  __pa_52   0x01399c    program     static C:\Documents and Settings\Administrator\My Documents\Alarm Controller\PIC Code\HTTPDynVariables.c
                  __pa_53   0x0139ac    program     static C:\Documents and Settings\Administrator\My Documents\Alarm Controller\PIC Code\HTTPDynVariables.c
                  __pa_54   0x0139b2    program     static C:\Documents and Settings\Administrator\My Documents\Alarm Controller\PIC Code\HTTPDynVariables.c
                  __pa_55   0x0139c2    program     static C:\Documents and Settings\Administrator\My Documents\Alarm Controller\PIC Code\HTTPDynVariables.c
                  __pa_56   0x0139d2    program     static C:\Documents and Settings\Administrator\My Documents\Alarm Controller\PIC Code\HTTPDynVariables.c
                  __pa_57   0x0139d8    program     static C:\Documents and Settings\Administrator\My Documents\Alarm Controller\PIC Code\HTTPDynVariables.c
                  __pa_58   0x0139e0    program     static C:\Documents and Settings\Administrator\My Documents\Alarm Controller\PIC Code\HTTPDynVariables.c
                  __pa_59   0x0139e8    program     static C:\Documents and Settings\Administrator\My Documents\Alarm Controller\PIC Code\HTTPDynVariables.c
                  __pa_60   0x0139f2    program     static C:\Documents and Settings\Administrator\My Documents\Alarm Controller\PIC Code\HTTPDynVariables.c
                  __pa_61   0x0139fa    program     static C:\Documents and Settings\Administrator\My Documents\Alarm Controller\PIC Code\HTTPDynVariables.c
                  __pa_62   0x013a04    program     static C:\Documents and Settings\Administrator\My Documents\Alarm Controller\PIC Code\HTTPDynVariables.c
                  __pa_63   0x013a0c    program     static C:\Documents and Settings\Administrator\My Documents\Alarm Controller\PIC Code\HTTPDynVariables.c
                  __pa_64   0x013a18    program     static C:\Documents and Settings\Administrator\My Documents\Alarm Controller\PIC Code\HTTPDynVariables.c
               __tmplbl_7   0x013a20    program     static                          
                  __pa_65   0x013a20    program     static C:\Documents and Settings\Administrator\My Documents\Alarm Controller\PIC Code\HTTPDynVariables.c
               __tmplbl_6   0x013a20    program     static                          
                  __pa_66   0x013a24    program     static C:\Documents and Settings\Administrator\My Documents\Alarm Controller\PIC Code\HTTPDynVariables.c
                  __pa_67   0x013a2c    program     static C:\Documents and Settings\Administrator\My Documents\Alarm Controller\PIC Code\HTTPDynVariables.c
                  __pa_68   0x013a34    program     static C:\Documents and Settings\Administrator\My Documents\Alarm Controller\PIC Code\HTTPDynVariables.c
                  MACInit   0x013a3a    program     extern C:\Documents and Settings\Administrator\My Documents\Alarm Controller\Microchip\TCPIP Stack\ETH97J60.c
        ___while_lbl00001   0x013a4e    program     static                          
        ___while_lbl00002   0x013a54    program     static                          
       ___return_lbl00000   0x013b28    program     static                          
              MACIsLinked   0x013b30    program     extern C:\Documents and Settings\Administrator\My Documents\Alarm Controller\Microchip\TCPIP Stack\ETH97J60.c
             MACIsTxReady   0x013b42    program     extern C:\Documents and Settings\Administrator\My Documents\Alarm Controller\Microchip\TCPIP Stack\ETH97J60.c
             MACDiscardRx   0x013b8a    program     extern C:\Documents and Settings\Administrator\My Documents\Alarm Controller\Microchip\TCPIP Stack\ETH97J60.c
         MACGetFreeRxSize   0x013bca    program     extern C:\Documents and Settings\Administrator\My Documents\Alarm Controller\Microchip\TCPIP Stack\ETH97J60.c
             MACGetHeader   0x013c64    program     extern C:\Documents and Settings\Administrator\My Documents\Alarm Controller\Microchip\TCPIP Stack\ETH97J60.c
           ___if_lbl00019   0x013c7a    program     static                          
           ___if_lbl00020   0x013c86    program     static                          
               __tmplbl_8   0x013ce2    program     static                          
               __tmplbl_7   0x013ce4    program     static                          
               __tmplbl_6   0x013cf4    program     static                          
               __tmplbl_5   0x013d0a    program     static                          
               __tmplbl_4   0x013d1e    program     static                          
               __tmplbl_3   0x013d28    program     static                          
               __tmplbl_2   0x013d3c    program     static                          
           ___if_lbl00026   0x013d3e    program     static                          
              __tmplbl_10   0x013d84    program     static                          
              __tmplbl_11   0x013d88    program     static                          
               __tmplbl_9   0x013d8e    program     static                          
           ___if_lbl00029   0x013d9a    program     static                          
       ___return_lbl00018   0x013da2    program     static                          
             MACPutHeader   0x013daa    program     extern C:\Documents and Settings\Administrator\My Documents\Alarm Controller\Microchip\TCPIP Stack\ETH97J60.c
                 MACFlush   0x013e04    program     extern C:\Documents and Settings\Administrator\My Documents\Alarm Controller\Microchip\TCPIP Stack\ETH97J60.c
        MACSetReadPtrInRx   0x013e32    program     extern C:\Documents and Settings\Administrator\My Documents\Alarm Controller\Microchip\TCPIP Stack\ETH97J60.c
           MACSetWritePtr   0x013e5e    program     extern C:\Documents and Settings\Administrator\My Documents\Alarm Controller\Microchip\TCPIP Stack\ETH97J60.c
            MACSetReadPtr   0x013e74    program     extern C:\Documents and Settings\Administrator\My Documents\Alarm Controller\Microchip\TCPIP Stack\ETH97J60.c
        MACCalcRxChecksum   0x013e88    program     extern C:\Documents and Settings\Administrator\My Documents\Alarm Controller\Microchip\TCPIP Stack\ETH97J60.c
     CalcIPBufferChecksum   0x013ee4    program     extern C:\Documents and Settings\Administrator\My Documents\Alarm Controller\Microchip\TCPIP Stack\ETH97J60.c
          MACMemCopyAsync   0x014012    program     extern C:\Documents and Settings\Administrator\My Documents\Alarm Controller\Microchip\TCPIP Stack\ETH97J60.c
         MACIsMemCopyDone   0x014132    program     extern C:\Documents and Settings\Administrator\My Documents\Alarm Controller\Microchip\TCPIP Stack\ETH97J60.c
                   MACGet   0x01413e    program     extern C:\Documents and Settings\Administrator\My Documents\Alarm Controller\Microchip\TCPIP Stack\ETH97J60.c
              MACGetArray   0x014142    program     extern C:\Documents and Settings\Administrator\My Documents\Alarm Controller\Microchip\TCPIP Stack\ETH97J60.c
                   MACPut   0x014188    program     extern C:\Documents and Settings\Administrator\My Documents\Alarm Controller\Microchip\TCPIP Stack\ETH97J60.c
       ___return_lbl00078   0x01419a    program     static                          
              MACPutArray   0x0141a2    program     extern C:\Documents and Settings\Administrator\My Documents\Alarm Controller\Microchip\TCPIP Stack\ETH97J60.c
        ___while_lbl00080   0x0141ac    program     static                          
       ___return_lbl00079   0x0141da    program     static                          
        ___while_lbl00081   0x0141da    program     static                          
           MACPutROMArray   0x0141e2    program     extern C:\Documents and Settings\Administrator\My Documents\Alarm Controller\Microchip\TCPIP Stack\ETH97J60.c
        ___while_lbl00083   0x0141ec    program     static                          
        ___while_lbl00084   0x01422e    program     static                          
       ___return_lbl00082   0x01422e    program     static                          
               ReadPHYReg   0x014236    program     extern C:\Documents and Settings\Administrator\My Documents\Alarm Controller\Microchip\TCPIP Stack\ETH97J60.c
        ___while_lbl00086   0x014250    program     static                          
        ___while_lbl00087   0x014256    program     static                          
       ___return_lbl00085   0x014274    program     static                          
              WritePHYReg   0x01427c    program     extern C:\Documents and Settings\Administrator\My Documents\Alarm Controller\Microchip\TCPIP Stack\ETH97J60.c
        ___while_lbl00089   0x0142ac    program     static                          
        ___while_lbl00090   0x0142b2    program     static                          
       ___return_lbl00088   0x0142b2    program     static                          
             MACPowerDown   0x0142ba    program     extern C:\Documents and Settings\Administrator\My Documents\Alarm Controller\Microchip\TCPIP Stack\ETH97J60.c
               MACPowerUp   0x0142cc    program     extern C:\Documents and Settings\Administrator\My Documents\Alarm Controller\Microchip\TCPIP Stack\ETH97J60.c
                   __pa_0   0x0142da    program     static C:\Documents and Settings\Administrator\My Documents\Alarm Controller\Microchip\TCPIP Stack\ETH97J60.c
                   __pa_1   0x0142f2    program     static C:\Documents and Settings\Administrator\My Documents\Alarm Controller\Microchip\TCPIP Stack\ETH97J60.c
                   __pa_2   0x0142fc    program     static C:\Documents and Settings\Administrator\My Documents\Alarm Controller\Microchip\TCPIP Stack\ETH97J60.c
                   __pa_3   0x01431c    program     static C:\Documents and Settings\Administrator\My Documents\Alarm Controller\Microchip\TCPIP Stack\ETH97J60.c
                   __pa_4   0x014334    program     static C:\Documents and Settings\Administrator\My Documents\Alarm Controller\Microchip\TCPIP Stack\ETH97J60.c
                   __pa_5   0x014344    program     static C:\Documents and Settings\Administrator\My Documents\Alarm Controller\Microchip\TCPIP Stack\ETH97J60.c
                   __pa_6   0x01434e    program     static C:\Documents and Settings\Administrator\My Documents\Alarm Controller\Microchip\TCPIP Stack\ETH97J60.c
                   __pa_7   0x01435a    program     static C:\Documents and Settings\Administrator\My Documents\Alarm Controller\Microchip\TCPIP Stack\ETH97J60.c
                   __pa_8   0x014368    program     static C:\Documents and Settings\Administrator\My Documents\Alarm Controller\Microchip\TCPIP Stack\ETH97J60.c
                   __pa_9   0x014370    program     static C:\Documents and Settings\Administrator\My Documents\Alarm Controller\Microchip\TCPIP Stack\ETH97J60.c
                  __pa_10   0x01437e    program     static C:\Documents and Settings\Administrator\My Documents\Alarm Controller\Microchip\TCPIP Stack\ETH97J60.c
                  __pa_11   0x014386    program     static C:\Documents and Settings\Administrator\My Documents\Alarm Controller\Microchip\TCPIP Stack\ETH97J60.c
                  __pa_12   0x01438e    program     static C:\Documents and Settings\Administrator\My Documents\Alarm Controller\Microchip\TCPIP Stack\ETH97J60.c
                  UDPInit   0x014398    program     extern C:\Documents and Settings\Administrator\My Documents\Alarm Controller\Microchip\TCPIP Stack\UDP.c
                  UDPTask   0x0143be    program     extern C:\Documents and Settings\Administrator\My Documents\Alarm Controller\Microchip\TCPIP Stack\UDP.c
                  UDPOpen   0x0143c4    program     extern C:\Documents and Settings\Administrator\My Documents\Alarm Controller\Microchip\TCPIP Stack\UDP.c
                 UDPClose   0x014484    program     extern C:\Documents and Settings\Administrator\My Documents\Alarm Controller\Microchip\TCPIP Stack\UDP.c
           UDPSetTxBuffer   0x0144a4    program     extern C:\Documents and Settings\Administrator\My Documents\Alarm Controller\Microchip\TCPIP Stack\UDP.c
           UDPSetRxBuffer   0x0144ea    program     extern C:\Documents and Settings\Administrator\My Documents\Alarm Controller\Microchip\TCPIP Stack\UDP.c
            UDPIsPutReady   0x014504    program     extern C:\Documents and Settings\Administrator\My Documents\Alarm Controller\Microchip\TCPIP Stack\UDP.c
                   UDPPut   0x01454e    program     extern C:\Documents and Settings\Administrator\My Documents\Alarm Controller\Microchip\TCPIP Stack\UDP.c
              UDPPutArray   0x014598    program     extern C:\Documents and Settings\Administrator\My Documents\Alarm Controller\Microchip\TCPIP Stack\UDP.c
           UDPPutROMArray   0x0145c6    program     extern C:\Documents and Settings\Administrator\My Documents\Alarm Controller\Microchip\TCPIP Stack\UDP.c
             UDPPutString   0x0145f8    program     extern C:\Documents and Settings\Administrator\My Documents\Alarm Controller\Microchip\TCPIP Stack\UDP.c
          UDPPutROMString   0x014628    program     extern C:\Documents and Settings\Administrator\My Documents\Alarm Controller\Microchip\TCPIP Stack\UDP.c
                 UDPFlush   0x014682    program     extern C:\Documents and Settings\Administrator\My Documents\Alarm Controller\Microchip\TCPIP Stack\UDP.c
            UDPIsGetReady   0x014716    program     extern C:\Documents and Settings\Administrator\My Documents\Alarm Controller\Microchip\TCPIP Stack\UDP.c
                   UDPGet   0x01474a    program     extern C:\Documents and Settings\Administrator\My Documents\Alarm Controller\Microchip\TCPIP Stack\UDP.c
              UDPGetArray   0x014780    program     extern C:\Documents and Settings\Administrator\My Documents\Alarm Controller\Microchip\TCPIP Stack\UDP.c
               UDPDiscard   0x0147ec    program     extern C:\Documents and Settings\Administrator\My Documents\Alarm Controller\Microchip\TCPIP Stack\UDP.c
               UDPProcess   0x014800    program     extern C:\Documents and Settings\Administrator\My Documents\Alarm Controller\Microchip\TCPIP Stack\UDP.c
       FindMatchingSocket   0x01493e    program     static C:\Documents and Settings\Administrator\My Documents\Alarm Controller\Microchip\TCPIP Stack\UDP.c
                   __pa_0   0x014a5a    program     static C:\Documents and Settings\Administrator\My Documents\Alarm Controller\Microchip\TCPIP Stack\UDP.c
                   __pa_1   0x014a64    program     static C:\Documents and Settings\Administrator\My Documents\Alarm Controller\Microchip\TCPIP Stack\UDP.c
                   __pa_2   0x014a76    program     static C:\Documents and Settings\Administrator\My Documents\Alarm Controller\Microchip\TCPIP Stack\UDP.c
                   __pa_3   0x014a88    program     static C:\Documents and Settings\Administrator\My Documents\Alarm Controller\Microchip\TCPIP Stack\UDP.c
                   __pa_4   0x014a90    program     static C:\Documents and Settings\Administrator\My Documents\Alarm Controller\Microchip\TCPIP Stack\UDP.c
                   __pa_5   0x014a98    program     static C:\Documents and Settings\Administrator\My Documents\Alarm Controller\Microchip\TCPIP Stack\UDP.c
                   __pa_6   0x014aa2    program     static C:\Documents and Settings\Administrator\My Documents\Alarm Controller\Microchip\TCPIP Stack\UDP.c
                   __pa_7   0x014aaa    program     static C:\Documents and Settings\Administrator\My Documents\Alarm Controller\Microchip\TCPIP Stack\UDP.c
                   __pa_8   0x014ab4    program     static C:\Documents and Settings\Administrator\My Documents\Alarm Controller\Microchip\TCPIP Stack\UDP.c
                   __pa_9   0x014abc    program     static C:\Documents and Settings\Administrator\My Documents\Alarm Controller\Microchip\TCPIP Stack\UDP.c
                  __pa_10   0x014ad2    program     static C:\Documents and Settings\Administrator\My Documents\Alarm Controller\Microchip\TCPIP Stack\UDP.c
                  __pa_11   0x014ae6    program     static C:\Documents and Settings\Administrator\My Documents\Alarm Controller\Microchip\TCPIP Stack\UDP.c
                  __pa_12   0x014af8    program     static C:\Documents and Settings\Administrator\My Documents\Alarm Controller\Microchip\TCPIP Stack\UDP.c
                  __pa_13   0x014b08    program     static C:\Documents and Settings\Administrator\My Documents\Alarm Controller\Microchip\TCPIP Stack\UDP.c
                  __pa_14   0x014b18    program     static C:\Documents and Settings\Administrator\My Documents\Alarm Controller\Microchip\TCPIP Stack\UDP.c
                  __pa_15   0x014b28    program     static C:\Documents and Settings\Administrator\My Documents\Alarm Controller\Microchip\TCPIP Stack\UDP.c
                  __pa_16   0x014b32    program     static C:\Documents and Settings\Administrator\My Documents\Alarm Controller\Microchip\TCPIP Stack\UDP.c
                  __pa_17   0x014b3c    program     static C:\Documents and Settings\Administrator\My Documents\Alarm Controller\Microchip\TCPIP Stack\UDP.c
                  __pa_18   0x014b46    program     static C:\Documents and Settings\Administrator\My Documents\Alarm Controller\Microchip\TCPIP Stack\UDP.c
                  __pa_19   0x014b64    program     static C:\Documents and Settings\Administrator\My Documents\Alarm Controller\Microchip\TCPIP Stack\UDP.c
                  __pa_20   0x014b72    program     static C:\Documents and Settings\Administrator\My Documents\Alarm Controller\Microchip\TCPIP Stack\UDP.c
                  __pa_21   0x014b7c    program     static C:\Documents and Settings\Administrator\My Documents\Alarm Controller\Microchip\TCPIP Stack\UDP.c
                  __pa_22   0x014b86    program     static C:\Documents and Settings\Administrator\My Documents\Alarm Controller\Microchip\TCPIP Stack\UDP.c
                  __pa_23   0x014b96    program     static C:\Documents and Settings\Administrator\My Documents\Alarm Controller\Microchip\TCPIP Stack\UDP.c
                  __pa_24   0x014ba0    program     static C:\Documents and Settings\Administrator\My Documents\Alarm Controller\Microchip\TCPIP Stack\UDP.c
                  __pa_25   0x014ba8    program     static C:\Documents and Settings\Administrator\My Documents\Alarm Controller\Microchip\TCPIP Stack\UDP.c
                  __pa_26   0x014bb2    program     static C:\Documents and Settings\Administrator\My Documents\Alarm Controller\Microchip\TCPIP Stack\UDP.c
                 CheckEOL   0x014bba    program     extern C:\Documents and Settings\Administrator\My Documents\Alarm Controller\PIC Code\EOL.c
          IsZoneTriggered   0x014df8    program     extern C:\Documents and Settings\Administrator\My Documents\Alarm Controller\PIC Code\EOL.c
       HTTPPrint_EOLValue   0x015094    program     extern C:\Documents and Settings\Administrator\My Documents\Alarm Controller\PIC Code\EOL.c
                   __pa_0   0x015106    program     static C:\Documents and Settings\Administrator\My Documents\Alarm Controller\PIC Code\EOL.c
                   __pa_1   0x01510c    program     static C:\Documents and Settings\Administrator\My Documents\Alarm Controller\PIC Code\EOL.c
                   __pa_2   0x015124    program     static C:\Documents and Settings\Administrator\My Documents\Alarm Controller\PIC Code\EOL.c
                   __pa_3   0x015134    program     static C:\Documents and Settings\Administrator\My Documents\Alarm Controller\PIC Code\EOL.c
                   __pa_4   0x01514a    program     static C:\Documents and Settings\Administrator\My Documents\Alarm Controller\PIC Code\EOL.c
                   __pa_5   0x015150    program     static C:\Documents and Settings\Administrator\My Documents\Alarm Controller\PIC Code\EOL.c
                   __pa_6   0x015162    program     static C:\Documents and Settings\Administrator\My Documents\Alarm Controller\PIC Code\EOL.c
                   __pa_7   0x01517e    program     static C:\Documents and Settings\Administrator\My Documents\Alarm Controller\PIC Code\EOL.c
                   __pa_8   0x01518c    program     static C:\Documents and Settings\Administrator\My Documents\Alarm Controller\PIC Code\EOL.c
                   __pa_9   0x0151a2    program     static C:\Documents and Settings\Administrator\My Documents\Alarm Controller\PIC Code\EOL.c
                  __pa_10   0x0151ac    program     static C:\Documents and Settings\Administrator\My Documents\Alarm Controller\PIC Code\EOL.c
                  __pa_11   0x0151b8    program     static C:\Documents and Settings\Administrator\My Documents\Alarm Controller\PIC Code\EOL.c
                  __pa_12   0x0151c8    program     static C:\Documents and Settings\Administrator\My Documents\Alarm Controller\PIC Code\EOL.c
                  __pa_13   0x0151d4    program     static C:\Documents and Settings\Administrator\My Documents\Alarm Controller\PIC Code\EOL.c
                  __pa_14   0x0151e6    program     static C:\Documents and Settings\Administrator\My Documents\Alarm Controller\PIC Code\EOL.c
                  __pa_15   0x015204    program     static C:\Documents and Settings\Administrator\My Documents\Alarm Controller\PIC Code\EOL.c
                  __pa_16   0x015218    program     static C:\Documents and Settings\Administrator\My Documents\Alarm Controller\PIC Code\EOL.c
                  __pa_17   0x015226    program     static C:\Documents and Settings\Administrator\My Documents\Alarm Controller\PIC Code\EOL.c
                  __pa_18   0x015234    program     static C:\Documents and Settings\Administrator\My Documents\Alarm Controller\PIC Code\EOL.c
                  __pa_19   0x015244    program     static C:\Documents and Settings\Administrator\My Documents\Alarm Controller\PIC Code\EOL.c
                  __pa_20   0x015250    program     static C:\Documents and Settings\Administrator\My Documents\Alarm Controller\PIC Code\EOL.c
                  __pa_21   0x01525c    program     static C:\Documents and Settings\Administrator\My Documents\Alarm Controller\PIC Code\EOL.c
                  __pa_22   0x015268    program     static C:\Documents and Settings\Administrator\My Documents\Alarm Controller\PIC Code\EOL.c
                  __pa_23   0x015272    program     static C:\Documents and Settings\Administrator\My Documents\Alarm Controller\PIC Code\EOL.c
                  __pa_24   0x015282    program     static C:\Documents and Settings\Administrator\My Documents\Alarm Controller\PIC Code\EOL.c
                  __pa_25   0x01528c    program     static C:\Documents and Settings\Administrator\My Documents\Alarm Controller\PIC Code\EOL.c
                  __pa_26   0x01529a    program     static C:\Documents and Settings\Administrator\My Documents\Alarm Controller\PIC Code\EOL.c
                  __pa_27   0x0152a0    program     static C:\Documents and Settings\Administrator\My Documents\Alarm Controller\PIC Code\EOL.c
                  __pa_28   0x0152aa    program     static C:\Documents and Settings\Administrator\My Documents\Alarm Controller\PIC Code\EOL.c
                  __pa_29   0x0152ba    program     static C:\Documents and Settings\Administrator\My Documents\Alarm Controller\PIC Code\EOL.c
                  __pa_30   0x0152c4    program     static C:\Documents and Settings\Administrator\My Documents\Alarm Controller\PIC Code\EOL.c
                  __pa_31   0x0152da    program     static C:\Documents and Settings\Administrator\My Documents\Alarm Controller\PIC Code\EOL.c
                  __pa_32   0x0152e6    program     static C:\Documents and Settings\Administrator\My Documents\Alarm Controller\PIC Code\EOL.c
                  __pa_33   0x0152f0    program     static C:\Documents and Settings\Administrator\My Documents\Alarm Controller\PIC Code\EOL.c
                  __pa_34   0x0152fa    program     static C:\Documents and Settings\Administrator\My Documents\Alarm Controller\PIC Code\EOL.c
                  __pa_35   0x015300    program     static C:\Documents and Settings\Administrator\My Documents\Alarm Controller\PIC Code\EOL.c
                  __pa_36   0x01530a    program     static C:\Documents and Settings\Administrator\My Documents\Alarm Controller\PIC Code\EOL.c
                  __pa_37   0x015314    program     static C:\Documents and Settings\Administrator\My Documents\Alarm Controller\PIC Code\EOL.c
                  __pa_38   0x015326    program     static C:\Documents and Settings\Administrator\My Documents\Alarm Controller\PIC Code\EOL.c
                  __pa_39   0x01532c    program     static C:\Documents and Settings\Administrator\My Documents\Alarm Controller\PIC Code\EOL.c
            DNSBeginUsage   0x015338    program     extern C:\Documents and Settings\Administrator\My Documents\Alarm Controller\Microchip\TCPIP Stack\DNS.c
              DNSEndUsage   0x015342    program     extern C:\Documents and Settings\Administrator\My Documents\Alarm Controller\Microchip\TCPIP Stack\DNS.c
               DNSResolve   0x01535c    program     extern C:\Documents and Settings\Administrator\My Documents\Alarm Controller\Microchip\TCPIP Stack\DNS.c
            DNSResolveROM   0x015398    program     extern C:\Documents and Settings\Administrator\My Documents\Alarm Controller\Microchip\TCPIP Stack\DNS.c
            DNSIsResolved   0x0153da    program     extern C:\Documents and Settings\Administrator\My Documents\Alarm Controller\Microchip\TCPIP Stack\DNS.c
             DNSPutString   0x0156b4    program     static C:\Documents and Settings\Administrator\My Documents\Alarm Controller\Microchip\TCPIP Stack\DNS.c
          DNSPutROMString   0x015748    program     static C:\Documents and Settings\Administrator\My Documents\Alarm Controller\Microchip\TCPIP Stack\DNS.c
             DNSGetString   0x015820    program     static C:\Documents and Settings\Administrator\My Documents\Alarm Controller\Microchip\TCPIP Stack\DNS.c
                   __pa_0   0x015856    program     static C:\Documents and Settings\Administrator\My Documents\Alarm Controller\Microchip\TCPIP Stack\DNS.c
                   __pa_1   0x01585c    program     static C:\Documents and Settings\Administrator\My Documents\Alarm Controller\Microchip\TCPIP Stack\DNS.c
                   __pa_2   0x0158a6    program     static C:\Documents and Settings\Administrator\My Documents\Alarm Controller\Microchip\TCPIP Stack\DNS.c
                   __pa_3   0x0158ac    program     static C:\Documents and Settings\Administrator\My Documents\Alarm Controller\Microchip\TCPIP Stack\DNS.c
                   __pa_4   0x0158b4    program     static C:\Documents and Settings\Administrator\My Documents\Alarm Controller\Microchip\TCPIP Stack\DNS.c
                   __pa_5   0x0158ca    program     static C:\Documents and Settings\Administrator\My Documents\Alarm Controller\Microchip\TCPIP Stack\DNS.c
                   __pa_6   0x0158d4    program     static C:\Documents and Settings\Administrator\My Documents\Alarm Controller\Microchip\TCPIP Stack\DNS.c
                   __pa_7   0x0158de    program     static C:\Documents and Settings\Administrator\My Documents\Alarm Controller\Microchip\TCPIP Stack\DNS.c
                   __pa_8   0x0158f4    program     static C:\Documents and Settings\Administrator\My Documents\Alarm Controller\Microchip\TCPIP Stack\DNS.c
                   __pa_9   0x015900    program     static C:\Documents and Settings\Administrator\My Documents\Alarm Controller\Microchip\TCPIP Stack\DNS.c
                  __pa_10   0x01590e    program     static C:\Documents and Settings\Administrator\My Documents\Alarm Controller\Microchip\TCPIP Stack\DNS.c
                  __pa_11   0x015920    program     static C:\Documents and Settings\Administrator\My Documents\Alarm Controller\Microchip\TCPIP Stack\DNS.c
                  __pa_12   0x015928    program     static C:\Documents and Settings\Administrator\My Documents\Alarm Controller\Microchip\TCPIP Stack\DNS.c
                  __pa_13   0x015932    program     static C:\Documents and Settings\Administrator\My Documents\Alarm Controller\Microchip\TCPIP Stack\DNS.c
                  __pa_14   0x015942    program     static C:\Documents and Settings\Administrator\My Documents\Alarm Controller\Microchip\TCPIP Stack\DNS.c
                  __pa_15   0x015974    program     static C:\Documents and Settings\Administrator\My Documents\Alarm Controller\Microchip\TCPIP Stack\DNS.c
                  __pa_16   0x015982    program     static C:\Documents and Settings\Administrator\My Documents\Alarm Controller\Microchip\TCPIP Stack\DNS.c
                  __pa_17   0x01598a    program     static C:\Documents and Settings\Administrator\My Documents\Alarm Controller\Microchip\TCPIP Stack\DNS.c
                  __pa_18   0x015990    program     static C:\Documents and Settings\Administrator\My Documents\Alarm Controller\Microchip\TCPIP Stack\DNS.c
      HTTPPrint_NTPServer   0x015996    program     extern C:\Documents and Settings\Administrator\My Documents\Alarm Controller\PIC Code\SNTP Customised.c
     HTTPPrint_AES_Active   0x0159a6    program     extern C:\Documents and Settings\Administrator\My Documents\Alarm Controller\PIC Code\SNTP Customised.c
  HTTPPrint_NTPLastUpdate   0x0159c0    program     extern C:\Documents and Settings\Administrator\My Documents\Alarm Controller\PIC Code\SNTP Customised.c
    HTTPPrint_CurrentEPOC   0x0159d0    program     extern C:\Documents and Settings\Administrator\My Documents\Alarm Controller\PIC Code\SNTP Customised.c
 HTTPPrint_SNTPTestOutput   0x015a16    program     extern C:\Documents and Settings\Administrator\My Documents\Alarm Controller\PIC Code\SNTP Customised.c
               SNTPClient   0x015ab8    program     extern C:\Documents and Settings\Administrator\My Documents\Alarm Controller\PIC Code\SNTP Customised.c
        SNTPGetUTCSeconds   0x015d98    program     extern C:\Documents and Settings\Administrator\My Documents\Alarm Controller\PIC Code\SNTP Customised.c
                   __pa_0   0x015e84    program     static C:\Documents and Settings\Administrator\My Documents\Alarm Controller\PIC Code\SNTP Customised.c
                   __pa_1   0x015eac    program     static C:\Documents and Settings\Administrator\My Documents\Alarm Controller\PIC Code\SNTP Customised.c
                   __pa_2   0x015eca    program     static C:\Documents and Settings\Administrator\My Documents\Alarm Controller\PIC Code\SNTP Customised.c
                   __pa_3   0x015ede    program     static C:\Documents and Settings\Administrator\My Documents\Alarm Controller\PIC Code\SNTP Customised.c
                   __pa_4   0x015eea    program     static C:\Documents and Settings\Administrator\My Documents\Alarm Controller\PIC Code\SNTP Customised.c
                   __pa_5   0x015efa    program     static C:\Documents and Settings\Administrator\My Documents\Alarm Controller\PIC Code\SNTP Customised.c
                   __pa_6   0x015f04    program     static C:\Documents and Settings\Administrator\My Documents\Alarm Controller\PIC Code\SNTP Customised.c
                   __pa_7   0x015f10    program     static C:\Documents and Settings\Administrator\My Documents\Alarm Controller\PIC Code\SNTP Customised.c
                   __pa_8   0x015f1c    program     static C:\Documents and Settings\Administrator\My Documents\Alarm Controller\PIC Code\SNTP Customised.c
                   __pa_9   0x015f2a    program     static C:\Documents and Settings\Administrator\My Documents\Alarm Controller\PIC Code\SNTP Customised.c
                  __pa_10   0x015f36    program     static C:\Documents and Settings\Administrator\My Documents\Alarm Controller\PIC Code\SNTP Customised.c
                  __pa_11   0x015f42    program     static C:\Documents and Settings\Administrator\My Documents\Alarm Controller\PIC Code\SNTP Customised.c
                  __pa_12   0x015f4c    program     static C:\Documents and Settings\Administrator\My Documents\Alarm Controller\PIC Code\SNTP Customised.c
                  __pa_13   0x015f5a    program     static C:\Documents and Settings\Administrator\My Documents\Alarm Controller\PIC Code\SNTP Customised.c
                  __pa_14   0x015f64    program     static C:\Documents and Settings\Administrator\My Documents\Alarm Controller\PIC Code\SNTP Customised.c
                  __pa_15   0x015f70    program     static C:\Documents and Settings\Administrator\My Documents\Alarm Controller\PIC Code\SNTP Customised.c
                  __pa_16   0x015f80    program     static C:\Documents and Settings\Administrator\My Documents\Alarm Controller\PIC Code\SNTP Customised.c
                  __pa_17   0x015f92    program     static C:\Documents and Settings\Administrator\My Documents\Alarm Controller\PIC Code\SNTP Customised.c
                  __pa_18   0x015fa0    program     static C:\Documents and Settings\Administrator\My Documents\Alarm Controller\PIC Code\SNTP Customised.c
                  __pa_19   0x015fa8    program     static C:\Documents and Settings\Administrator\My Documents\Alarm Controller\PIC Code\SNTP Customised.c
                   _addBI   0x015fb0    program     extern C:\Documents and Settings\Administrator\My Documents\Alarm Controller\Microchip\TCPIP Stack\BigInt_helper.asm
                  aDo8Add   0x015fe0    program     static C:\Documents and Settings\Administrator\My Documents\Alarm Controller\Microchip\TCPIP Stack\BigInt_helper.asm
                aTest8Add   0x016004    program     static C:\Documents and Settings\Administrator\My Documents\Alarm Controller\Microchip\TCPIP Stack\BigInt_helper.asm
           aDoResidualAdd   0x01600c    program     static C:\Documents and Settings\Administrator\My Documents\Alarm Controller\Microchip\TCPIP Stack\BigInt_helper.asm
         aTestResidualAdd   0x016010    program     static C:\Documents and Settings\Administrator\My Documents\Alarm Controller\Microchip\TCPIP Stack\BigInt_helper.asm
            aDoFinalCarry   0x016018    program     static C:\Documents and Settings\Administrator\My Documents\Alarm Controller\Microchip\TCPIP Stack\BigInt_helper.asm
                    aDone   0x016022    program     static C:\Documents and Settings\Administrator\My Documents\Alarm Controller\Microchip\TCPIP Stack\BigInt_helper.asm
                _addBIROM   0x016034    program     extern C:\Documents and Settings\Administrator\My Documents\Alarm Controller\Microchip\TCPIP Stack\BigInt_helper.asm
                 aRDo8Add   0x016060    program     static C:\Documents and Settings\Administrator\My Documents\Alarm Controller\Microchip\TCPIP Stack\BigInt_helper.asm
               aRTest8Add   0x016094    program     static C:\Documents and Settings\Administrator\My Documents\Alarm Controller\Microchip\TCPIP Stack\BigInt_helper.asm
          aRDoResidualAdd   0x01609c    program     static C:\Documents and Settings\Administrator\My Documents\Alarm Controller\Microchip\TCPIP Stack\BigInt_helper.asm
        aRTestResidualAdd   0x0160a2    program     static C:\Documents and Settings\Administrator\My Documents\Alarm Controller\Microchip\TCPIP Stack\BigInt_helper.asm
           aRDoFinalCarry   0x0160aa    program     static C:\Documents and Settings\Administrator\My Documents\Alarm Controller\Microchip\TCPIP Stack\BigInt_helper.asm
                   aRDone   0x0160b4    program     static C:\Documents and Settings\Administrator\My Documents\Alarm Controller\Microchip\TCPIP Stack\BigInt_helper.asm
                   _subBI   0x0160b6    program     extern C:\Documents and Settings\Administrator\My Documents\Alarm Controller\Microchip\TCPIP Stack\BigInt_helper.asm
             sDo8Subtract   0x0160e6    program     static C:\Documents and Settings\Administrator\My Documents\Alarm Controller\Microchip\TCPIP Stack\BigInt_helper.asm
           sTest8Subtract   0x01610a    program     static C:\Documents and Settings\Administrator\My Documents\Alarm Controller\Microchip\TCPIP Stack\BigInt_helper.asm
      sDoResidualSubtract   0x016112    program     static C:\Documents and Settings\Administrator\My Documents\Alarm Controller\Microchip\TCPIP Stack\BigInt_helper.asm
    sTestResidualSubtract   0x016116    program     static C:\Documents and Settings\Administrator\My Documents\Alarm Controller\Microchip\TCPIP Stack\BigInt_helper.asm
            sDoFinalCarry   0x01611e    program     static C:\Documents and Settings\Administrator\My Documents\Alarm Controller\Microchip\TCPIP Stack\BigInt_helper.asm
                    sDone   0x016128    program     static C:\Documents and Settings\Administrator\My Documents\Alarm Controller\Microchip\TCPIP Stack\BigInt_helper.asm
                _subBIROM   0x01613a    program     extern C:\Documents and Settings\Administrator\My Documents\Alarm Controller\Microchip\TCPIP Stack\BigInt_helper.asm
            sRDo8Subtract   0x016166    program     static C:\Documents and Settings\Administrator\My Documents\Alarm Controller\Microchip\TCPIP Stack\BigInt_helper.asm
          sRTest8Subtract   0x01619a    program     static C:\Documents and Settings\Administrator\My Documents\Alarm Controller\Microchip\TCPIP Stack\BigInt_helper.asm
     sRDoResidualSubtract   0x0161a2    program     static C:\Documents and Settings\Administrator\My Documents\Alarm Controller\Microchip\TCPIP Stack\BigInt_helper.asm
   sRTestResidualSubtract   0x0161a8    program     static C:\Documents and Settings\Administrator\My Documents\Alarm Controller\Microchip\TCPIP Stack\BigInt_helper.asm
           sRDoFinalCarry   0x0161b0    program     static C:\Documents and Settings\Administrator\My Documents\Alarm Controller\Microchip\TCPIP Stack\BigInt_helper.asm
                   sRDone   0x0161ba    program     static C:\Documents and Settings\Administrator\My Documents\Alarm Controller\Microchip\TCPIP Stack\BigInt_helper.asm
                  _zeroBI   0x0161bc    program     extern C:\Documents and Settings\Administrator\My Documents\Alarm Controller\Microchip\TCPIP Stack\BigInt_helper.asm
                    zLoop   0x0161c8    program     static C:\Documents and Settings\Administrator\My Documents\Alarm Controller\Microchip\TCPIP Stack\BigInt_helper.asm
                   _msbBI   0x0161d8    program     extern C:\Documents and Settings\Administrator\My Documents\Alarm Controller\Microchip\TCPIP Stack\BigInt_helper.asm
                  msbLoop   0x0161e2    program     static C:\Documents and Settings\Administrator\My Documents\Alarm Controller\Microchip\TCPIP Stack\BigInt_helper.asm
                 msbFound   0x0161ee    program     static C:\Documents and Settings\Administrator\My Documents\Alarm Controller\Microchip\TCPIP Stack\BigInt_helper.asm
                   _mulBI   0x0161f8    program     extern C:\Documents and Settings\Administrator\My Documents\Alarm Controller\Microchip\TCPIP Stack\BigInt_helper.asm
                   mLoadB   0x01620c    program     static C:\Documents and Settings\Administrator\My Documents\Alarm Controller\Microchip\TCPIP Stack\BigInt_helper.asm
              mLoadBAgain   0x016216    program     static C:\Documents and Settings\Administrator\My Documents\Alarm Controller\Microchip\TCPIP Stack\BigInt_helper.asm
                   mLoopA   0x016236    program     static C:\Documents and Settings\Administrator\My Documents\Alarm Controller\Microchip\TCPIP Stack\BigInt_helper.asm
                    mDone   0x01625a    program     static C:\Documents and Settings\Administrator\My Documents\Alarm Controller\Microchip\TCPIP Stack\BigInt_helper.asm
                _mulBIROM   0x01626c    program     extern C:\Documents and Settings\Administrator\My Documents\Alarm Controller\Microchip\TCPIP Stack\BigInt_helper.asm
                  mRLoadB   0x01628a    program     static C:\Documents and Settings\Administrator\My Documents\Alarm Controller\Microchip\TCPIP Stack\BigInt_helper.asm
             mRLoadBAgain   0x01628c    program     static C:\Documents and Settings\Administrator\My Documents\Alarm Controller\Microchip\TCPIP Stack\BigInt_helper.asm
                  mRLoopA   0x0162aa    program     static C:\Documents and Settings\Administrator\My Documents\Alarm Controller\Microchip\TCPIP Stack\BigInt_helper.asm
                   mRDone   0x0162ce    program     static C:\Documents and Settings\Administrator\My Documents\Alarm Controller\Microchip\TCPIP Stack\BigInt_helper.asm
                   _sqrBI   0x0162e0    program     extern C:\Documents and Settings\Administrator\My Documents\Alarm Controller\Microchip\TCPIP Stack\BigInt_helper.asm
               qOuterLoop   0x016300    program     static C:\Documents and Settings\Administrator\My Documents\Alarm Controller\Microchip\TCPIP Stack\BigInt_helper.asm
                 qNextOut   0x01632c    program     static C:\Documents and Settings\Administrator\My Documents\Alarm Controller\Microchip\TCPIP Stack\BigInt_helper.asm
               qInnerLoop   0x01635a    program     static C:\Documents and Settings\Administrator\My Documents\Alarm Controller\Microchip\TCPIP Stack\BigInt_helper.asm
               qInnerByte   0x016366    program     static C:\Documents and Settings\Administrator\My Documents\Alarm Controller\Microchip\TCPIP Stack\BigInt_helper.asm
               qInnerDone   0x016390    program     static C:\Documents and Settings\Administrator\My Documents\Alarm Controller\Microchip\TCPIP Stack\BigInt_helper.asm
                    qDone   0x01639a    program     static C:\Documents and Settings\Administrator\My Documents\Alarm Controller\Microchip\TCPIP Stack\BigInt_helper.asm
                   _masBI   0x0163ac    program     extern C:\Documents and Settings\Administrator\My Documents\Alarm Controller\Microchip\TCPIP Stack\BigInt_helper.asm
             masLoop4Init   0x0163c8    program     static C:\Documents and Settings\Administrator\My Documents\Alarm Controller\Microchip\TCPIP Stack\BigInt_helper.asm
                 masLoop4   0x0163e0    program     static C:\Documents and Settings\Administrator\My Documents\Alarm Controller\Microchip\TCPIP Stack\BigInt_helper.asm
              masLoopInit   0x016434    program     static C:\Documents and Settings\Administrator\My Documents\Alarm Controller\Microchip\TCPIP Stack\BigInt_helper.asm
                  masLoop   0x016438    program     static C:\Documents and Settings\Administrator\My Documents\Alarm Controller\Microchip\TCPIP Stack\BigInt_helper.asm
           masFinalBorrow   0x016450    program     static C:\Documents and Settings\Administrator\My Documents\Alarm Controller\Microchip\TCPIP Stack\BigInt_helper.asm
                _masBIROM   0x016464    program     extern C:\Documents and Settings\Administrator\My Documents\Alarm Controller\Microchip\TCPIP Stack\BigInt_helper.asm
            masRLoop4Init   0x01647c    program     static C:\Documents and Settings\Administrator\My Documents\Alarm Controller\Microchip\TCPIP Stack\BigInt_helper.asm
                masRLoop4   0x016494    program     static C:\Documents and Settings\Administrator\My Documents\Alarm Controller\Microchip\TCPIP Stack\BigInt_helper.asm
             masRLoopInit   0x0164f0    program     static C:\Documents and Settings\Administrator\My Documents\Alarm Controller\Microchip\TCPIP Stack\BigInt_helper.asm
                 masRLoop   0x0164f4    program     static C:\Documents and Settings\Administrator\My Documents\Alarm Controller\Microchip\TCPIP Stack\BigInt_helper.asm
          masRFinalBorrow   0x01650e    program     static C:\Documents and Settings\Administrator\My Documents\Alarm Controller\Microchip\TCPIP Stack\BigInt_helper.asm
                  _copyBI   0x016512    program     extern C:\Documents and Settings\Administrator\My Documents\Alarm Controller\Microchip\TCPIP Stack\BigInt_helper.asm
                    cLoop   0x016530    program     static C:\Documents and Settings\Administrator\My Documents\Alarm Controller\Microchip\TCPIP Stack\BigInt_helper.asm
                    cZero   0x016548    program     static C:\Documents and Settings\Administrator\My Documents\Alarm Controller\Microchip\TCPIP Stack\BigInt_helper.asm
                cZeroTest   0x01654a    program     static C:\Documents and Settings\Administrator\My Documents\Alarm Controller\Microchip\TCPIP Stack\BigInt_helper.asm
                     atoi   0x016568    program     extern C:\MCC18\src\extended\stdclib\atoi.asm
                  jSkipWS   0x016596    program     static C:\MCC18\src\extended\stdclib\atoi.asm
                 jSkipWS1   0x0165a8    program     static C:\MCC18\src\extended\stdclib\atoi.asm
                 jTstSign   0x0165ac    program     static C:\MCC18\src\extended\stdclib\atoi.asm
                jTstSign1   0x0165b8    program     static C:\MCC18\src\extended\stdclib\atoi.asm
                jTstSign2   0x0165be    program     static C:\MCC18\src\extended\stdclib\atoi.asm
                    jLoop   0x0165c0    program     static C:\MCC18\src\extended\stdclib\atoi.asm
                jTstSign3   0x0165c0    program     static C:\MCC18\src\extended\stdclib\atoi.asm
                 jEndLoop   0x01660e    program     static C:\MCC18\src\extended\stdclib\atoi.asm
                     jEnd   0x016626    program     static C:\MCC18\src\extended\stdclib\atoi.asm
                     atol   0x016652    program     extern C:\MCC18\src\extended\stdclib\atol.asm
                  jSkipWS   0x016688    program     static C:\MCC18\src\extended\stdclib\atol.asm
                 jSkipWS1   0x01669a    program     static C:\MCC18\src\extended\stdclib\atol.asm
                 jTstSign   0x01669e    program     static C:\MCC18\src\extended\stdclib\atol.asm
                jTstSign1   0x0166aa    program     static C:\MCC18\src\extended\stdclib\atol.asm
                jTstSign2   0x0166b0    program     static C:\MCC18\src\extended\stdclib\atol.asm
                jTstSign3   0x0166b2    program     static C:\MCC18\src\extended\stdclib\atol.asm
                    jLoop   0x0166b2    program     static C:\MCC18\src\extended\stdclib\atol.asm
                 jEndLoop   0x016740    program     static C:\MCC18\src\extended\stdclib\atol.asm
                  _14jEnd   0x016770    program     static C:\MCC18\src\extended\stdclib\atol.asm
                     jEnd   0x016770    program     static C:\MCC18\src\extended\stdclib\atol.asm
                     itoa   0x0167a8    program     extern C:\MCC18\src\extended\stdclib\itoa.asm
                jTstSign1   0x0167d4    program     static C:\MCC18\src\extended\stdclib\itoa.asm
                     jDo5   0x01681e    program     static C:\MCC18\src\extended\stdclib\itoa.asm
                     jDo4   0x016822    program     static C:\MCC18\src\extended\stdclib\itoa.asm
                     jDo3   0x016826    program     static C:\MCC18\src\extended\stdclib\itoa.asm
                     jDo2   0x01682a    program     static C:\MCC18\src\extended\stdclib\itoa.asm
                     jDo1   0x01682e    program     static C:\MCC18\src\extended\stdclib\itoa.asm
                 TstUpper   0x016862    program     static C:\MCC18\src\extended\stdclib\itoa.asm
                 TstLower   0x016868    program     static C:\MCC18\src\extended\stdclib\itoa.asm
                jTstLowZ1   0x016872    program     static C:\MCC18\src\extended\stdclib\itoa.asm
                ProcUpper   0x016874    program     static C:\MCC18\src\extended\stdclib\itoa.asm
                ProcLower   0x01687e    program     static C:\MCC18\src\extended\stdclib\itoa.asm
                   itoBCD   0x016888    program     extern C:\MCC18\src\extended\stdclib\itobcd.asm
                    jLoop   0x0168a0    program     static C:\MCC18\src\extended\stdclib\itobcd.asm
                     jEnd   0x0168c6    program     static C:\MCC18\src\extended\stdclib\itobcd.asm
                  OneByte   0x0168ca    program     static C:\MCC18\src\extended\stdclib\itobcd.asm
                    srand   0x0168dc    program     extern C:\MCC18\src\extended\stdclib\rand.asm
                     rand   0x0168ea    program     extern C:\MCC18\src\extended\stdclib\rand.asm
                    ultoa   0x01691a    program     extern C:\MCC18\src\extended\stdclib\ultoa.asm
                    jDo10   0x0169a6    program     static C:\MCC18\src\extended\stdclib\ultoa.asm
                     jDo9   0x0169aa    program     static C:\MCC18\src\extended\stdclib\ultoa.asm
                     jDo8   0x0169ae    program     static C:\MCC18\src\extended\stdclib\ultoa.asm
                     jDo7   0x0169b2    program     static C:\MCC18\src\extended\stdclib\ultoa.asm
                     jDo6   0x0169b6    program     static C:\MCC18\src\extended\stdclib\ultoa.asm
                     jDo5   0x0169ba    program     static C:\MCC18\src\extended\stdclib\ultoa.asm
                     jDo4   0x0169be    program     static C:\MCC18\src\extended\stdclib\ultoa.asm
                     jDo3   0x0169c2    program     static C:\MCC18\src\extended\stdclib\ultoa.asm
                     jDo2   0x0169c6    program     static C:\MCC18\src\extended\stdclib\ultoa.asm
                     jDo1   0x0169ca    program     static C:\MCC18\src\extended\stdclib\ultoa.asm
                 TstUpper   0x0169fe    program     static C:\MCC18\src\extended\stdclib\ultoa.asm
                 TstLower   0x016a04    program     static C:\MCC18\src\extended\stdclib\ultoa.asm
                jTstLowZ1   0x016a0e    program     static C:\MCC18\src\extended\stdclib\ultoa.asm
                ProcUpper   0x016a10    program     static C:\MCC18\src\extended\stdclib\ultoa.asm
                ProcLower   0x016a1a    program     static C:\MCC18\src\extended\stdclib\ultoa.asm
                   ltoBCD   0x016a24    program     extern C:\MCC18\src\extended\stdclib\ltobcd.asm
                    jLoop   0x016a40    program     static C:\MCC18\src\extended\stdclib\ltobcd.asm
                     jEnd   0x016a7e    program     static C:\MCC18\src\extended\stdclib\ltobcd.asm
                  OneByte   0x016a82    program     static C:\MCC18\src\extended\stdclib\ltobcd.asm
                   STable   0x016a94    program     extern C:\Documents and Settings\Administrator\My Documents\Alarm Controller\PIC Code\AES.c
                  SiTable   0x016b94    program     extern C:\Documents and Settings\Administrator\My Documents\Alarm Controller\PIC Code\AES.c
                       x1   0x016c94    program     extern C:\Documents and Settings\Administrator\My Documents\Alarm Controller\PIC Code\AES.c
                       x2   0x016d94    program     extern C:\Documents and Settings\Administrator\My Documents\Alarm Controller\PIC Code\AES.c
                       x3   0x016e94    program     extern C:\Documents and Settings\Administrator\My Documents\Alarm Controller\PIC Code\AES.c
                   memcmp   0x016f94    program     extern C:\MCC18\src\extended\stdclib\memcmp.asm
                    jLoop   0x016fb4    program     static C:\MCC18\src\extended\stdclib\memcmp.asm
              _4jContinue   0x016fc0    program     static C:\MCC18\src\extended\stdclib\memcmp.asm
                   _5jEnd   0x016fca    program     static C:\MCC18\src\extended\stdclib\memcmp.asm
                     jEnd   0x016fd0    program     static C:\MCC18\src\extended\stdclib\memcmp.asm
            memcmppgm2ram   0x016fe6    program     extern C:\MCC18\src\extended\stdclib\mcmpp2r.asm
                    jLoop   0x017004    program     static C:\MCC18\src\extended\stdclib\mcmpp2r.asm
              _3jContinue   0x017010    program     static C:\MCC18\src\extended\stdclib\mcmpp2r.asm
                   _4jEnd   0x01701a    program     static C:\MCC18\src\extended\stdclib\mcmpp2r.asm
                     jEnd   0x017022    program     static C:\MCC18\src\extended\stdclib\mcmpp2r.asm
                   memcpy   0x017024    program     extern C:\MCC18\src\extended\stdclib\memcpy.asm
                    jLoop   0x01704c    program     static C:\MCC18\src\extended\stdclib\memcpy.asm
              _4jContinue   0x017058    program     static C:\MCC18\src\extended\stdclib\memcpy.asm
                   _5jEnd   0x017062    program     static C:\MCC18\src\extended\stdclib\memcpy.asm
                     jEnd   0x017068    program     static C:\MCC18\src\extended\stdclib\memcpy.asm
            memcpypgm2ram   0x01707a    program     extern C:\MCC18\src\extended\stdclib\mcpyp2r.asm
                    jLoop   0x0170a0    program     static C:\MCC18\src\extended\stdclib\mcpyp2r.asm
              _3jContinue   0x0170ac    program     static C:\MCC18\src\extended\stdclib\mcpyp2r.asm
                   _4jEnd   0x0170b6    program     static C:\MCC18\src\extended\stdclib\mcpyp2r.asm
                     jEnd   0x0170be    program     static C:\MCC18\src\extended\stdclib\mcpyp2r.asm
                   memset   0x0170c0    program     extern C:\MCC18\src\extended\stdclib\memset.asm
                    jLoop   0x0170d4    program     static C:\MCC18\src\extended\stdclib\memset.asm
              _2jContinue   0x0170e0    program     static C:\MCC18\src\extended\stdclib\memset.asm
                   _3jEnd   0x0170ea    program     static C:\MCC18\src\extended\stdclib\memset.asm
                     jEnd   0x0170f2    program     static C:\MCC18\src\extended\stdclib\memset.asm
                   strcat   0x0170f4    program     extern C:\MCC18\src\extended\stdclib\strcat.asm
                jNullLoop   0x01711c    program     static C:\MCC18\src\extended\stdclib\strcat.asm
                    jLoop   0x017122    program     static C:\MCC18\src\extended\stdclib\strcat.asm
            strcatpgm2ram   0x01713c    program     extern C:\MCC18\src\extended\stdclib\scatp2r.asm
                jNullLoop   0x017162    program     static C:\MCC18\src\extended\stdclib\scatp2r.asm
                    jLoop   0x017168    program     static C:\MCC18\src\extended\stdclib\scatp2r.asm
                     jEnd   0x017172    program     static C:\MCC18\src\extended\stdclib\scatp2r.asm
                   strchr   0x017174    program     extern C:\MCC18\src\extended\stdclib\strchr.asm
                    jLoop   0x017180    program     static C:\MCC18\src\extended\stdclib\strchr.asm
                   jMatch   0x017192    program     static C:\MCC18\src\extended\stdclib\strchr.asm
                     jEnd   0x01719a    program     static C:\MCC18\src\extended\stdclib\strchr.asm
                strchrpgm   0x01719c    program     extern C:\MCC18\src\extended\stdclib\schrpgm.asm
                    jLoop   0x0171ae    program     static C:\MCC18\src\extended\stdclib\schrpgm.asm
                   jMatch   0x0171cc    program     static C:\MCC18\src\extended\stdclib\schrpgm.asm
                     jEnd   0x0171de    program     static C:\MCC18\src\extended\stdclib\schrpgm.asm
                   strcmp   0x0171f2    program     extern C:\MCC18\src\extended\stdclib\strcmp.asm
                    jLoop   0x017212    program     static C:\MCC18\src\extended\stdclib\strcmp.asm
                     jEnd   0x01721c    program     static C:\MCC18\src\extended\stdclib\strcmp.asm
            strcmppgm2ram   0x017232    program     extern C:\MCC18\src\extended\stdclib\scmpp2r.asm
                    jLoop   0x017250    program     static C:\MCC18\src\extended\stdclib\scmpp2r.asm
                     jEnd   0x01725c    program     static C:\MCC18\src\extended\stdclib\scmpp2r.asm
                   strcpy   0x01725e    program     extern C:\MCC18\src\extended\stdclib\strcpy.asm
                    jLoop   0x017286    program     static C:\MCC18\src\extended\stdclib\strcpy.asm
            strcpypgm2ram   0x0172a0    program     extern C:\MCC18\src\extended\stdclib\scpyp2r.asm
                    jLoop   0x0172c6    program     static C:\MCC18\src\extended\stdclib\scpyp2r.asm
                     jEnd   0x0172d0    program     static C:\MCC18\src\extended\stdclib\scpyp2r.asm
                   strlen   0x0172d2    program     extern C:\MCC18\src\extended\stdclib\strlen.asm
                    jLoop   0x0172e2    program     static C:\MCC18\src\extended\stdclib\strlen.asm
                     jEnd   0x0172ec    program     static C:\MCC18\src\extended\stdclib\strlen.asm
                strlenpgm   0x0172ee    program     extern C:\MCC18\src\extended\stdclib\slenpgm.asm
                    jLoop   0x01730c    program     static C:\MCC18\src\extended\stdclib\slenpgm.asm
                   _2jEnd   0x017322    program     static C:\MCC18\src\extended\stdclib\slenpgm.asm
                     jEnd   0x017324    program     static C:\MCC18\src\extended\stdclib\slenpgm.asm
                  strncat   0x017338    program     extern C:\MCC18\src\extended\stdclib\strncat.asm
                jNullLoop   0x017360    program     static C:\MCC18\src\extended\stdclib\strncat.asm
                    jLoop   0x017366    program     static C:\MCC18\src\extended\stdclib\strncat.asm
              _4jContinue   0x017372    program     static C:\MCC18\src\extended\stdclib\strncat.asm
                   _5jEnd   0x01737c    program     static C:\MCC18\src\extended\stdclib\strncat.asm
                    jTerm   0x017386    program     static C:\MCC18\src\extended\stdclib\strncat.asm
                     jEnd   0x017388    program     static C:\MCC18\src\extended\stdclib\strncat.asm
           strncmppgm2ram   0x01739a    program     extern C:\MCC18\src\extended\stdclib\sncmpp2r.asm
                    jLoop   0x0173b8    program     static C:\MCC18\src\extended\stdclib\sncmpp2r.asm
              _3jContinue   0x0173c4    program     static C:\MCC18\src\extended\stdclib\sncmpp2r.asm
                   _4jEnd   0x0173ce    program     static C:\MCC18\src\extended\stdclib\sncmpp2r.asm
                     jEnd   0x0173da    program     static C:\MCC18\src\extended\stdclib\sncmpp2r.asm
             strstrrampgm   0x0173dc    program     extern C:\MCC18\src\extended\stdclib\sstrrp.asm
               jOuterLoop   0x0173e8    program     static C:\MCC18\src\extended\stdclib\sstrrp.asm
               jInnerLoop   0x017402    program     static C:\MCC18\src\extended\stdclib\sstrrp.asm
                 jNoMatch   0x017412    program     static C:\MCC18\src\extended\stdclib\sstrrp.asm
                    jNull   0x01741c    program     static C:\MCC18\src\extended\stdclib\sstrrp.asm
                jStrMatch   0x017420    program     static C:\MCC18\src\extended\stdclib\sstrrp.asm
                   strupr   0x017422    program     extern C:\MCC18\src\extended\stdclib\strupr.asm
                    jLoop   0x017436    program     static C:\MCC18\src\extended\stdclib\strupr.asm
                    jSkip   0x017446    program     static C:\MCC18\src\extended\stdclib\strupr.asm
                     jEnd   0x01744a    program     static C:\MCC18\src\extended\stdclib\strupr.asm
                   LowISR   0x01744c    program     extern C:\Documents and Settings\Administrator\My Documents\Alarm Controller\PIC Code\MainDemo.c
                  HighISR   0x0174fc    program     extern C:\Documents and Settings\Administrator\My Documents\Alarm Controller\PIC Code\MainDemo.c
                     main   0x017504    program     extern C:\Documents and Settings\Administrator\My Documents\Alarm Controller\PIC Code\MainDemo.c
           DisplayIPValue   0x0175c6    program     extern C:\Documents and Settings\Administrator\My Documents\Alarm Controller\PIC Code\MainDemo.c
          InitializeBoard   0x01769c    program     static C:\Documents and Settings\Administrator\My Documents\Alarm Controller\PIC Code\MainDemo.c
            InitAppConfig   0x0176c8    program     static C:\Documents and Settings\Administrator\My Documents\Alarm Controller\PIC Code\MainDemo.c
            SaveAppConfig   0x0177d2    program     extern C:\Documents and Settings\Administrator\My Documents\Alarm Controller\PIC Code\MainDemo.c
                   __pa_0   0x017808    program     static C:\Documents and Settings\Administrator\My Documents\Alarm Controller\PIC Code\MainDemo.c
                   __pa_1   0x01782e    program     static C:\Documents and Settings\Administrator\My Documents\Alarm Controller\PIC Code\MainDemo.c
                   __pa_2   0x01783c    program     static C:\Documents and Settings\Administrator\My Documents\Alarm Controller\PIC Code\MainDemo.c
                   __pa_3   0x01784c    program     static C:\Documents and Settings\Administrator\My Documents\Alarm Controller\PIC Code\MainDemo.c
                   __pa_4   0x01785e    program     static C:\Documents and Settings\Administrator\My Documents\Alarm Controller\PIC Code\MainDemo.c
                   __pa_5   0x01786a    program     static C:\Documents and Settings\Administrator\My Documents\Alarm Controller\PIC Code\MainDemo.c
                   __pa_6   0x017876    program     static C:\Documents and Settings\Administrator\My Documents\Alarm Controller\PIC Code\MainDemo.c
                   __pa_7   0x017886    program     static C:\Documents and Settings\Administrator\My Documents\Alarm Controller\PIC Code\MainDemo.c
                   __pa_8   0x017896    program     static C:\Documents and Settings\Administrator\My Documents\Alarm Controller\PIC Code\MainDemo.c
                   ARPPut   0x0178a6    program     static C:\Documents and Settings\Administrator\My Documents\Alarm Controller\Microchip\TCPIP Stack\ARP.c
                  ARPInit   0x017956    program     extern C:\Documents and Settings\Administrator\My Documents\Alarm Controller\Microchip\TCPIP Stack\ARP.c
               ARPProcess   0x01796e    program     extern C:\Documents and Settings\Administrator\My Documents\Alarm Controller\Microchip\TCPIP Stack\ARP.c
               ARPResolve   0x017a9a    program     extern C:\Documents and Settings\Administrator\My Documents\Alarm Controller\Microchip\TCPIP Stack\ARP.c
            ARPIsResolved   0x017b50    program     extern C:\Documents and Settings\Administrator\My Documents\Alarm Controller\Microchip\TCPIP Stack\ARP.c
            SwapARPPacket   0x017c12    program     static C:\Documents and Settings\Administrator\My Documents\Alarm Controller\Microchip\TCPIP Stack\ARP.c
                   __pa_0   0x017c3c    program     static C:\Documents and Settings\Administrator\My Documents\Alarm Controller\Microchip\TCPIP Stack\ARP.c
                   __pa_1   0x017c46    program     static C:\Documents and Settings\Administrator\My Documents\Alarm Controller\Microchip\TCPIP Stack\ARP.c
                   __pa_2   0x017c5a    program     static C:\Documents and Settings\Administrator\My Documents\Alarm Controller\Microchip\TCPIP Stack\ARP.c
                   __pa_3   0x017c64    program     static C:\Documents and Settings\Administrator\My Documents\Alarm Controller\Microchip\TCPIP Stack\ARP.c
                   __pa_4   0x017c70    program     static C:\Documents and Settings\Administrator\My Documents\Alarm Controller\Microchip\TCPIP Stack\ARP.c
                   __pa_5   0x017c7c    program     static C:\Documents and Settings\Administrator\My Documents\Alarm Controller\Microchip\TCPIP Stack\ARP.c
                   __pa_6   0x017c84    program     static C:\Documents and Settings\Administrator\My Documents\Alarm Controller\Microchip\TCPIP Stack\ARP.c
                   __pa_7   0x017c9e    program     static C:\Documents and Settings\Administrator\My Documents\Alarm Controller\Microchip\TCPIP Stack\ARP.c
                 SETUPSTK   0x017ca6    program     static C:\MCC18\src\extended\math\div16s.asm
                 __div16s   0x017cbe    program     extern C:\MCC18\src\extended\math\div16s.asm
                 __mod16s   0x017cc4    program     extern C:\MCC18\src\extended\math\div16s.asm
                  SETSIGN   0x017cc6    program     static C:\MCC18\src\extended\math\div16s.asm
                  DA1616S   0x017cd8    program     static C:\MCC18\src\extended\math\div16s.asm
                   D1616S   0x017ce8    program     static C:\MCC18\src\extended\math\div16s.asm
                 D1616SOK   0x017cf2    program     static C:\MCC18\src\extended\math\div16s.asm
                D1616SNEG   0x017cf6    program     static C:\MCC18\src\extended\math\div16s.asm
                D1616SPOS   0x017d06    program     static C:\MCC18\src\extended\math\div16s.asm
              RETQUOTIENT   0x017d16    program     static C:\MCC18\src\extended\math\div16s.asm
                  RESTORE   0x017d1e    program     static C:\MCC18\src\extended\math\div16s.asm
                  D1616SX   0x017d2c    program     static C:\MCC18\src\extended\math\div16s.asm
                 SETUPSTK   0x017d36    program     static C:\MCC18\src\extended\math\div16u.asm
                 __div16u   0x017d4e    program     extern C:\MCC18\src\extended\math\div16u.asm
                 __mod16u   0x017d54    program     extern C:\MCC18\src\extended\math\div16u.asm
            _early16uexit   0x017d58    program     extern C:\MCC18\src\extended\math\div16u.asm
                divmod16u   0x017d5a    program     static C:\MCC18\src\extended\math\div16u.asm
                     loop   0x017d64    program     static C:\MCC18\src\extended\math\div16u.asm
                  endloop   0x017d80    program     static C:\MCC18\src\extended\math\div16u.asm
              RETQUOTIENT   0x017d98    program     static C:\MCC18\src\extended\math\div16u.asm
                  RESTORE   0x017da0    program     static C:\MCC18\src\extended\math\div16u.asm
                 SETUPSTK   0x017dae    program     static C:\MCC18\src\extended\math\div32u.asm
                 __div32u   0x017dc6    program     extern C:\MCC18\src\extended\math\div32u.asm
                 __mod32u   0x017dcc    program     extern C:\MCC18\src\extended\math\div32u.asm
            _early32uexit   0x017dd0    program     extern C:\MCC18\src\extended\math\div32u.asm
                divmod32u   0x017dd2    program     static C:\MCC18\src\extended\math\div32u.asm
                     loop   0x017de0    program     static C:\MCC18\src\extended\math\div32u.asm
                   _false   0x017e14    program     static C:\MCC18\src\extended\math\div32u.asm
              RETQUOTIENT   0x017e34    program     static C:\MCC18\src\extended\math\div32u.asm
                  RESTORE   0x017e44    program     static C:\MCC18\src\extended\math\div32u.asm
                  __mul16   0x017e52    program     extern C:\MCC18\src\extended\math\mul16.asm
                  __mul24   0x017eba    program     extern C:\MCC18\src\extended\math\mul24.asm
                  __mul32   0x017f7a    program     extern C:\MCC18\src\extended\math\mul32.asm
                 NBNSTask   0x01801c    program     extern C:\Documents and Settings\Administrator\My Documents\Alarm Controller\Microchip\TCPIP Stack\NBNS.c
              NBNSPutName   0x018262    program     static C:\Documents and Settings\Administrator\My Documents\Alarm Controller\Microchip\TCPIP Stack\NBNS.c
              NBNSGetName   0x0182a0    program     static C:\Documents and Settings\Administrator\My Documents\Alarm Controller\Microchip\TCPIP Stack\NBNS.c
                   __pa_0   0x018304    program     static C:\Documents and Settings\Administrator\My Documents\Alarm Controller\Microchip\TCPIP Stack\NBNS.c
                   __pa_1   0x018312    program     static C:\Documents and Settings\Administrator\My Documents\Alarm Controller\Microchip\TCPIP Stack\NBNS.c
                   __pa_2   0x01831a    program     static C:\Documents and Settings\Administrator\My Documents\Alarm Controller\Microchip\TCPIP Stack\NBNS.c
                   __pa_3   0x01832a    program     static C:\Documents and Settings\Administrator\My Documents\Alarm Controller\Microchip\TCPIP Stack\NBNS.c
                   __pa_4   0x018334    program     static C:\Documents and Settings\Administrator\My Documents\Alarm Controller\Microchip\TCPIP Stack\NBNS.c
                   __pa_5   0x01833c    program     static C:\Documents and Settings\Administrator\My Documents\Alarm Controller\Microchip\TCPIP Stack\NBNS.c
                   __pa_6   0x018342    program     static C:\Documents and Settings\Administrator\My Documents\Alarm Controller\Microchip\TCPIP Stack\NBNS.c
                   __pa_7   0x01834e    program     static C:\Documents and Settings\Administrator\My Documents\Alarm Controller\Microchip\TCPIP Stack\NBNS.c
                 LCDWrite   0x01835e    program     static C:\Documents and Settings\Administrator\My Documents\Alarm Controller\Microchip\TCPIP Stack\LCDBlocking.c
       ___return_lbl00000   0x018398    program     static                          
                  LCDInit   0x0183a0    program     extern C:\Documents and Settings\Administrator\My Documents\Alarm Controller\Microchip\TCPIP Stack\LCDBlocking.c
           ___do_lbl00006   0x0183d4    program     static                          
        ___while_lbl00004   0x0183da    program     static                          
        ___while_lbl00005   0x0183fc    program     static                          
           ___do_lbl00003   0x0183fc    program     static                          
           ___do_lbl00002   0x0183fc    program     static                          
          ___for_lbl00009   0x018408    program     static                          
          ___for_lbl00007   0x018426    program     static                          
          ___for_lbl00008   0x01842a    program     static                          
           ___do_lbl00014   0x018470    program     static                          
        ___while_lbl00012   0x018476    program     static                          
        ___while_lbl00013   0x018498    program     static                          
       ___return_lbl00001   0x018498    program     static                          
           ___do_lbl00011   0x018498    program     static                          
           ___do_lbl00010   0x018498    program     static                          
                LCDUpdate   0x0184a0    program     extern C:\Documents and Settings\Administrator\My Documents\Alarm Controller\Microchip\TCPIP Stack\LCDBlocking.c
                 LCDErase   0x01852c    program     extern C:\Documents and Settings\Administrator\My Documents\Alarm Controller\Microchip\TCPIP Stack\LCDBlocking.c
                   __pa_0   0x018582    program     static C:\Documents and Settings\Administrator\My Documents\Alarm Controller\Microchip\TCPIP Stack\LCDBlocking.c
                   __pa_1   0x0185a0    program     static C:\Documents and Settings\Administrator\My Documents\Alarm Controller\Microchip\TCPIP Stack\LCDBlocking.c
                   __pa_2   0x0185ac    program     static C:\Documents and Settings\Administrator\My Documents\Alarm Controller\Microchip\TCPIP Stack\LCDBlocking.c
                   __pa_3   0x0185b6    program     static C:\Documents and Settings\Administrator\My Documents\Alarm Controller\Microchip\TCPIP Stack\LCDBlocking.c
                   __pa_4   0x0185be    program     static C:\Documents and Settings\Administrator\My Documents\Alarm Controller\Microchip\TCPIP Stack\LCDBlocking.c
              IPGetHeader   0x0185ca    program     extern C:\Documents and Settings\Administrator\My Documents\Alarm Controller\Microchip\TCPIP Stack\IP.c
              IPPutHeader   0x0186ac    program     extern C:\Documents and Settings\Administrator\My Documents\Alarm Controller\Microchip\TCPIP Stack\IP.c
            IPSetRxBuffer   0x01876c    program     extern C:\Documents and Settings\Administrator\My Documents\Alarm Controller\Microchip\TCPIP Stack\IP.c
             SwapIPHeader   0x018784    program     static C:\Documents and Settings\Administrator\My Documents\Alarm Controller\Microchip\TCPIP Stack\IP.c
                   __pa_0   0x0187ae    program     static C:\Documents and Settings\Administrator\My Documents\Alarm Controller\Microchip\TCPIP Stack\IP.c
                   __pa_1   0x0187ce    program     static C:\Documents and Settings\Administrator\My Documents\Alarm Controller\Microchip\TCPIP Stack\IP.c
                   __pa_2   0x0187de    program     static C:\Documents and Settings\Administrator\My Documents\Alarm Controller\Microchip\TCPIP Stack\IP.c
                   __pa_3   0x0187f2    program     static C:\Documents and Settings\Administrator\My Documents\Alarm Controller\Microchip\TCPIP Stack\IP.c
                   __pa_4   0x018804    program     static C:\Documents and Settings\Administrator\My Documents\Alarm Controller\Microchip\TCPIP Stack\IP.c
                   __pa_5   0x01880e    program     static C:\Documents and Settings\Administrator\My Documents\Alarm Controller\Microchip\TCPIP Stack\IP.c
                   __pa_6   0x01881a    program     static C:\Documents and Settings\Administrator\My Documents\Alarm Controller\Microchip\TCPIP Stack\IP.c
                  XEEInit   0x018824    program     extern C:\Documents and Settings\Administrator\My Documents\Alarm Controller\Microchip\TCPIP Stack\SPIEEPROM.c
             XEEBeginRead   0x01883a    program     extern C:\Documents and Settings\Administrator\My Documents\Alarm Controller\Microchip\TCPIP Stack\SPIEEPROM.c
                  XEERead   0x018846    program     extern C:\Documents and Settings\Administrator\My Documents\Alarm Controller\Microchip\TCPIP Stack\SPIEEPROM.c
               XEEEndRead   0x01887e    program     extern C:\Documents and Settings\Administrator\My Documents\Alarm Controller\Microchip\TCPIP Stack\SPIEEPROM.c
             XEEReadArray   0x018880    program     extern C:\Documents and Settings\Administrator\My Documents\Alarm Controller\Microchip\TCPIP Stack\SPIEEPROM.c
            XEEBeginWrite   0x0188f2    program     extern C:\Documents and Settings\Administrator\My Documents\Alarm Controller\Microchip\TCPIP Stack\SPIEEPROM.c
                 XEEWrite   0x0188f8    program     extern C:\Documents and Settings\Administrator\My Documents\Alarm Controller\Microchip\TCPIP Stack\SPIEEPROM.c
              XEEEndWrite   0x018914    program     extern C:\Documents and Settings\Administrator\My Documents\Alarm Controller\Microchip\TCPIP Stack\SPIEEPROM.c
                  DoWrite   0x018926    program     static C:\Documents and Settings\Administrator\My Documents\Alarm Controller\Microchip\TCPIP Stack\SPIEEPROM.c
                XEEIsBusy   0x0189b0    program     extern C:\Documents and Settings\Administrator\My Documents\Alarm Controller\Microchip\TCPIP Stack\SPIEEPROM.c
                   __pa_0   0x0189ee    program     static C:\Documents and Settings\Administrator\My Documents\Alarm Controller\Microchip\TCPIP Stack\SPIEEPROM.c
                   __pa_1   0x018a06    program     static C:\Documents and Settings\Administrator\My Documents\Alarm Controller\Microchip\TCPIP Stack\SPIEEPROM.c
                   __pa_2   0x018a16    program     static C:\Documents and Settings\Administrator\My Documents\Alarm Controller\Microchip\TCPIP Stack\SPIEEPROM.c
                   __pa_3   0x018a26    program     static C:\Documents and Settings\Administrator\My Documents\Alarm Controller\Microchip\TCPIP Stack\SPIEEPROM.c
                   __pa_4   0x018a30    program     static C:\Documents and Settings\Administrator\My Documents\Alarm Controller\Microchip\TCPIP Stack\SPIEEPROM.c
                   __pa_5   0x018a38    program     static C:\Documents and Settings\Administrator\My Documents\Alarm Controller\Microchip\TCPIP Stack\SPIEEPROM.c
                   __pa_6   0x018a42    program     static C:\Documents and Settings\Administrator\My Documents\Alarm Controller\Microchip\TCPIP Stack\SPIEEPROM.c
           ReadStringUART   0x018a4c    program     extern C:\Documents and Settings\Administrator\My Documents\Alarm Controller\Microchip\TCPIP Stack\UART.c
                BusyUSART   0x018a90    program     extern C:\Documents and Settings\Administrator\My Documents\Alarm Controller\Microchip\TCPIP Stack\UART.c
               CloseUSART   0x018a9c    program     extern C:\Documents and Settings\Administrator\My Documents\Alarm Controller\Microchip\TCPIP Stack\UART.c
             DataRdyUSART   0x018aa8    program     extern C:\Documents and Settings\Administrator\My Documents\Alarm Controller\Microchip\TCPIP Stack\UART.c
                ReadUSART   0x018aba    program     extern C:\Documents and Settings\Administrator\My Documents\Alarm Controller\Microchip\TCPIP Stack\UART.c
               WriteUSART   0x018abe    program     extern C:\Documents and Settings\Administrator\My Documents\Alarm Controller\Microchip\TCPIP Stack\UART.c
                getsUSART   0x018ac8    program     extern C:\Documents and Settings\Administrator\My Documents\Alarm Controller\Microchip\TCPIP Stack\UART.c
                putsUSART   0x018af8    program     extern C:\Documents and Settings\Administrator\My Documents\Alarm Controller\Microchip\TCPIP Stack\UART.c
               putrsUSART   0x018b26    program     extern C:\Documents and Settings\Administrator\My Documents\Alarm Controller\Microchip\TCPIP Stack\UART.c
                   __pa_0   0x018b6a    program     static C:\Documents and Settings\Administrator\My Documents\Alarm Controller\Microchip\TCPIP Stack\UART.c
                   __pa_1   0x018b74    program     static C:\Documents and Settings\Administrator\My Documents\Alarm Controller\Microchip\TCPIP Stack\UART.c
                   __pa_2   0x018b7e    program     static C:\Documents and Settings\Administrator\My Documents\Alarm Controller\Microchip\TCPIP Stack\UART.c
                 TickInit   0x018b86    program     extern C:\Documents and Settings\Administrator\My Documents\Alarm Controller\Microchip\TCPIP Stack\Tick.c
              GetTickCopy   0x018b96    program     static C:\Documents and Settings\Administrator\My Documents\Alarm Controller\Microchip\TCPIP Stack\Tick.c
           ___do_lbl00004   0x018b96    program     static                          
           ___do_lbl00002   0x018bb4    program     static                          
           ___do_lbl00003   0x018bb8    program     static                          
       ___return_lbl00001   0x018bba    program     static                          
                  TickGet   0x018bbc    program     extern C:\Documents and Settings\Administrator\My Documents\Alarm Controller\Microchip\TCPIP Stack\Tick.c
            TickGetDiv256   0x018bd0    program     extern C:\Documents and Settings\Administrator\My Documents\Alarm Controller\Microchip\TCPIP Stack\Tick.c
            TickGetDiv64K   0x018be4    program     extern C:\Documents and Settings\Administrator\My Documents\Alarm Controller\Microchip\TCPIP Stack\Tick.c
TickConvertToMilliseconds   0x018bf8    program     extern C:\Documents and Settings\Administrator\My Documents\Alarm Controller\Microchip\TCPIP Stack\Tick.c
               TickUpdate   0x018c68    program     extern C:\Documents and Settings\Administrator\My Documents\Alarm Controller\Microchip\TCPIP Stack\Tick.c
                   __pa_0   0x018c7c    program     static C:\Documents and Settings\Administrator\My Documents\Alarm Controller\Microchip\TCPIP Stack\Tick.c
                   __pa_1   0x018c96    program     static C:\Documents and Settings\Administrator\My Documents\Alarm Controller\Microchip\TCPIP Stack\Tick.c
                StackInit   0x018ca6    program     extern C:\Documents and Settings\Administrator\My Documents\Alarm Controller\Microchip\TCPIP Stack\StackTsk.c
                StackTask   0x018ce0    program     extern C:\Documents and Settings\Administrator\My Documents\Alarm Controller\Microchip\TCPIP Stack\StackTsk.c
        StackApplications   0x018d70    program     extern C:\Documents and Settings\Administrator\My Documents\Alarm Controller\Microchip\TCPIP Stack\StackTsk.c
                   __pa_0   0x018d80    program     static C:\Documents and Settings\Administrator\My Documents\Alarm Controller\Microchip\TCPIP Stack\StackTsk.c
                   __pa_1   0x018d90    program     static C:\Documents and Settings\Administrator\My Documents\Alarm Controller\Microchip\TCPIP Stack\StackTsk.c
              Delay1KTCYx   0x018da0    program     extern C:\MCC18\src\extended\delays\d1ktcyx.asm
                     D1Kx   0x018dac    program     static C:\MCC18\src\extended\delays\d1ktcyx.asm
                    D1K_1   0x018dae    program     static C:\MCC18\src\extended\delays\d1ktcyx.asm
        _D1KTCYXCODE_0012   0x018db2    program     static C:\MCC18\src\extended\delays\d1ktcyx.asm
        _D1KTCYXCODE_0018   0x018db8    program     static C:\MCC18\src\extended\delays\d1ktcyx.asm
                 _startup   0x018dc0    program     extern C:\MCC18\src\extended\startup\c018i_e.c
                     loop   0x018dce    program     static                          
       ___return_lbl00001   0x018dd8    program     static                          
              Delay10TCYx   0x018dda    program     extern C:\MCC18\src\extended\delays\d10tcyx.asm
                     D10x   0x018de2    program     static C:\MCC18\src\extended\delays\d10tcyx.asm
        _D10TCYXCODE_000A   0x018de4    program     static C:\MCC18\src\extended\delays\d10tcyx.asm
        _D10TCYXCODE_000C   0x018de6    program     static C:\MCC18\src\extended\delays\d10tcyx.asm
        _D10TCYXCODE_000E   0x018de8    program     static C:\MCC18\src\extended\delays\d10tcyx.asm
                    D10_1   0x018dea    program     static C:\MCC18\src\extended\delays\d10tcyx.asm
         xPL_My_Vendor_ID   0x018df0    program     static C:\Documents and Settings\Administrator\My Documents\Alarm Controller\PIC Code\xPL.c
         xPL_My_Device_ID   0x018df5    program     static C:\Documents and Settings\Administrator\My Documents\Alarm Controller\PIC Code\xPL.c
Default_xPL_My_Instance_ID   0x018df9    program     extern C:\Documents and Settings\Administrator\My Documents\Alarm Controller\PIC Code\xPL.c
     TCPSocketInitializer   0x018e02    program     extern C:\Documents and Settings\Administrator\My Documents\Alarm Controller\PIC Code\TCPIPConfig.h
            __zero_memory   0x018e14    program     extern C:\MCC18\src\extended\proc\p18F97J60.asm
               clear_loop   0x018e1a    program     static C:\MCC18\src\extended\proc\p18F97J60.asm
                HTTP_CRLF   0x018e22    program     static C:\Documents and Settings\Administrator\My Documents\Alarm Controller\Microchip\TCPIP Stack\HTTP2.c
                   __init   0x018e26    program     extern C:\MCC18\src\extended\stdclib\__init.c
  HTTPPrint_VoltageSupply   0x01fcc2    program     extern C:\Documents and Settings\Administrator\My Documents\Alarm Controller\PIC Code\Battery.c
 HTTPPrint_VoltageBattery   0x01fcce    program     extern C:\Documents and Settings\Administrator\My Documents\Alarm Controller\PIC Code\Battery.c
  HTTPPrint_BatteryStatus   0x01fcda    program     extern C:\Documents and Settings\Administrator\My Documents\Alarm Controller\PIC Code\Battery.c
                 FetchADC   0x01fd88    program     extern C:\Documents and Settings\Administrator\My Documents\Alarm Controller\PIC Code\Battery.c
              BatteryTask   0x01fe12    program     extern C:\Documents and Settings\Administrator\My Documents\Alarm Controller\PIC Code\Battery.c
                   __pa_0   0x01fea2    program     static C:\Documents and Settings\Administrator\My Documents\Alarm Controller\PIC Code\Battery.c
                   __pa_1   0x01feca    program     static C:\Documents and Settings\Administrator\My Documents\Alarm Controller\PIC Code\Battery.c
                   __pa_2   0x01fef2    program     static C:\Documents and Settings\Administrator\My Documents\Alarm Controller\PIC Code\Battery.c
                   __pa_3   0x01fefc    program     static C:\Documents and Settings\Administrator\My Documents\Alarm Controller\PIC Code\Battery.c
                   __pa_4   0x01ff1a    program     static C:\Documents and Settings\Administrator\My Documents\Alarm Controller\PIC Code\Battery.c
                   __pa_5   0x01ff26    program     static C:\Documents and Settings\Administrator\My Documents\Alarm Controller\PIC Code\Battery.c
                _do_cinit   0x01ff30    program     extern C:\MCC18\src\extended\startup\c018i_e.c
                     test   0x01ff4a    program     static                          
                copy_loop   0x01ffa2    program     static                          
            copy_one_byte   0x01ffa8    program     static                          
             done_copying   0x01ffb6    program     static                          
                     done   0x01ffcc    program     static                          
       ___return_lbl00002   0x01ffcc    program     static                          
                  isdigit   0x01ffce    program     extern C:\MCC18\src\extended\stdclib\isdigit.asm
                   jMatch   0x01ffee    program     static C:\MCC18\src\extended\stdclib\isdigit.asm
                 jNoMatch   0x01fff0    program     static C:\MCC18\src\extended\stdclib\isdigit.asm
     SerializedMACAddress   0x01fff2    program     static C:\Documents and Settings\Administrator\My Documents\Alarm Controller\PIC Code\MainDemo.c
               __config_0   0x01fff8    program     static C:\Documents and Settings\Administrator\My Documents\Alarm Controller\PIC Code\MainDemo.c
               __config_1   0x01fffa    program     static C:\Documents and Settings\Administrator\My Documents\Alarm Controller\PIC Code\MainDemo.c
               __config_2   0x01fffd    program     static C:\Documents and Settings\Administrator\My Documents\Alarm Controller\PIC Code\MainDemo.c
                MPFSStubs   0x000000       data     static C:\Documents and Settings\Administrator\My Documents\Alarm Controller\Microchip\TCPIP Stack\MPFS2.c
             isMPFSLocked   0x00003c       data     static C:\Documents and Settings\Administrator\My Documents\Alarm Controller\Microchip\TCPIP Stack\MPFS2.c
                 fatCache   0x00003d       data     static C:\Documents and Settings\Administrator\My Documents\Alarm Controller\Microchip\TCPIP Stack\MPFS2.c
               fatCacheID   0x000053       data     static C:\Documents and Settings\Administrator\My Documents\Alarm Controller\Microchip\TCPIP Stack\MPFS2.c
                 numFiles   0x000055       data     static C:\Documents and Settings\Administrator\My Documents\Alarm Controller\Microchip\TCPIP Stack\MPFS2.c
                 lastRead   0x000057       data     extern C:\Documents and Settings\Administrator\My Documents\Alarm Controller\Microchip\TCPIP Stack\MPFS2.c
             BatteryState   0x00005b       data     extern C:\Documents and Settings\Administrator\My Documents\Alarm Controller\PIC Code\Battery.c
           VoltageBattery   0x00005c       data     extern C:\Documents and Settings\Administrator\My Documents\Alarm Controller\PIC Code\Battery.c
            VoltageSupply   0x00005e       data     extern C:\Documents and Settings\Administrator\My Documents\Alarm Controller\PIC Code\Battery.c
              xPLTaskList   0x000060       data     extern C:\Documents and Settings\Administrator\My Documents\Alarm Controller\PIC Code\SecuritySystem.c
       NextPacketLocation   0x0000f8       data     static C:\Documents and Settings\Administrator\My Documents\Alarm Controller\Microchip\TCPIP Stack\ETH97J60.c
    CurrentPacketLocation   0x0000fa       data     static C:\Documents and Settings\Administrator\My Documents\Alarm Controller\Microchip\TCPIP Stack\ETH97J60.c
             WasDiscarded   0x0000fc       data     static C:\Documents and Settings\Administrator\My Documents\Alarm Controller\Microchip\TCPIP Stack\ETH97J60.c
              wTXWatchdog   0x0000fd       data     static C:\Documents and Settings\Administrator\My Documents\Alarm Controller\Microchip\TCPIP Stack\ETH97J60.c
            DelayCounter1   0x0000ff       data     extern C:\MCC18\src\extended\delays\delayd1.asm
                xPLMsgKey   0x000100       data     extern C:\Documents and Settings\Administrator\My Documents\Alarm Controller\PIC Code\xPL.c
              xPLMsgValue   0x000110       data     extern C:\Documents and Settings\Administrator\My Documents\Alarm Controller\PIC Code\xPL.c
            xPLConfiguerd   0x000190       data     extern C:\Documents and Settings\Administrator\My Documents\Alarm Controller\PIC Code\xPL.c
xPLHeartbeatIntervalCount   0x000192       data     extern C:\Documents and Settings\Administrator\My Documents\Alarm Controller\PIC Code\xPL.c
    xPLNotConfiguredTimer   0x000196       data     extern C:\Documents and Settings\Administrator\My Documents\Alarm Controller\PIC Code\xPL.c
       xPLReceivedMessage   0x00019a       data     extern C:\Documents and Settings\Administrator\My Documents\Alarm Controller\PIC Code\xPL.c
                 SYNQueue   0x0001c1       data     static C:\Documents and Settings\Administrator\My Documents\Alarm Controller\Microchip\TCPIP Stack\TCP.c
                 MySocket   0x0001fd       data     static C:\Documents and Settings\Administrator\My Documents\Alarm Controller\Microchip\TCPIP Stack\DNS.c
                    Flags   0x0001fe       data     static C:\Documents and Settings\Administrator\My Documents\Alarm Controller\Microchip\TCPIP Stack\DNS.c
                    smDNS   0x0001ff       data     static C:\Documents and Settings\Administrator\My Documents\Alarm Controller\Microchip\TCPIP Stack\DNS.c
               ZoneConfig   0x000200       data     extern C:\Documents and Settings\Administrator\My Documents\Alarm Controller\PIC Code\SecuritySystem.c
                 TCBStubs   0x000290       data     static C:\Documents and Settings\Administrator\My Documents\Alarm Controller\Microchip\TCPIP Stack\TCP.c
               AreaConfig   0x0002e4       data     extern C:\Documents and Settings\Administrator\My Documents\Alarm Controller\PIC Code\SecuritySystem.c
               DebugTimer   0x0002fc       data     static C:\Documents and Settings\Administrator\My Documents\Alarm Controller\PIC Code\SecuritySystem.c
                     Seed   0x0002fe       data     static C:\MCC18\src\extended\stdclib\rand.asm
                  curHTTP   0x000300       data     extern C:\Documents and Settings\Administrator\My Documents\Alarm Controller\Microchip\TCPIP Stack\HTTP2.c
                httpStubs   0x00037f       data     extern C:\Documents and Settings\Administrator\My Documents\Alarm Controller\Microchip\TCPIP Stack\HTTP2.c
                curHTTPID   0x000383       data     extern C:\Documents and Settings\Administrator\My Documents\Alarm Controller\Microchip\TCPIP Stack\HTTP2.c
       httpFileExtensions   0x000384       data     static C:\Documents and Settings\Administrator\My Documents\Alarm Controller\Microchip\TCPIP Stack\HTTP2.c
         httpContentTypes   0x0003a8       data     static C:\Documents and Settings\Administrator\My Documents\Alarm Controller\Microchip\TCPIP Stack\HTTP2.c
      HTTPResponseHeaders   0x0003cc       data     static C:\Documents and Settings\Administrator\My Documents\Alarm Controller\Microchip\TCPIP Stack\HTTP2.c
       HTTPRequestHeaders   0x0003f3       data     static C:\Documents and Settings\Administrator\My Documents\Alarm Controller\Microchip\TCPIP Stack\HTTP2.c
                __RETVAL0   0x0003fc       data     extern C:\MCC18\src\extended\math\cmath18.asm
                __RETVAL1   0x0003fd       data     extern C:\MCC18\src\extended\math\cmath18.asm
                __RETVAL2   0x0003fe       data     extern C:\MCC18\src\extended\math\cmath18.asm
                __RETVAL3   0x0003ff       data     extern C:\MCC18\src\extended\math\cmath18.asm
            UDPSocketInfo   0x000400       data     extern C:\Documents and Settings\Administrator\My Documents\Alarm Controller\Microchip\TCPIP Stack\UDP.c
          activeUDPSocket   0x000446       data     extern C:\Documents and Settings\Administrator\My Documents\Alarm Controller\Microchip\TCPIP Stack\UDP.c
               UDPTxCount   0x000447       data     extern C:\Documents and Settings\Administrator\My Documents\Alarm Controller\Microchip\TCPIP Stack\UDP.c
               UDPRxCount   0x000449       data     extern C:\Documents and Settings\Administrator\My Documents\Alarm Controller\Microchip\TCPIP Stack\UDP.c
               wPutOffset   0x00044b       data     static C:\Documents and Settings\Administrator\My Documents\Alarm Controller\Microchip\TCPIP Stack\UDP.c
               wGetOffset   0x00044d       data     static C:\Documents and Settings\Administrator\My Documents\Alarm Controller\Microchip\TCPIP Stack\UDP.c
                    Flags   0x00044f       data     static C:\Documents and Settings\Administrator\My Documents\Alarm Controller\Microchip\TCPIP Stack\UDP.c
                 NextPort   0x000450       data     static C:\Documents and Settings\Administrator\My Documents\Alarm Controller\Microchip\TCPIP Stack\UDP.c
       xPLmessageTypeText   0x000452       data     static C:\Documents and Settings\Administrator\My Documents\Alarm Controller\PIC Code\xPL.c
         xPLHeaderKeyText   0x00045b       data     static C:\Documents and Settings\Administrator\My Documents\Alarm Controller\PIC Code\xPL.c
       xPLschemaClassText   0x000467       data     static C:\Documents and Settings\Administrator\My Documents\Alarm Controller\PIC Code\xPL.c
        xPLschemaTypeText   0x000470       data     static C:\Documents and Settings\Administrator\My Documents\Alarm Controller\PIC Code\xPL.c
                XPLSocket   0x0004a3       data     extern C:\Documents and Settings\Administrator\My Documents\Alarm Controller\PIC Code\xPL.c
                 NextPort   0x0004a4       data     static C:\Documents and Settings\Administrator\My Documents\Alarm Controller\Microchip\TCPIP Stack\TCP.c
                    MyTCB   0x0004a6       data     static C:\Documents and Settings\Administrator\My Documents\Alarm Controller\Microchip\TCPIP Stack\TCP.c
                MyTCBStub   0x0004cb       data     static C:\Documents and Settings\Administrator\My Documents\Alarm Controller\Microchip\TCPIP Stack\TCP.c
               RemoteInfo   0x0004e7       data     static C:\Documents and Settings\Administrator\My Documents\Alarm Controller\Microchip\TCPIP Stack\TCP.c
        BatteryStatesText   0x0004f3       data     extern C:\Documents and Settings\Administrator\My Documents\Alarm Controller\PIC Code\Battery.c
                 MySocket   0x0004ff       data     static C:\Documents and Settings\Administrator\My Documents\Alarm Controller\Microchip\TCPIP Stack\NBNS.c
                AppConfig   0x000500       data     extern C:\Documents and Settings\Administrator\My Documents\Alarm Controller\PIC Code\MainDemo.c
                AN0String   0x000533       data     extern C:\Documents and Settings\Administrator\My Documents\Alarm Controller\PIC Code\MainDemo.c
               AlarmState   0x00053b       data     extern C:\Documents and Settings\Administrator\My Documents\Alarm Controller\PIC Code\SecuritySystem.c
       PreviousAlarmState   0x00053c       data     extern C:\Documents and Settings\Administrator\My Documents\Alarm Controller\PIC Code\SecuritySystem.c
               EntryTimer   0x00053d       data     extern C:\Documents and Settings\Administrator\My Documents\Alarm Controller\PIC Code\SecuritySystem.c
       TriggeredEntryZone   0x000541       data     extern C:\Documents and Settings\Administrator\My Documents\Alarm Controller\PIC Code\SecuritySystem.c
                ExitTimer   0x000545       data     extern C:\Documents and Settings\Administrator\My Documents\Alarm Controller\PIC Code\SecuritySystem.c
       NextZoneCheckDelay   0x000549       data     extern C:\Documents and Settings\Administrator\My Documents\Alarm Controller\PIC Code\SecuritySystem.c
            AlarmingTimer   0x00054d       data     extern C:\Documents and Settings\Administrator\My Documents\Alarm Controller\PIC Code\SecuritySystem.c
               SirenTimer   0x000551       data     extern C:\Documents and Settings\Administrator\My Documents\Alarm Controller\PIC Code\SecuritySystem.c
                   iCount   0x000555       data     extern C:\Documents and Settings\Administrator\My Documents\Alarm Controller\PIC Code\SecuritySystem.c
                  i2Count   0x000557       data     extern C:\Documents and Settings\Administrator\My Documents\Alarm Controller\PIC Code\SecuritySystem.c
                   UserID   0x000559       data     extern C:\Documents and Settings\Administrator\My Documents\Alarm Controller\PIC Code\SecuritySystem.c
          LastZoneAlarmed   0x000563       data     extern C:\Documents and Settings\Administrator\My Documents\Alarm Controller\PIC Code\SecuritySystem.c
         RejectedPassword   0x000565       data     extern C:\Documents and Settings\Administrator\My Documents\Alarm Controller\PIC Code\Authenticate.c
            EEPROMAddress   0x00058d       data     static C:\Documents and Settings\Administrator\My Documents\Alarm Controller\Microchip\TCPIP Stack\SPIEEPROM.c
             EEPROMBuffer   0x000591       data     static C:\Documents and Settings\Administrator\My Documents\Alarm Controller\Microchip\TCPIP Stack\SPIEEPROM.c
          EEPROMBufferPtr   0x0005b1       data     static C:\Documents and Settings\Administrator\My Documents\Alarm Controller\Microchip\TCPIP Stack\SPIEEPROM.c
                  LCDText   0x0005b3       data     extern C:\Documents and Settings\Administrator\My Documents\Alarm Controller\Microchip\TCPIP Stack\LCDBlocking.c
                  __tmp_0   0x0005d4       data     static C:\Documents and Settings\Administrator\My Documents\Alarm Controller\PIC Code\xPL.c
                  __tmp_0   0x0005d4       data     static C:\Documents and Settings\Administrator\My Documents\Alarm Controller\Microchip\TCPIP Stack\SMTP.c
                  __tmp_0   0x0005d4       data     static C:\Documents and Settings\Administrator\My Documents\Alarm Controller\Microchip\TCPIP Stack\NBNS.c
                  __tmp_0   0x0005d4       data     static C:\Documents and Settings\Administrator\My Documents\Alarm Controller\Microchip\TCPIP Stack\MPFS2.c
                  __tmp_0   0x0005d4       data     static C:\Documents and Settings\Administrator\My Documents\Alarm Controller\PIC Code\SMTP.c
                  __tmp_0   0x0005d4       data     static C:\Documents and Settings\Administrator\My Documents\Alarm Controller\Microchip\TCPIP Stack\HTTP2.c
                  __tmp_0   0x0005d4       data     static C:\Documents and Settings\Administrator\My Documents\Alarm Controller\PIC Code\HTTPForms.c
                  __tmp_0   0x0005d4       data     static C:\Documents and Settings\Administrator\My Documents\Alarm Controller\PIC Code\SecurityXPLSender.c
                  __tmp_0   0x0005d4       data     static C:\Documents and Settings\Administrator\My Documents\Alarm Controller\PIC Code\Authenticate.c
                  __tmp_0   0x0005d4       data     static C:\Documents and Settings\Administrator\My Documents\Alarm Controller\PIC Code\SecuritySystem.c
                  __tmp_0   0x0005d4       data     static C:\Documents and Settings\Administrator\My Documents\Alarm Controller\PIC Code\HTTPDynVariables.c
                  __tmp_0   0x0005d4       data     static C:\Documents and Settings\Administrator\My Documents\Alarm Controller\Microchip\TCPIP Stack\IP.c
                  __tmp_0   0x0005d4       data     static C:\Documents and Settings\Administrator\My Documents\Alarm Controller\Microchip\TCPIP Stack\LCDBlocking.c
                  __tmp_0   0x0005d4       data     static C:\Documents and Settings\Administrator\My Documents\Alarm Controller\Microchip\TCPIP Stack\UDP.c
                  __tmp_0   0x0005d4       data     static C:\Documents and Settings\Administrator\My Documents\Alarm Controller\Microchip\TCPIP Stack\ARP.c
                  __tmp_0   0x0005d4       data     static C:\Documents and Settings\Administrator\My Documents\Alarm Controller\Microchip\TCPIP Stack\Tick.c
                  __tmp_0   0x0005d4       data     static C:\Documents and Settings\Administrator\My Documents\Alarm Controller\Microchip\TCPIP Stack\DNS.c
                  __tmp_0   0x0005d4       data     static C:\Documents and Settings\Administrator\My Documents\Alarm Controller\PIC Code\MainDemo.c
                  __tmp_0   0x0005d4       data     static C:\Documents and Settings\Administrator\My Documents\Alarm Controller\Microchip\TCPIP Stack\ETH97J60.c
                  __tmp_0   0x0005d4       data     static C:\Documents and Settings\Administrator\My Documents\Alarm Controller\PIC Code\SNTP Customised.c
                  __tmp_0   0x0005d4       data     static C:\Documents and Settings\Administrator\My Documents\Alarm Controller\PIC Code\AES.c
                  __tmp_0   0x0005d4       data     static C:\Documents and Settings\Administrator\My Documents\Alarm Controller\Microchip\TCPIP Stack\TCP.c
                  __tmp_0   0x0005d4       data     static C:\Documents and Settings\Administrator\My Documents\Alarm Controller\Microchip\TCPIP Stack\StackTsk.c
                  __tmp_0   0x0005d4       data     static C:\Documents and Settings\Administrator\My Documents\Alarm Controller\Microchip\TCPIP Stack\Helpers.c
                  __tmp_0   0x0005d4       data     static C:\Documents and Settings\Administrator\My Documents\Alarm Controller\Microchip\TCPIP Stack\SPIEEPROM.c
                  __tmp_0   0x0005d4       data     static C:\Documents and Settings\Administrator\My Documents\Alarm Controller\PIC Code\EOL.c
                  __tmp_0   0x0005d4       data     static C:\Documents and Settings\Administrator\My Documents\Alarm Controller\PIC Code\Battery.c
                  smStack   0x0005f3       data     static C:\Documents and Settings\Administrator\My Documents\Alarm Controller\Microchip\TCPIP Stack\StackTsk.c
               remoteNode   0x0005f4       data     extern C:\Documents and Settings\Administrator\My Documents\Alarm Controller\Microchip\TCPIP Stack\StackTsk.c
            _roundCounter   0x0005fe       data     static C:\Documents and Settings\Administrator\My Documents\Alarm Controller\PIC Code\AES.c
                    _rcon   0x0005ff       data     static C:\Documents and Settings\Administrator\My Documents\Alarm Controller\PIC Code\AES.c
              lastSuccess   0x000600       data     extern C:\Documents and Settings\Administrator\My Documents\Alarm Controller\PIC Code\HTTPDynVariables.c
              lastFailure   0x000602       data     extern C:\Documents and Settings\Administrator\My Documents\Alarm Controller\PIC Code\HTTPDynVariables.c
          AlarmStatesText   0x000604       data     extern C:\Documents and Settings\Administrator\My Documents\Alarm Controller\PIC Code\HTTPDynVariables.c
         dwLastUpdateTick   0x000619       data     extern C:\Documents and Settings\Administrator\My Documents\Alarm Controller\PIC Code\SNTP Customised.c
          NTPTestResponse   0x00061d       data     extern C:\Documents and Settings\Administrator\My Documents\Alarm Controller\PIC Code\SNTP Customised.c
                SNTPState   0x00061f       data     extern C:\Documents and Settings\Administrator\My Documents\Alarm Controller\PIC Code\SNTP Customised.c
                   Server   0x000620       data     static C:\Documents and Settings\Administrator\My Documents\Alarm Controller\PIC Code\SNTP Customised.c
               NTPdwTimer   0x00062a       data     static C:\Documents and Settings\Administrator\My Documents\Alarm Controller\PIC Code\SNTP Customised.c
                 MySocket   0x00062e       data     static C:\Documents and Settings\Administrator\My Documents\Alarm Controller\PIC Code\SNTP Customised.c
              DNSHostName   0x00062f       data     static C:\Documents and Settings\Administrator\My Documents\Alarm Controller\Microchip\TCPIP Stack\DNS.c
           DNSHostNameROM   0x000631       data     static C:\Documents and Settings\Administrator\My Documents\Alarm Controller\Microchip\TCPIP Stack\DNS.c
               RecordType   0x000634       data     static C:\Documents and Settings\Administrator\My Documents\Alarm Controller\Microchip\TCPIP Stack\DNS.c
             ResolvedInfo   0x000635       data     static C:\Documents and Settings\Administrator\My Documents\Alarm Controller\Microchip\TCPIP Stack\DNS.c
                StartTime   0x00063f       data     static C:\Documents and Settings\Administrator\My Documents\Alarm Controller\Microchip\TCPIP Stack\DNS.c
        SentTransactionID   0x000643       data     static C:\Documents and Settings\Administrator\My Documents\Alarm Controller\Microchip\TCPIP Stack\DNS.c
                    Cache   0x000645       data     static C:\Documents and Settings\Administrator\My Documents\Alarm Controller\Microchip\TCPIP Stack\ARP.c
                   Target   0x00064f       data     static C:\Documents and Settings\Administrator\My Documents\Alarm Controller\Microchip\TCPIP Stack\ARP.c
                      _iA   0x000659       data     extern C:\Documents and Settings\Administrator\My Documents\Alarm Controller\Microchip\TCPIP Stack\BigInt_helper.asm
                      _xA   0x00065b       data     extern C:\Documents and Settings\Administrator\My Documents\Alarm Controller\Microchip\TCPIP Stack\BigInt_helper.asm
                      _iB   0x00065d       data     extern C:\Documents and Settings\Administrator\My Documents\Alarm Controller\Microchip\TCPIP Stack\BigInt_helper.asm
                      _xB   0x00065f       data     extern C:\Documents and Settings\Administrator\My Documents\Alarm Controller\Microchip\TCPIP Stack\BigInt_helper.asm
                     _iBr   0x000661       data     extern C:\Documents and Settings\Administrator\My Documents\Alarm Controller\Microchip\TCPIP Stack\BigInt_helper.asm
                     _xBr   0x000664       data     extern C:\Documents and Settings\Administrator\My Documents\Alarm Controller\Microchip\TCPIP Stack\BigInt_helper.asm
                      _iR   0x000667       data     extern C:\Documents and Settings\Administrator\My Documents\Alarm Controller\Microchip\TCPIP Stack\BigInt_helper.asm
                      _wC   0x000669       data     extern C:\Documents and Settings\Administrator\My Documents\Alarm Controller\Microchip\TCPIP Stack\BigInt_helper.asm
                CarryByte   0x00066a       data     static C:\Documents and Settings\Administrator\My Documents\Alarm Controller\Microchip\TCPIP Stack\BigInt_helper.asm
                   CarryH   0x00066b       data     static C:\Documents and Settings\Administrator\My Documents\Alarm Controller\Microchip\TCPIP Stack\BigInt_helper.asm
                 MySocket   0x00066c       data     static C:\Documents and Settings\Administrator\My Documents\Alarm Controller\Microchip\TCPIP Stack\SMTP.c
           TransportState   0x00066d       data     static C:\Documents and Settings\Administrator\My Documents\Alarm Controller\Microchip\TCPIP Stack\SMTP.c
                SMTPFlags   0x00066e       data     static C:\Documents and Settings\Administrator\My Documents\Alarm Controller\Microchip\TCPIP Stack\SMTP.c
      WhenToSendEmailText   0x00066f       data     static C:\Documents and Settings\Administrator\My Documents\Alarm Controller\PIC Code\SMTP.c
             vTickReading   0x00067e       data     static C:\Documents and Settings\Administrator\My Documents\Alarm Controller\Microchip\TCPIP Stack\Tick.c
               Tempdigits   0x000684       data     static C:\Documents and Settings\Administrator\My Documents\Alarm Controller\PIC Code\HTTPDynVariables.c
          dwInternalTicks   0x000688       data     static C:\Documents and Settings\Administrator\My Documents\Alarm Controller\Microchip\TCPIP Stack\Tick.c
            dwSNTPSeconds   0x00068c       data     extern C:\Documents and Settings\Administrator\My Documents\Alarm Controller\PIC Code\SNTP Customised.c
            LastPutSocket   0x000690       data     static C:\Documents and Settings\Administrator\My Documents\Alarm Controller\Microchip\TCPIP Stack\UDP.c
         SocketWithRxData   0x000691       data     static C:\Documents and Settings\Administrator\My Documents\Alarm Controller\Microchip\TCPIP Stack\UDP.c
              hCurrentTCP   0x000692       data     static C:\Documents and Settings\Administrator\My Documents\Alarm Controller\Microchip\TCPIP Stack\TCP.c
                 hLastTCB   0x000693       data     static C:\Documents and Settings\Administrator\My Documents\Alarm Controller\Microchip\TCPIP Stack\TCP.c
              _Identifier   0x000694       data     static C:\Documents and Settings\Administrator\My Documents\Alarm Controller\Microchip\TCPIP Stack\IP.c
                   smNBNS   0x000696       data     static C:\Documents and Settings\Administrator\My Documents\Alarm Controller\Microchip\TCPIP Stack\NBNS.c
                    smARP   0x000697       data     static C:\Documents and Settings\Administrator\My Documents\Alarm Controller\Microchip\TCPIP Stack\ARP.c
                xPLConfig   0x000d00       data     extern C:\Documents and Settings\Administrator\My Documents\Alarm Controller\PIC Code\SecuritySystem.c
                     prom   0x000de6       data     static C:\MCC18\src\extended\startup\c018i_e.c
                curr_byte   0x000de9       data     static C:\MCC18\src\extended\startup\c018i_e.c
               curr_entry   0x000deb       data     static C:\MCC18\src\extended\startup\c018i_e.c
                 data_ptr   0x000ded       data     static C:\MCC18\src\extended\startup\c018i_e.c
                 toRotate   0x000df0       data     extern C:\Documents and Settings\Administrator\My Documents\Alarm Controller\Microchip\TCPIP Stack\Helpers.c
               SMTPClient   0x000e00       data     extern C:\Documents and Settings\Administrator\My Documents\Alarm Controller\Microchip\TCPIP Stack\SMTP.c
               SMTPServer   0x000e22       data     static C:\Documents and Settings\Administrator\My Documents\Alarm Controller\Microchip\TCPIP Stack\SMTP.c
                 CRPeriod   0x000e26       data     static C:\Documents and Settings\Administrator\My Documents\Alarm Controller\Microchip\TCPIP Stack\SMTP.c
                SMTPState   0x000e28       data     static C:\Documents and Settings\Administrator\My Documents\Alarm Controller\Microchip\TCPIP Stack\SMTP.c
          PutHeadersState   0x000e29       data     static C:\Documents and Settings\Administrator\My Documents\Alarm Controller\Microchip\TCPIP Stack\SMTP.c
            RXParserState   0x000e2a       data     static C:\Documents and Settings\Administrator\My Documents\Alarm Controller\Microchip\TCPIP Stack\SMTP.c
             ResponseCode   0x000e2b       data     static C:\Documents and Settings\Administrator\My Documents\Alarm Controller\Microchip\TCPIP Stack\SMTP.c
                    Timer   0x000e2d       data     static C:\Documents and Settings\Administrator\My Documents\Alarm Controller\Microchip\TCPIP Stack\SMTP.c
                 RXBuffer   0x000e31       data     static C:\Documents and Settings\Administrator\My Documents\Alarm Controller\Microchip\TCPIP Stack\SMTP.c
                ROMStrPtr   0x000e35       data     static C:\Documents and Settings\Administrator\My Documents\Alarm Controller\Microchip\TCPIP Stack\SMTP.c
               ROMStrPtr2   0x000e38       data     static C:\Documents and Settings\Administrator\My Documents\Alarm Controller\Microchip\TCPIP Stack\SMTP.c
                RAMStrPtr   0x000e3b       data     static C:\Documents and Settings\Administrator\My Documents\Alarm Controller\Microchip\TCPIP Stack\SMTP.c
           wAddressLength   0x000e3d       data     static C:\Documents and Settings\Administrator\My Documents\Alarm Controller\Microchip\TCPIP Stack\SMTP.c
             SMTPTaskList   0x000e3f       data     extern C:\Documents and Settings\Administrator\My Documents\Alarm Controller\PIC Code\SMTP.c
           SMPTTestResult   0x000e4b       data     extern C:\Documents and Settings\Administrator\My Documents\Alarm Controller\PIC Code\SMTP.c
            RAMStringBody   0x000e4d       data     static C:\Documents and Settings\Administrator\My Documents\Alarm Controller\PIC Code\SMTP.c
              IPHeaderLen   0x000e7f       data     static C:\Documents and Settings\Administrator\My Documents\Alarm Controller\Microchip\TCPIP Stack\IP.c
                   MAADR5   0x000e80       data     extern C:\MCC18\src\extended\proc\p18F97J60.asm
                   MAADR6   0x000e81       data     extern C:\MCC18\src\extended\proc\p18F97J60.asm
                   MAADR3   0x000e82       data     extern C:\MCC18\src\extended\proc\p18F97J60.asm
                   MAADR4   0x000e83       data     extern C:\MCC18\src\extended\proc\p18F97J60.asm
                   MAADR1   0x000e84       data     extern C:\MCC18\src\extended\proc\p18F97J60.asm
                   MAADR2   0x000e85       data     extern C:\MCC18\src\extended\proc\p18F97J60.asm
               MISTATbits   0x000e8a       data     extern C:\MCC18\src\extended\proc\p18F97J60.asm
                   MISTAT   0x000e8a       data     extern C:\MCC18\src\extended\proc\p18F97J60.asm
              EFLOCONbits   0x000e97       data     extern C:\MCC18\src\extended\proc\p18F97J60.asm
                  EFLOCON   0x000e97       data     extern C:\MCC18\src\extended\proc\p18F97J60.asm
                    EPAUS   0x000e98       data     extern C:\MCC18\src\extended\proc\p18F97J60.asm
                   EPAUSL   0x000e98       data     extern C:\MCC18\src\extended\proc\p18F97J60.asm
                   EPAUSH   0x000e99       data     extern C:\MCC18\src\extended\proc\p18F97J60.asm
                   MACON1   0x000ea0       data     extern C:\MCC18\src\extended\proc\p18F97J60.asm
               MACON1bits   0x000ea0       data     extern C:\MCC18\src\extended\proc\p18F97J60.asm
                   MACON3   0x000ea2       data     extern C:\MCC18\src\extended\proc\p18F97J60.asm
               MACON3bits   0x000ea2       data     extern C:\MCC18\src\extended\proc\p18F97J60.asm
                   MACON4   0x000ea3       data     extern C:\MCC18\src\extended\proc\p18F97J60.asm
               MACON4bits   0x000ea3       data     extern C:\MCC18\src\extended\proc\p18F97J60.asm
                  MABBIPG   0x000ea4       data     extern C:\MCC18\src\extended\proc\p18F97J60.asm
                    MAIPG   0x000ea6       data     extern C:\MCC18\src\extended\proc\p18F97J60.asm
                   MAIPGL   0x000ea6       data     extern C:\MCC18\src\extended\proc\p18F97J60.asm
                   MAIPGH   0x000ea7       data     extern C:\MCC18\src\extended\proc\p18F97J60.asm
                  MAMXFLL   0x000eaa       data     extern C:\MCC18\src\extended\proc\p18F97J60.asm
                   MAMXFL   0x000eaa       data     extern C:\MCC18\src\extended\proc\p18F97J60.asm
                  MAMXFLH   0x000eab       data     extern C:\MCC18\src\extended\proc\p18F97J60.asm
                    MICMD   0x000eb2       data     extern C:\MCC18\src\extended\proc\p18F97J60.asm
                MICMDbits   0x000eb2       data     extern C:\MCC18\src\extended\proc\p18F97J60.asm
                 MIREGADR   0x000eb4       data     extern C:\MCC18\src\extended\proc\p18F97J60.asm
                     MIWR   0x000eb6       data     extern C:\MCC18\src\extended\proc\p18F97J60.asm
                    MIWRL   0x000eb6       data     extern C:\MCC18\src\extended\proc\p18F97J60.asm
                    MIWRH   0x000eb7       data     extern C:\MCC18\src\extended\proc\p18F97J60.asm
                     MIRD   0x000eb8       data     extern C:\MCC18\src\extended\proc\p18F97J60.asm
                    MIRDL   0x000eb8       data     extern C:\MCC18\src\extended\proc\p18F97J60.asm
                    MIRDH   0x000eb9       data     extern C:\MCC18\src\extended\proc\p18F97J60.asm
                     EHT0   0x000ec0       data     extern C:\MCC18\src\extended\proc\p18F97J60.asm
                     EHT1   0x000ec1       data     extern C:\MCC18\src\extended\proc\p18F97J60.asm
                     EHT2   0x000ec2       data     extern C:\MCC18\src\extended\proc\p18F97J60.asm
                     EHT3   0x000ec3       data     extern C:\MCC18\src\extended\proc\p18F97J60.asm
                     EHT4   0x000ec4       data     extern C:\MCC18\src\extended\proc\p18F97J60.asm
                     EHT5   0x000ec5       data     extern C:\MCC18\src\extended\proc\p18F97J60.asm
                     EHT6   0x000ec6       data     extern C:\MCC18\src\extended\proc\p18F97J60.asm
                     EHT7   0x000ec7       data     extern C:\MCC18\src\extended\proc\p18F97J60.asm
                    EPMM0   0x000ec8       data     extern C:\MCC18\src\extended\proc\p18F97J60.asm
                    EPMM1   0x000ec9       data     extern C:\MCC18\src\extended\proc\p18F97J60.asm
                    EPMM2   0x000eca       data     extern C:\MCC18\src\extended\proc\p18F97J60.asm
                    EPMM3   0x000ecb       data     extern C:\MCC18\src\extended\proc\p18F97J60.asm
                    EPMM4   0x000ecc       data     extern C:\MCC18\src\extended\proc\p18F97J60.asm
                    EPMM5   0x000ecd       data     extern C:\MCC18\src\extended\proc\p18F97J60.asm
                    EPMM6   0x000ece       data     extern C:\MCC18\src\extended\proc\p18F97J60.asm
                    EPMM7   0x000ecf       data     extern C:\MCC18\src\extended\proc\p18F97J60.asm
                   EPMCSL   0x000ed0       data     extern C:\MCC18\src\extended\proc\p18F97J60.asm
                    EPMCS   0x000ed0       data     extern C:\MCC18\src\extended\proc\p18F97J60.asm
                   EPMCSH   0x000ed1       data     extern C:\MCC18\src\extended\proc\p18F97J60.asm
                    EPMOL   0x000ed4       data     extern C:\MCC18\src\extended\proc\p18F97J60.asm
                     EPMO   0x000ed4       data     extern C:\MCC18\src\extended\proc\p18F97J60.asm
                    EPMOH   0x000ed5       data     extern C:\MCC18\src\extended\proc\p18F97J60.asm
                  ERXFCON   0x000ed8       data     extern C:\MCC18\src\extended\proc\p18F97J60.asm
              ERXFCONbits   0x000ed8       data     extern C:\MCC18\src\extended\proc\p18F97J60.asm
                  EPKTCNT   0x000ed9       data     extern C:\MCC18\src\extended\proc\p18F97J60.asm
                   EWRPTL   0x000ee2       data     extern C:\MCC18\src\extended\proc\p18F97J60.asm
                    EWRPT   0x000ee2       data     extern C:\MCC18\src\extended\proc\p18F97J60.asm
                   EWRPTH   0x000ee3       data     extern C:\MCC18\src\extended\proc\p18F97J60.asm
                    ETXST   0x000ee4       data     extern C:\MCC18\src\extended\proc\p18F97J60.asm
                   ETXSTL   0x000ee4       data     extern C:\MCC18\src\extended\proc\p18F97J60.asm
                   ETXSTH   0x000ee5       data     extern C:\MCC18\src\extended\proc\p18F97J60.asm
                    ETXND   0x000ee6       data     extern C:\MCC18\src\extended\proc\p18F97J60.asm
                   ETXNDL   0x000ee6       data     extern C:\MCC18\src\extended\proc\p18F97J60.asm
                   ETXNDH   0x000ee7       data     extern C:\MCC18\src\extended\proc\p18F97J60.asm
                    ERXST   0x000ee8       data     extern C:\MCC18\src\extended\proc\p18F97J60.asm
                   ERXSTL   0x000ee8       data     extern C:\MCC18\src\extended\proc\p18F97J60.asm
                   ERXSTH   0x000ee9       data     extern C:\MCC18\src\extended\proc\p18F97J60.asm
                    ERXND   0x000eea       data     extern C:\MCC18\src\extended\proc\p18F97J60.asm
                   ERXNDL   0x000eea       data     extern C:\MCC18\src\extended\proc\p18F97J60.asm
                   ERXNDH   0x000eeb       data     extern C:\MCC18\src\extended\proc\p18F97J60.asm
                 ERXRDPTL   0x000eec       data     extern C:\MCC18\src\extended\proc\p18F97J60.asm
                  ERXRDPT   0x000eec       data     extern C:\MCC18\src\extended\proc\p18F97J60.asm
                 ERXRDPTH   0x000eed       data     extern C:\MCC18\src\extended\proc\p18F97J60.asm
                 ERXWRPTL   0x000eee       data     extern C:\MCC18\src\extended\proc\p18F97J60.asm
                  ERXWRPT   0x000eee       data     extern C:\MCC18\src\extended\proc\p18F97J60.asm
                 ERXWRPTH   0x000eef       data     extern C:\MCC18\src\extended\proc\p18F97J60.asm
                  EDMASTL   0x000ef0       data     extern C:\MCC18\src\extended\proc\p18F97J60.asm
                   EDMAST   0x000ef0       data     extern C:\MCC18\src\extended\proc\p18F97J60.asm
                  EDMASTH   0x000ef1       data     extern C:\MCC18\src\extended\proc\p18F97J60.asm
                   EDMAND   0x000ef2       data     extern C:\MCC18\src\extended\proc\p18F97J60.asm
                  EDMANDL   0x000ef2       data     extern C:\MCC18\src\extended\proc\p18F97J60.asm
                  EDMANDH   0x000ef3       data     extern C:\MCC18\src\extended\proc\p18F97J60.asm
                  EDMADST   0x000ef4       data     extern C:\MCC18\src\extended\proc\p18F97J60.asm
                 EDMADSTL   0x000ef4       data     extern C:\MCC18\src\extended\proc\p18F97J60.asm
                 EDMADSTH   0x000ef5       data     extern C:\MCC18\src\extended\proc\p18F97J60.asm
                  EDMACSL   0x000ef6       data     extern C:\MCC18\src\extended\proc\p18F97J60.asm
                   EDMACS   0x000ef6       data     extern C:\MCC18\src\extended\proc\p18F97J60.asm
                  EDMACSH   0x000ef7       data     extern C:\MCC18\src\extended\proc\p18F97J60.asm
                      EIE   0x000efb       data     extern C:\MCC18\src\extended\proc\p18F97J60.asm
                  EIEbits   0x000efb       data     extern C:\MCC18\src\extended\proc\p18F97J60.asm
                    ESTAT   0x000efd       data     extern C:\MCC18\src\extended\proc\p18F97J60.asm
                ESTATbits   0x000efd       data     extern C:\MCC18\src\extended\proc\p18F97J60.asm
                ECON2bits   0x000efe       data     extern C:\MCC18\src\extended\proc\p18F97J60.asm
                    ECON2   0x000efe       data     extern C:\MCC18\src\extended\proc\p18F97J60.asm
        BatteryCheckTimer   0x000f00       data     extern C:\Documents and Settings\Administrator\My Documents\Alarm Controller\PIC Code\SecuritySystem.c
           AlarmTypesText   0x000f04       data     extern C:\Documents and Settings\Administrator\My Documents\Alarm Controller\PIC Code\SecuritySystem.c
            ZoneTypesText   0x000f1c       data     extern C:\Documents and Settings\Administrator\My Documents\Alarm Controller\PIC Code\SecuritySystem.c
      SecurityCommandText   0x000f28       data     static C:\Documents and Settings\Administrator\My Documents\Alarm Controller\PIC Code\SecuritySystem.c
     SecurityRequestsText   0x000f43       data     static C:\Documents and Settings\Administrator\My Documents\Alarm Controller\PIC Code\SecuritySystem.c
          myDHCPBindCount   0x000f5b       data     extern C:\Documents and Settings\Administrator\My Documents\Alarm Controller\PIC Code\MainDemo.c
                        t   0x000f5c       data     static C:\Documents and Settings\Administrator\My Documents\Alarm Controller\PIC Code\MainDemo.c
                      EIR   0x000f60       data     extern C:\MCC18\src\extended\proc\p18F97J60.asm
                  EIRbits   0x000f60       data     extern C:\MCC18\src\extended\proc\p18F97J60.asm
                    EDATA   0x000f61       data     extern C:\MCC18\src\extended\proc\p18F97J60.asm
                EDATAbits   0x000f61       data     extern C:\MCC18\src\extended\proc\p18F97J60.asm
             SSP2CON2bits   0x000f62       data     extern C:\MCC18\src\extended\proc\p18F97J60.asm
                 SSP2CON2   0x000f62       data     extern C:\MCC18\src\extended\proc\p18F97J60.asm
             SSP2CON1bits   0x000f63       data     extern C:\MCC18\src\extended\proc\p18F97J60.asm
                 SSP2CON1   0x000f63       data     extern C:\MCC18\src\extended\proc\p18F97J60.asm
                 SSP2STAT   0x000f64       data     extern C:\MCC18\src\extended\proc\p18F97J60.asm
             SSP2STATbits   0x000f64       data     extern C:\MCC18\src\extended\proc\p18F97J60.asm
                  SSP2ADD   0x000f65       data     extern C:\MCC18\src\extended\proc\p18F97J60.asm
                  SSP2BUF   0x000f66       data     extern C:\MCC18\src\extended\proc\p18F97J60.asm
             ECCP2DELbits   0x000f67       data     extern C:\MCC18\src\extended\proc\p18F97J60.asm
                 ECCP2DEL   0x000f67       data     extern C:\MCC18\src\extended\proc\p18F97J60.asm
                  ECCP2AS   0x000f68       data     extern C:\MCC18\src\extended\proc\p18F97J60.asm
              ECCP2ASbits   0x000f68       data     extern C:\MCC18\src\extended\proc\p18F97J60.asm
                 ECCP3DEL   0x000f69       data     extern C:\MCC18\src\extended\proc\p18F97J60.asm
             ECCP3DELbits   0x000f69       data     extern C:\MCC18\src\extended\proc\p18F97J60.asm
                  ECCP3AS   0x000f6a       data     extern C:\MCC18\src\extended\proc\p18F97J60.asm
              ECCP3ASbits   0x000f6a       data     extern C:\MCC18\src\extended\proc\p18F97J60.asm
                   RCSTA2   0x000f6b       data     extern C:\MCC18\src\extended\proc\p18F97J60.asm
               RCSTA2bits   0x000f6b       data     extern C:\MCC18\src\extended\proc\p18F97J60.asm
                   TXSTA2   0x000f6c       data     extern C:\MCC18\src\extended\proc\p18F97J60.asm
               TXSTA2bits   0x000f6c       data     extern C:\MCC18\src\extended\proc\p18F97J60.asm
                   TXREG2   0x000f6d       data     extern C:\MCC18\src\extended\proc\p18F97J60.asm
                   RCREG2   0x000f6e       data     extern C:\MCC18\src\extended\proc\p18F97J60.asm
                   SPBRG2   0x000f6f       data     extern C:\MCC18\src\extended\proc\p18F97J60.asm
                  CCP5CON   0x000f70       data     extern C:\MCC18\src\extended\proc\p18F97J60.asm
              CCP5CONbits   0x000f70       data     extern C:\MCC18\src\extended\proc\p18F97J60.asm
                   CCPR5L   0x000f71       data     extern C:\MCC18\src\extended\proc\p18F97J60.asm
                    CCPR5   0x000f71       data     extern C:\MCC18\src\extended\proc\p18F97J60.asm
                   CCPR5H   0x000f72       data     extern C:\MCC18\src\extended\proc\p18F97J60.asm
                  CCP4CON   0x000f73       data     extern C:\MCC18\src\extended\proc\p18F97J60.asm
              CCP4CONbits   0x000f73       data     extern C:\MCC18\src\extended\proc\p18F97J60.asm
                   CCPR4L   0x000f74       data     extern C:\MCC18\src\extended\proc\p18F97J60.asm
                    CCPR4   0x000f74       data     extern C:\MCC18\src\extended\proc\p18F97J60.asm
                   CCPR4H   0x000f75       data     extern C:\MCC18\src\extended\proc\p18F97J60.asm
                T4CONbits   0x000f76       data     extern C:\MCC18\src\extended\proc\p18F97J60.asm
                    T4CON   0x000f76       data     extern C:\MCC18\src\extended\proc\p18F97J60.asm
                      PR4   0x000f77       data     extern C:\MCC18\src\extended\proc\p18F97J60.asm
                     TMR4   0x000f78       data     extern C:\MCC18\src\extended\proc\p18F97J60.asm
             ECCP1DELbits   0x000f79       data     extern C:\MCC18\src\extended\proc\p18F97J60.asm
                 ECCP1DEL   0x000f79       data     extern C:\MCC18\src\extended\proc\p18F97J60.asm
                    ERDPT   0x000f7a       data     extern C:\MCC18\src\extended\proc\p18F97J60.asm
                   ERDPTL   0x000f7a       data     extern C:\MCC18\src\extended\proc\p18F97J60.asm
                   ERDPTH   0x000f7b       data     extern C:\MCC18\src\extended\proc\p18F97J60.asm
             BAUDCON2bits   0x000f7c       data     extern C:\MCC18\src\extended\proc\p18F97J60.asm
                 BAUDCON2   0x000f7c       data     extern C:\MCC18\src\extended\proc\p18F97J60.asm
             BAUDCTL2bits   0x000f7c       data     extern C:\MCC18\src\extended\proc\p18F97J60.asm
                 BAUDCTL2   0x000f7c       data     extern C:\MCC18\src\extended\proc\p18F97J60.asm
                  SPBRGH2   0x000f7d       data     extern C:\MCC18\src\extended\proc\p18F97J60.asm
              BAUDCTLbits   0x000f7e       data     extern C:\MCC18\src\extended\proc\p18F97J60.asm
             BAUDCTL1bits   0x000f7e       data     extern C:\MCC18\src\extended\proc\p18F97J60.asm
              BAUDCONbits   0x000f7e       data     extern C:\MCC18\src\extended\proc\p18F97J60.asm
             BAUDCON1bits   0x000f7e       data     extern C:\MCC18\src\extended\proc\p18F97J60.asm
                 BAUDCON1   0x000f7e       data     extern C:\MCC18\src\extended\proc\p18F97J60.asm
                  BAUDCON   0x000f7e       data     extern C:\MCC18\src\extended\proc\p18F97J60.asm
                 BAUDCTL1   0x000f7e       data     extern C:\MCC18\src\extended\proc\p18F97J60.asm
                  BAUDCTL   0x000f7e       data     extern C:\MCC18\src\extended\proc\p18F97J60.asm
                   SPBRGH   0x000f7f       data     extern C:\MCC18\src\extended\proc\p18F97J60.asm
                  SPBRGH1   0x000f7f       data     extern C:\MCC18\src\extended\proc\p18F97J60.asm
                    PORTA   0x000f80       data     extern C:\MCC18\src\extended\proc\p18F97J60.asm
                PORTAbits   0x000f80       data     extern C:\MCC18\src\extended\proc\p18F97J60.asm
                    PORTB   0x000f81       data     extern C:\MCC18\src\extended\proc\p18F97J60.asm
                PORTBbits   0x000f81       data     extern C:\MCC18\src\extended\proc\p18F97J60.asm
                    PORTC   0x000f82       data     extern C:\MCC18\src\extended\proc\p18F97J60.asm
                PORTCbits   0x000f82       data     extern C:\MCC18\src\extended\proc\p18F97J60.asm
                    PORTD   0x000f83       data     extern C:\MCC18\src\extended\proc\p18F97J60.asm
                PORTDbits   0x000f83       data     extern C:\MCC18\src\extended\proc\p18F97J60.asm
                    PORTE   0x000f84       data     extern C:\MCC18\src\extended\proc\p18F97J60.asm
                PORTEbits   0x000f84       data     extern C:\MCC18\src\extended\proc\p18F97J60.asm
                    PORTF   0x000f85       data     extern C:\MCC18\src\extended\proc\p18F97J60.asm
                PORTFbits   0x000f85       data     extern C:\MCC18\src\extended\proc\p18F97J60.asm
                PORTGbits   0x000f86       data     extern C:\MCC18\src\extended\proc\p18F97J60.asm
                    PORTG   0x000f86       data     extern C:\MCC18\src\extended\proc\p18F97J60.asm
                    PORTH   0x000f87       data     extern C:\MCC18\src\extended\proc\p18F97J60.asm
                PORTHbits   0x000f87       data     extern C:\MCC18\src\extended\proc\p18F97J60.asm
                    PORTJ   0x000f88       data     extern C:\MCC18\src\extended\proc\p18F97J60.asm
                PORTJbits   0x000f88       data     extern C:\MCC18\src\extended\proc\p18F97J60.asm
                     LATA   0x000f89       data     extern C:\MCC18\src\extended\proc\p18F97J60.asm
                 LATAbits   0x000f89       data     extern C:\MCC18\src\extended\proc\p18F97J60.asm
                 LATBbits   0x000f8a       data     extern C:\MCC18\src\extended\proc\p18F97J60.asm
                     LATB   0x000f8a       data     extern C:\MCC18\src\extended\proc\p18F97J60.asm
                     LATC   0x000f8b       data     extern C:\MCC18\src\extended\proc\p18F97J60.asm
                 LATCbits   0x000f8b       data     extern C:\MCC18\src\extended\proc\p18F97J60.asm
                 LATDbits   0x000f8c       data     extern C:\MCC18\src\extended\proc\p18F97J60.asm
                     LATD   0x000f8c       data     extern C:\MCC18\src\extended\proc\p18F97J60.asm
                 LATEbits   0x000f8d       data     extern C:\MCC18\src\extended\proc\p18F97J60.asm
                     LATE   0x000f8d       data     extern C:\MCC18\src\extended\proc\p18F97J60.asm
                 LATFbits   0x000f8e       data     extern C:\MCC18\src\extended\proc\p18F97J60.asm
                     LATF   0x000f8e       data     extern C:\MCC18\src\extended\proc\p18F97J60.asm
                 LATGbits   0x000f8f       data     extern C:\MCC18\src\extended\proc\p18F97J60.asm
                     LATG   0x000f8f       data     extern C:\MCC18\src\extended\proc\p18F97J60.asm
                 LATHbits   0x000f90       data     extern C:\MCC18\src\extended\proc\p18F97J60.asm
                     LATH   0x000f90       data     extern C:\MCC18\src\extended\proc\p18F97J60.asm
                 LATJbits   0x000f91       data     extern C:\MCC18\src\extended\proc\p18F97J60.asm
                     LATJ   0x000f91       data     extern C:\MCC18\src\extended\proc\p18F97J60.asm
                    TRISA   0x000f92       data     extern C:\MCC18\src\extended\proc\p18F97J60.asm
                TRISAbits   0x000f92       data     extern C:\MCC18\src\extended\proc\p18F97J60.asm
                 DDRAbits   0x000f92       data     extern C:\MCC18\src\extended\proc\p18F97J60.asm
                     DDRA   0x000f92       data     extern C:\MCC18\src\extended\proc\p18F97J60.asm
                    TRISB   0x000f93       data     extern C:\MCC18\src\extended\proc\p18F97J60.asm
                TRISBbits   0x000f93       data     extern C:\MCC18\src\extended\proc\p18F97J60.asm
                 DDRBbits   0x000f93       data     extern C:\MCC18\src\extended\proc\p18F97J60.asm
                     DDRB   0x000f93       data     extern C:\MCC18\src\extended\proc\p18F97J60.asm
                     DDRC   0x000f94       data     extern C:\MCC18\src\extended\proc\p18F97J60.asm
                 DDRCbits   0x000f94       data     extern C:\MCC18\src\extended\proc\p18F97J60.asm
                TRISCbits   0x000f94       data     extern C:\MCC18\src\extended\proc\p18F97J60.asm
                    TRISC   0x000f94       data     extern C:\MCC18\src\extended\proc\p18F97J60.asm
                    TRISD   0x000f95       data     extern C:\MCC18\src\extended\proc\p18F97J60.asm
                TRISDbits   0x000f95       data     extern C:\MCC18\src\extended\proc\p18F97J60.asm
                     DDRD   0x000f95       data     extern C:\MCC18\src\extended\proc\p18F97J60.asm
                 DDRDbits   0x000f95       data     extern C:\MCC18\src\extended\proc\p18F97J60.asm
                    TRISE   0x000f96       data     extern C:\MCC18\src\extended\proc\p18F97J60.asm
                TRISEbits   0x000f96       data     extern C:\MCC18\src\extended\proc\p18F97J60.asm
                     DDRE   0x000f96       data     extern C:\MCC18\src\extended\proc\p18F97J60.asm
                 DDREbits   0x000f96       data     extern C:\MCC18\src\extended\proc\p18F97J60.asm
                     DDRF   0x000f97       data     extern C:\MCC18\src\extended\proc\p18F97J60.asm
                TRISFbits   0x000f97       data     extern C:\MCC18\src\extended\proc\p18F97J60.asm
                    TRISF   0x000f97       data     extern C:\MCC18\src\extended\proc\p18F97J60.asm
                 DDRFbits   0x000f97       data     extern C:\MCC18\src\extended\proc\p18F97J60.asm
                TRISGbits   0x000f98       data     extern C:\MCC18\src\extended\proc\p18F97J60.asm
                    TRISG   0x000f98       data     extern C:\MCC18\src\extended\proc\p18F97J60.asm
                     DDRG   0x000f98       data     extern C:\MCC18\src\extended\proc\p18F97J60.asm
                 DDRGbits   0x000f98       data     extern C:\MCC18\src\extended\proc\p18F97J60.asm
                TRISHbits   0x000f99       data     extern C:\MCC18\src\extended\proc\p18F97J60.asm
                    TRISH   0x000f99       data     extern C:\MCC18\src\extended\proc\p18F97J60.asm
                     DDRH   0x000f99       data     extern C:\MCC18\src\extended\proc\p18F97J60.asm
                 DDRHbits   0x000f99       data     extern C:\MCC18\src\extended\proc\p18F97J60.asm
                     DDRJ   0x000f9a       data     extern C:\MCC18\src\extended\proc\p18F97J60.asm
                 DDRJbits   0x000f9a       data     extern C:\MCC18\src\extended\proc\p18F97J60.asm
                TRISJbits   0x000f9a       data     extern C:\MCC18\src\extended\proc\p18F97J60.asm
                    TRISJ   0x000f9a       data     extern C:\MCC18\src\extended\proc\p18F97J60.asm
              OSCTUNEbits   0x000f9b       data     extern C:\MCC18\src\extended\proc\p18F97J60.asm
                  OSCTUNE   0x000f9b       data     extern C:\MCC18\src\extended\proc\p18F97J60.asm
                   MEMCON   0x000f9c       data     extern C:\MCC18\src\extended\proc\p18F97J60.asm
               MEMCONbits   0x000f9c       data     extern C:\MCC18\src\extended\proc\p18F97J60.asm
                     PIE1   0x000f9d       data     extern C:\MCC18\src\extended\proc\p18F97J60.asm
                 PIE1bits   0x000f9d       data     extern C:\MCC18\src\extended\proc\p18F97J60.asm
                     PIR1   0x000f9e       data     extern C:\MCC18\src\extended\proc\p18F97J60.asm
                 PIR1bits   0x000f9e       data     extern C:\MCC18\src\extended\proc\p18F97J60.asm
                     IPR1   0x000f9f       data     extern C:\MCC18\src\extended\proc\p18F97J60.asm
                 IPR1bits   0x000f9f       data     extern C:\MCC18\src\extended\proc\p18F97J60.asm
                     PIE2   0x000fa0       data     extern C:\MCC18\src\extended\proc\p18F97J60.asm
                 PIE2bits   0x000fa0       data     extern C:\MCC18\src\extended\proc\p18F97J60.asm
                     PIR2   0x000fa1       data     extern C:\MCC18\src\extended\proc\p18F97J60.asm
                 PIR2bits   0x000fa1       data     extern C:\MCC18\src\extended\proc\p18F97J60.asm
                     IPR2   0x000fa2       data     extern C:\MCC18\src\extended\proc\p18F97J60.asm
                 IPR2bits   0x000fa2       data     extern C:\MCC18\src\extended\proc\p18F97J60.asm
                     PIE3   0x000fa3       data     extern C:\MCC18\src\extended\proc\p18F97J60.asm
                 PIE3bits   0x000fa3       data     extern C:\MCC18\src\extended\proc\p18F97J60.asm
                     PIR3   0x000fa4       data     extern C:\MCC18\src\extended\proc\p18F97J60.asm
                 PIR3bits   0x000fa4       data     extern C:\MCC18\src\extended\proc\p18F97J60.asm
                 IPR3bits   0x000fa5       data     extern C:\MCC18\src\extended\proc\p18F97J60.asm
                     IPR3   0x000fa5       data     extern C:\MCC18\src\extended\proc\p18F97J60.asm
                   EECON1   0x000fa6       data     extern C:\MCC18\src\extended\proc\p18F97J60.asm
               EECON1bits   0x000fa6       data     extern C:\MCC18\src\extended\proc\p18F97J60.asm
                   EECON2   0x000fa7       data     extern C:\MCC18\src\extended\proc\p18F97J60.asm
               RCSTA1bits   0x000fab       data     extern C:\MCC18\src\extended\proc\p18F97J60.asm
                    RCSTA   0x000fab       data     extern C:\MCC18\src\extended\proc\p18F97J60.asm
                   RCSTA1   0x000fab       data     extern C:\MCC18\src\extended\proc\p18F97J60.asm
                RCSTAbits   0x000fab       data     extern C:\MCC18\src\extended\proc\p18F97J60.asm
                TXSTAbits   0x000fac       data     extern C:\MCC18\src\extended\proc\p18F97J60.asm
               TXSTA1bits   0x000fac       data     extern C:\MCC18\src\extended\proc\p18F97J60.asm
                   TXSTA1   0x000fac       data     extern C:\MCC18\src\extended\proc\p18F97J60.asm
                    TXSTA   0x000fac       data     extern C:\MCC18\src\extended\proc\p18F97J60.asm
                   TXREG1   0x000fad       data     extern C:\MCC18\src\extended\proc\p18F97J60.asm
                    TXREG   0x000fad       data     extern C:\MCC18\src\extended\proc\p18F97J60.asm
                   RCREG1   0x000fae       data     extern C:\MCC18\src\extended\proc\p18F97J60.asm
                    RCREG   0x000fae       data     extern C:\MCC18\src\extended\proc\p18F97J60.asm
                    SPBRG   0x000faf       data     extern C:\MCC18\src\extended\proc\p18F97J60.asm
                   SPBRG1   0x000faf       data     extern C:\MCC18\src\extended\proc\p18F97J60.asm
               PSPCONbits   0x000fb0       data     extern C:\MCC18\src\extended\proc\p18F97J60.asm
                   PSPCON   0x000fb0       data     extern C:\MCC18\src\extended\proc\p18F97J60.asm
                T3CONbits   0x000fb1       data     extern C:\MCC18\src\extended\proc\p18F97J60.asm
                    T3CON   0x000fb1       data     extern C:\MCC18\src\extended\proc\p18F97J60.asm
                    TMR3L   0x000fb2       data     extern C:\MCC18\src\extended\proc\p18F97J60.asm
                    TMR3H   0x000fb3       data     extern C:\MCC18\src\extended\proc\p18F97J60.asm
                    CMCON   0x000fb4       data     extern C:\MCC18\src\extended\proc\p18F97J60.asm
                CMCONbits   0x000fb4       data     extern C:\MCC18\src\extended\proc\p18F97J60.asm
                   CVRCON   0x000fb5       data     extern C:\MCC18\src\extended\proc\p18F97J60.asm
               CVRCONbits   0x000fb5       data     extern C:\MCC18\src\extended\proc\p18F97J60.asm
                  ECCP1AS   0x000fb6       data     extern C:\MCC18\src\extended\proc\p18F97J60.asm
              ECCP1ASbits   0x000fb6       data     extern C:\MCC18\src\extended\proc\p18F97J60.asm
                  CCP3CON   0x000fb7       data     extern C:\MCC18\src\extended\proc\p18F97J60.asm
                 ECCP3CON   0x000fb7       data     extern C:\MCC18\src\extended\proc\p18F97J60.asm
             ECCP3CONbits   0x000fb7       data     extern C:\MCC18\src\extended\proc\p18F97J60.asm
              CCP3CONbits   0x000fb7       data     extern C:\MCC18\src\extended\proc\p18F97J60.asm
                    CCPR3   0x000fb8       data     extern C:\MCC18\src\extended\proc\p18F97J60.asm
                   CCPR3L   0x000fb8       data     extern C:\MCC18\src\extended\proc\p18F97J60.asm
                   CCPR3H   0x000fb9       data     extern C:\MCC18\src\extended\proc\p18F97J60.asm
                 ECCP2CON   0x000fba       data     extern C:\MCC18\src\extended\proc\p18F97J60.asm
             ECCP2CONbits   0x000fba       data     extern C:\MCC18\src\extended\proc\p18F97J60.asm
              CCP2CONbits   0x000fba       data     extern C:\MCC18\src\extended\proc\p18F97J60.asm
                  CCP2CON   0x000fba       data     extern C:\MCC18\src\extended\proc\p18F97J60.asm
                   CCPR2L   0x000fbb       data     extern C:\MCC18\src\extended\proc\p18F97J60.asm
                    CCPR2   0x000fbb       data     extern C:\MCC18\src\extended\proc\p18F97J60.asm
                   CCPR2H   0x000fbc       data     extern C:\MCC18\src\extended\proc\p18F97J60.asm
                 ECCP1CON   0x000fbd       data     extern C:\MCC18\src\extended\proc\p18F97J60.asm
             ECCP1CONbits   0x000fbd       data     extern C:\MCC18\src\extended\proc\p18F97J60.asm
              CCP1CONbits   0x000fbd       data     extern C:\MCC18\src\extended\proc\p18F97J60.asm
                  CCP1CON   0x000fbd       data     extern C:\MCC18\src\extended\proc\p18F97J60.asm
                   CCPR1L   0x000fbe       data     extern C:\MCC18\src\extended\proc\p18F97J60.asm
                    CCPR1   0x000fbe       data     extern C:\MCC18\src\extended\proc\p18F97J60.asm
                   CCPR1H   0x000fbf       data     extern C:\MCC18\src\extended\proc\p18F97J60.asm
               ADCON2bits   0x000fc0       data     extern C:\MCC18\src\extended\proc\p18F97J60.asm
                   ADCON2   0x000fc0       data     extern C:\MCC18\src\extended\proc\p18F97J60.asm
               ADCON1bits   0x000fc1       data     extern C:\MCC18\src\extended\proc\p18F97J60.asm
                   ADCON1   0x000fc1       data     extern C:\MCC18\src\extended\proc\p18F97J60.asm
                   ADCON0   0x000fc2       data     extern C:\MCC18\src\extended\proc\p18F97J60.asm
               ADCON0bits   0x000fc2       data     extern C:\MCC18\src\extended\proc\p18F97J60.asm
                    ADRES   0x000fc3       data     extern C:\MCC18\src\extended\proc\p18F97J60.asm
                   ADRESL   0x000fc3       data     extern C:\MCC18\src\extended\proc\p18F97J60.asm
                   ADRESH   0x000fc4       data     extern C:\MCC18\src\extended\proc\p18F97J60.asm
                 SSP1CON2   0x000fc5       data     extern C:\MCC18\src\extended\proc\p18F97J60.asm
             SSP1CON2bits   0x000fc5       data     extern C:\MCC18\src\extended\proc\p18F97J60.asm
                  SSPCON2   0x000fc5       data     extern C:\MCC18\src\extended\proc\p18F97J60.asm
              SSPCON2bits   0x000fc5       data     extern C:\MCC18\src\extended\proc\p18F97J60.asm
                 SSP1CON1   0x000fc6       data     extern C:\MCC18\src\extended\proc\p18F97J60.asm
             SSP1CON1bits   0x000fc6       data     extern C:\MCC18\src\extended\proc\p18F97J60.asm
              SSPCON1bits   0x000fc6       data     extern C:\MCC18\src\extended\proc\p18F97J60.asm
                  SSPCON1   0x000fc6       data     extern C:\MCC18\src\extended\proc\p18F97J60.asm
              SSPSTATbits   0x000fc7       data     extern C:\MCC18\src\extended\proc\p18F97J60.asm
                 SSP1STAT   0x000fc7       data     extern C:\MCC18\src\extended\proc\p18F97J60.asm
             SSP1STATbits   0x000fc7       data     extern C:\MCC18\src\extended\proc\p18F97J60.asm
                  SSPSTAT   0x000fc7       data     extern C:\MCC18\src\extended\proc\p18F97J60.asm
                  SSP1ADD   0x000fc8       data     extern C:\MCC18\src\extended\proc\p18F97J60.asm
                   SSPADD   0x000fc8       data     extern C:\MCC18\src\extended\proc\p18F97J60.asm
                  SSP1BUF   0x000fc9       data     extern C:\MCC18\src\extended\proc\p18F97J60.asm
                   SSPBUF   0x000fc9       data     extern C:\MCC18\src\extended\proc\p18F97J60.asm
                    T2CON   0x000fca       data     extern C:\MCC18\src\extended\proc\p18F97J60.asm
                T2CONbits   0x000fca       data     extern C:\MCC18\src\extended\proc\p18F97J60.asm
                      PR2   0x000fcb       data     extern C:\MCC18\src\extended\proc\p18F97J60.asm
                     TMR2   0x000fcc       data     extern C:\MCC18\src\extended\proc\p18F97J60.asm
                    T1CON   0x000fcd       data     extern C:\MCC18\src\extended\proc\p18F97J60.asm
                T1CONbits   0x000fcd       data     extern C:\MCC18\src\extended\proc\p18F97J60.asm
                    TMR1L   0x000fce       data     extern C:\MCC18\src\extended\proc\p18F97J60.asm
                    TMR1H   0x000fcf       data     extern C:\MCC18\src\extended\proc\p18F97J60.asm
                     RCON   0x000fd0       data     extern C:\MCC18\src\extended\proc\p18F97J60.asm
                 RCONbits   0x000fd0       data     extern C:\MCC18\src\extended\proc\p18F97J60.asm
                   WDTCON   0x000fd1       data     extern C:\MCC18\src\extended\proc\p18F97J60.asm
               WDTCONbits   0x000fd1       data     extern C:\MCC18\src\extended\proc\p18F97J60.asm
                ECON1bits   0x000fd2       data     extern C:\MCC18\src\extended\proc\p18F97J60.asm
                    ECON1   0x000fd2       data     extern C:\MCC18\src\extended\proc\p18F97J60.asm
               OSCCONbits   0x000fd3       data     extern C:\MCC18\src\extended\proc\p18F97J60.asm
                   OSCCON   0x000fd3       data     extern C:\MCC18\src\extended\proc\p18F97J60.asm
                    T0CON   0x000fd5       data     extern C:\MCC18\src\extended\proc\p18F97J60.asm
                T0CONbits   0x000fd5       data     extern C:\MCC18\src\extended\proc\p18F97J60.asm
                    TMR0L   0x000fd6       data     extern C:\MCC18\src\extended\proc\p18F97J60.asm
                    TMR0H   0x000fd7       data     extern C:\MCC18\src\extended\proc\p18F97J60.asm
                   STATUS   0x000fd8       data     extern C:\MCC18\src\extended\proc\p18F97J60.asm
               STATUSbits   0x000fd8       data     extern C:\MCC18\src\extended\proc\p18F97J60.asm
                    FSR2L   0x000fd9       data     extern C:\MCC18\src\extended\proc\p18F97J60.asm
                     FSR2   0x000fd9       data     extern C:\MCC18\src\extended\proc\p18F97J60.asm
                    FSR2H   0x000fda       data     extern C:\MCC18\src\extended\proc\p18F97J60.asm
                   PLUSW2   0x000fdb       data     extern C:\MCC18\src\extended\proc\p18F97J60.asm
                  PREINC2   0x000fdc       data     extern C:\MCC18\src\extended\proc\p18F97J60.asm
                 POSTDEC2   0x000fdd       data     extern C:\MCC18\src\extended\proc\p18F97J60.asm
                 POSTINC2   0x000fde       data     extern C:\MCC18\src\extended\proc\p18F97J60.asm
                    INDF2   0x000fdf       data     extern C:\MCC18\src\extended\proc\p18F97J60.asm
                      BSR   0x000fe0       data     extern C:\MCC18\src\extended\proc\p18F97J60.asm
                    FSR1L   0x000fe1       data     extern C:\MCC18\src\extended\proc\p18F97J60.asm
                     FSR1   0x000fe1       data     extern C:\MCC18\src\extended\proc\p18F97J60.asm
                    FSR1H   0x000fe2       data     extern C:\MCC18\src\extended\proc\p18F97J60.asm
                   PLUSW1   0x000fe3       data     extern C:\MCC18\src\extended\proc\p18F97J60.asm
                  PREINC1   0x000fe4       data     extern C:\MCC18\src\extended\proc\p18F97J60.asm
                 POSTDEC1   0x000fe5       data     extern C:\MCC18\src\extended\proc\p18F97J60.asm
                 POSTINC1   0x000fe6       data     extern C:\MCC18\src\extended\proc\p18F97J60.asm
                    INDF1   0x000fe7       data     extern C:\MCC18\src\extended\proc\p18F97J60.asm
                     WREG   0x000fe8       data     extern C:\MCC18\src\extended\proc\p18F97J60.asm
                     FSR0   0x000fe9       data     extern C:\MCC18\src\extended\proc\p18F97J60.asm
                    FSR0L   0x000fe9       data     extern C:\MCC18\src\extended\proc\p18F97J60.asm
                    FSR0H   0x000fea       data     extern C:\MCC18\src\extended\proc\p18F97J60.asm
                   PLUSW0   0x000feb       data     extern C:\MCC18\src\extended\proc\p18F97J60.asm
                  PREINC0   0x000fec       data     extern C:\MCC18\src\extended\proc\p18F97J60.asm
                 POSTDEC0   0x000fed       data     extern C:\MCC18\src\extended\proc\p18F97J60.asm
                 POSTINC0   0x000fee       data     extern C:\MCC18\src\extended\proc\p18F97J60.asm
                    INDF0   0x000fef       data     extern C:\MCC18\src\extended\proc\p18F97J60.asm
              INTCON3bits   0x000ff0       data     extern C:\MCC18\src\extended\proc\p18F97J60.asm
                  INTCON3   0x000ff0       data     extern C:\MCC18\src\extended\proc\p18F97J60.asm
              INTCON2bits   0x000ff1       data     extern C:\MCC18\src\extended\proc\p18F97J60.asm
                  INTCON2   0x000ff1       data     extern C:\MCC18\src\extended\proc\p18F97J60.asm
               INTCONbits   0x000ff2       data     extern C:\MCC18\src\extended\proc\p18F97J60.asm
                   INTCON   0x000ff2       data     extern C:\MCC18\src\extended\proc\p18F97J60.asm
                    PRODL   0x000ff3       data     extern C:\MCC18\src\extended\proc\p18F97J60.asm
                     PROD   0x000ff3       data     extern C:\MCC18\src\extended\proc\p18F97J60.asm
                    PRODH   0x000ff4       data     extern C:\MCC18\src\extended\proc\p18F97J60.asm
                   TABLAT   0x000ff5       data     extern C:\MCC18\src\extended\proc\p18F97J60.asm
                  TBLPTRL   0x000ff6       data     extern C:\MCC18\src\extended\proc\p18F97J60.asm
                   TBLPTR   0x000ff6       data     extern C:\MCC18\src\extended\proc\p18F97J60.asm
                  TBLPTRH   0x000ff7       data     extern C:\MCC18\src\extended\proc\p18F97J60.asm
                  TBLPTRU   0x000ff8       data     extern C:\MCC18\src\extended\proc\p18F97J60.asm
                      PCL   0x000ff9       data     extern C:\MCC18\src\extended\proc\p18F97J60.asm
                       PC   0x000ff9       data     extern C:\MCC18\src\extended\proc\p18F97J60.asm
                   PCLATH   0x000ffa       data     extern C:\MCC18\src\extended\proc\p18F97J60.asm
                   PCLATU   0x000ffb       data     extern C:\MCC18\src\extended\proc\p18F97J60.asm
               STKPTRbits   0x000ffc       data     extern C:\MCC18\src\extended\proc\p18F97J60.asm
                   STKPTR   0x000ffc       data     extern C:\MCC18\src\extended\proc\p18F97J60.asm
                      TOS   0x000ffd       data     extern C:\MCC18\src\extended\proc\p18F97J60.asm
                     TOSL   0x000ffd       data     extern C:\MCC18\src\extended\proc\p18F97J60.asm
                     TOSH   0x000ffe       data     extern C:\MCC18\src\extended\proc\p18F97J60.asm
                     TOSU   0x000fff       data     extern C:\MCC18\src\extended\proc\p18F97J60.asm


